
TRACES_Secure.elf:     file format elf32-littlearm

Sections:
Idx Name          Size      VMA       LMA       File off  Algn
  0 .isr_vector   000001f4  0c000000  0c000000  00001000  2**0
                  CONTENTS, ALLOC, LOAD, READONLY, DATA
  1 .text         00005fd4  0c0001f8  0c0001f8  000011f8  2**3
                  CONTENTS, ALLOC, LOAD, READONLY, CODE
  2 .rodata       000002fc  0c0061cc  0c0061cc  000071cc  2**2
                  CONTENTS, ALLOC, LOAD, READONLY, DATA
  3 .ARM.extab    00000000  0c0064c8  0c0064c8  00009040  2**0
                  CONTENTS
  4 .ARM          00000008  0c0064c8  0c0064c8  000074c8  2**2
                  CONTENTS, ALLOC, LOAD, READONLY, DATA
  5 .preinit_array 00000000  0c0064d0  0c0064d0  00009040  2**0
                  CONTENTS, ALLOC, LOAD, DATA
  6 .init_array   00000004  0c0064d0  0c0064d0  000074d0  2**2
                  CONTENTS, ALLOC, LOAD, DATA
  7 .fini_array   00000004  0c0064d4  0c0064d4  000074d4  2**2
                  CONTENTS, ALLOC, LOAD, DATA
  8 .data         000000b0  30000000  0c0064d8  00008000  2**2
                  CONTENTS, ALLOC, LOAD, DATA
  9 .gnu.sgstubs  00000040  0c03e000  0c03e000  00009000  2**5
                  CONTENTS, ALLOC, LOAD, READONLY, CODE
 10 .bss          00000184  300000b0  300000b0  000090b0  2**3
                  ALLOC
 11 ._user_heap_stack 00000604  30000234  30000234  000090b0  2**0
                  ALLOC
 12 .ARM.attributes 00000036  00000000  00000000  00009040  2**0
                  CONTENTS, READONLY
 13 .debug_info   00018be7  00000000  00000000  00009076  2**0
                  CONTENTS, READONLY, DEBUGGING, OCTETS
 14 .debug_abbrev 00003c36  00000000  00000000  00021c5d  2**0
                  CONTENTS, READONLY, DEBUGGING, OCTETS
 15 .debug_aranges 00001178  00000000  00000000  00025898  2**3
                  CONTENTS, READONLY, DEBUGGING, OCTETS
 16 .debug_rnglists 00001478  00000000  00000000  00026a10  2**0
                  CONTENTS, READONLY, DEBUGGING, OCTETS
 17 .debug_macro  000034b0  00000000  00000000  00027e88  2**0
                  CONTENTS, READONLY, DEBUGGING, OCTETS
 18 .debug_line   0001e2ab  00000000  00000000  0002b338  2**0
                  CONTENTS, READONLY, DEBUGGING, OCTETS
 19 .debug_str    0010eae3  00000000  00000000  000495e3  2**0
                  CONTENTS, READONLY, DEBUGGING, OCTETS
 20 .comment      00000043  00000000  00000000  001580c6  2**0
                  CONTENTS, READONLY
 21 .debug_frame  000030c8  00000000  00000000  0015810c  2**2
                  CONTENTS, READONLY, DEBUGGING, OCTETS
 22 .debug_loclists 0000bec5  00000000  00000000  0015b1d4  2**0
                  CONTENTS, READONLY, DEBUGGING, OCTETS
 23 .debug_line_str 0000006e  00000000  00000000  00167099  2**0
                  CONTENTS, READONLY, DEBUGGING, OCTETS

Disassembly of section .text:

0c0001f8 <__do_global_dtors_aux>:
 c0001f8:	b510      	push	{r4, lr}
 c0001fa:	4c05      	ldr	r4, [pc, #20]	@ (c000210 <__do_global_dtors_aux+0x18>)
 c0001fc:	7823      	ldrb	r3, [r4, #0]
 c0001fe:	b933      	cbnz	r3, c00020e <__do_global_dtors_aux+0x16>
 c000200:	4b04      	ldr	r3, [pc, #16]	@ (c000214 <__do_global_dtors_aux+0x1c>)
 c000202:	b113      	cbz	r3, c00020a <__do_global_dtors_aux+0x12>
 c000204:	4804      	ldr	r0, [pc, #16]	@ (c000218 <__do_global_dtors_aux+0x20>)
 c000206:	f3af 8000 	nop.w
 c00020a:	2301      	movs	r3, #1
 c00020c:	7023      	strb	r3, [r4, #0]
 c00020e:	bd10      	pop	{r4, pc}
 c000210:	300000b0 	.word	0x300000b0
 c000214:	00000000 	.word	0x00000000
 c000218:	0c0061b4 	.word	0x0c0061b4

0c00021c <frame_dummy>:
 c00021c:	b508      	push	{r3, lr}
 c00021e:	4b03      	ldr	r3, [pc, #12]	@ (c00022c <frame_dummy+0x10>)
 c000220:	b11b      	cbz	r3, c00022a <frame_dummy+0xe>
 c000222:	4903      	ldr	r1, [pc, #12]	@ (c000230 <frame_dummy+0x14>)
 c000224:	4803      	ldr	r0, [pc, #12]	@ (c000234 <frame_dummy+0x18>)
 c000226:	f3af 8000 	nop.w
 c00022a:	bd08      	pop	{r3, pc}
 c00022c:	00000000 	.word	0x00000000
 c000230:	300000b4 	.word	0x300000b4
 c000234:	0c0061b4 	.word	0x0c0061b4

0c000238 <__gnu_cmse_nonsecure_call>:
 c000238:	e92d 4fe0 	stmdb	sp!, {r5, r6, r7, r8, r9, sl, fp, lr}
 c00023c:	4627      	mov	r7, r4
 c00023e:	46a0      	mov	r8, r4
 c000240:	46a1      	mov	r9, r4
 c000242:	46a2      	mov	sl, r4
 c000244:	46a3      	mov	fp, r4
 c000246:	46a4      	mov	ip, r4
 c000248:	ed2d 8b10 	vpush	{d8-d15}
 c00024c:	f04f 0500 	mov.w	r5, #0
 c000250:	ec45 5b18 	vmov	d8, r5, r5
 c000254:	ec45 5a19 	vmov	s18, s19, r5, r5
 c000258:	ec45 5a1a 	vmov	s20, s21, r5, r5
 c00025c:	ec45 5a1b 	vmov	s22, s23, r5, r5
 c000260:	ec45 5a1c 	vmov	s24, s25, r5, r5
 c000264:	ec45 5a1d 	vmov	s26, s27, r5, r5
 c000268:	ec45 5a1e 	vmov	s28, s29, r5, r5
 c00026c:	ec45 5a1f 	vmov	s30, s31, r5, r5
 c000270:	eef1 5a10 	vmrs	r5, fpscr
 c000274:	f64f 7660 	movw	r6, #65376	@ 0xff60
 c000278:	f6c0 76ff 	movt	r6, #4095	@ 0xfff
 c00027c:	4035      	ands	r5, r6
 c00027e:	eee1 5a10 	vmsr	fpscr, r5
 c000282:	f384 8800 	msr	CPSR_f, r4
 c000286:	4625      	mov	r5, r4
 c000288:	4626      	mov	r6, r4
 c00028a:	47a4      	blxns	r4
 c00028c:	ecbd 8b10 	vpop	{d8-d15}
 c000290:	e8bd 8fe0 	ldmia.w	sp!, {r5, r6, r7, r8, r9, sl, fp, pc}

0c000294 <__aeabi_uldivmod>:
 c000294:	b953      	cbnz	r3, c0002ac <__aeabi_uldivmod+0x18>
 c000296:	b94a      	cbnz	r2, c0002ac <__aeabi_uldivmod+0x18>
 c000298:	2900      	cmp	r1, #0
 c00029a:	bf08      	it	eq
 c00029c:	2800      	cmpeq	r0, #0
 c00029e:	bf1c      	itt	ne
 c0002a0:	f04f 31ff 	movne.w	r1, #4294967295
 c0002a4:	f04f 30ff 	movne.w	r0, #4294967295
 c0002a8:	f000 b97e 	b.w	c0005a8 <__aeabi_idiv0>
 c0002ac:	f1ad 0c08 	sub.w	ip, sp, #8
 c0002b0:	e96d ce04 	strd	ip, lr, [sp, #-16]!
 c0002b4:	f000 f806 	bl	c0002c4 <__udivmoddi4>
 c0002b8:	f8dd e004 	ldr.w	lr, [sp, #4]
 c0002bc:	e9dd 2302 	ldrd	r2, r3, [sp, #8]
 c0002c0:	b004      	add	sp, #16
 c0002c2:	4770      	bx	lr

0c0002c4 <__udivmoddi4>:
 c0002c4:	e92d 4ff0 	stmdb	sp!, {r4, r5, r6, r7, r8, r9, sl, fp, lr}
 c0002c8:	9d09      	ldr	r5, [sp, #36]	@ 0x24
 c0002ca:	460c      	mov	r4, r1
 c0002cc:	2b00      	cmp	r3, #0
 c0002ce:	d14d      	bne.n	c00036c <__udivmoddi4+0xa8>
 c0002d0:	428a      	cmp	r2, r1
 c0002d2:	460f      	mov	r7, r1
 c0002d4:	4684      	mov	ip, r0
 c0002d6:	4696      	mov	lr, r2
 c0002d8:	fab2 f382 	clz	r3, r2
 c0002dc:	d960      	bls.n	c0003a0 <__udivmoddi4+0xdc>
 c0002de:	b14b      	cbz	r3, c0002f4 <__udivmoddi4+0x30>
 c0002e0:	fa02 fe03 	lsl.w	lr, r2, r3
 c0002e4:	f1c3 0220 	rsb	r2, r3, #32
 c0002e8:	409f      	lsls	r7, r3
 c0002ea:	fa00 fc03 	lsl.w	ip, r0, r3
 c0002ee:	fa20 f202 	lsr.w	r2, r0, r2
 c0002f2:	4317      	orrs	r7, r2
 c0002f4:	ea4f 461e 	mov.w	r6, lr, lsr #16
 c0002f8:	fa1f f48e 	uxth.w	r4, lr
 c0002fc:	ea4f 421c 	mov.w	r2, ip, lsr #16
 c000300:	fbb7 f1f6 	udiv	r1, r7, r6
 c000304:	fb06 7711 	mls	r7, r6, r1, r7
 c000308:	fb01 f004 	mul.w	r0, r1, r4
 c00030c:	ea42 4207 	orr.w	r2, r2, r7, lsl #16
 c000310:	4290      	cmp	r0, r2
 c000312:	d908      	bls.n	c000326 <__udivmoddi4+0x62>
 c000314:	eb1e 0202 	adds.w	r2, lr, r2
 c000318:	f101 37ff 	add.w	r7, r1, #4294967295
 c00031c:	d202      	bcs.n	c000324 <__udivmoddi4+0x60>
 c00031e:	4290      	cmp	r0, r2
 c000320:	f200 812d 	bhi.w	c00057e <__udivmoddi4+0x2ba>
 c000324:	4639      	mov	r1, r7
 c000326:	1a12      	subs	r2, r2, r0
 c000328:	fa1f fc8c 	uxth.w	ip, ip
 c00032c:	fbb2 f0f6 	udiv	r0, r2, r6
 c000330:	fb06 2210 	mls	r2, r6, r0, r2
 c000334:	fb00 f404 	mul.w	r4, r0, r4
 c000338:	ea4c 4c02 	orr.w	ip, ip, r2, lsl #16
 c00033c:	4564      	cmp	r4, ip
 c00033e:	d908      	bls.n	c000352 <__udivmoddi4+0x8e>
 c000340:	eb1e 0c0c 	adds.w	ip, lr, ip
 c000344:	f100 32ff 	add.w	r2, r0, #4294967295
 c000348:	d202      	bcs.n	c000350 <__udivmoddi4+0x8c>
 c00034a:	4564      	cmp	r4, ip
 c00034c:	f200 811a 	bhi.w	c000584 <__udivmoddi4+0x2c0>
 c000350:	4610      	mov	r0, r2
 c000352:	ea40 4001 	orr.w	r0, r0, r1, lsl #16
 c000356:	ebac 0c04 	sub.w	ip, ip, r4
 c00035a:	2100      	movs	r1, #0
 c00035c:	b125      	cbz	r5, c000368 <__udivmoddi4+0xa4>
 c00035e:	fa2c f303 	lsr.w	r3, ip, r3
 c000362:	2200      	movs	r2, #0
 c000364:	e9c5 3200 	strd	r3, r2, [r5]
 c000368:	e8bd 8ff0 	ldmia.w	sp!, {r4, r5, r6, r7, r8, r9, sl, fp, pc}
 c00036c:	428b      	cmp	r3, r1
 c00036e:	d905      	bls.n	c00037c <__udivmoddi4+0xb8>
 c000370:	b10d      	cbz	r5, c000376 <__udivmoddi4+0xb2>
 c000372:	e9c5 0100 	strd	r0, r1, [r5]
 c000376:	2100      	movs	r1, #0
 c000378:	4608      	mov	r0, r1
 c00037a:	e7f5      	b.n	c000368 <__udivmoddi4+0xa4>
 c00037c:	fab3 f183 	clz	r1, r3
 c000380:	2900      	cmp	r1, #0
 c000382:	d14d      	bne.n	c000420 <__udivmoddi4+0x15c>
 c000384:	42a3      	cmp	r3, r4
 c000386:	f0c0 80f2 	bcc.w	c00056e <__udivmoddi4+0x2aa>
 c00038a:	4290      	cmp	r0, r2
 c00038c:	f080 80ef 	bcs.w	c00056e <__udivmoddi4+0x2aa>
 c000390:	4606      	mov	r6, r0
 c000392:	4623      	mov	r3, r4
 c000394:	4608      	mov	r0, r1
 c000396:	2d00      	cmp	r5, #0
 c000398:	d0e6      	beq.n	c000368 <__udivmoddi4+0xa4>
 c00039a:	e9c5 6300 	strd	r6, r3, [r5]
 c00039e:	e7e3      	b.n	c000368 <__udivmoddi4+0xa4>
 c0003a0:	2b00      	cmp	r3, #0
 c0003a2:	f040 80a2 	bne.w	c0004ea <__udivmoddi4+0x226>
 c0003a6:	1a8a      	subs	r2, r1, r2
 c0003a8:	ea4f 471e 	mov.w	r7, lr, lsr #16
 c0003ac:	fa1f f68e 	uxth.w	r6, lr
 c0003b0:	2101      	movs	r1, #1
 c0003b2:	fbb2 f4f7 	udiv	r4, r2, r7
 c0003b6:	fb07 2014 	mls	r0, r7, r4, r2
 c0003ba:	ea4f 421c 	mov.w	r2, ip, lsr #16
 c0003be:	ea42 4200 	orr.w	r2, r2, r0, lsl #16
 c0003c2:	fb06 f004 	mul.w	r0, r6, r4
 c0003c6:	4290      	cmp	r0, r2
 c0003c8:	d90f      	bls.n	c0003ea <__udivmoddi4+0x126>
 c0003ca:	eb1e 0202 	adds.w	r2, lr, r2
 c0003ce:	f104 38ff 	add.w	r8, r4, #4294967295
 c0003d2:	bf2c      	ite	cs
 c0003d4:	f04f 0901 	movcs.w	r9, #1
 c0003d8:	f04f 0900 	movcc.w	r9, #0
 c0003dc:	4290      	cmp	r0, r2
 c0003de:	d903      	bls.n	c0003e8 <__udivmoddi4+0x124>
 c0003e0:	f1b9 0f00 	cmp.w	r9, #0
 c0003e4:	f000 80c8 	beq.w	c000578 <__udivmoddi4+0x2b4>
 c0003e8:	4644      	mov	r4, r8
 c0003ea:	1a12      	subs	r2, r2, r0
 c0003ec:	fa1f fc8c 	uxth.w	ip, ip
 c0003f0:	fbb2 f0f7 	udiv	r0, r2, r7
 c0003f4:	fb07 2210 	mls	r2, r7, r0, r2
 c0003f8:	fb00 f606 	mul.w	r6, r0, r6
 c0003fc:	ea4c 4c02 	orr.w	ip, ip, r2, lsl #16
 c000400:	4566      	cmp	r6, ip
 c000402:	d908      	bls.n	c000416 <__udivmoddi4+0x152>
 c000404:	eb1e 0c0c 	adds.w	ip, lr, ip
 c000408:	f100 32ff 	add.w	r2, r0, #4294967295
 c00040c:	d202      	bcs.n	c000414 <__udivmoddi4+0x150>
 c00040e:	4566      	cmp	r6, ip
 c000410:	f200 80bb 	bhi.w	c00058a <__udivmoddi4+0x2c6>
 c000414:	4610      	mov	r0, r2
 c000416:	ebac 0c06 	sub.w	ip, ip, r6
 c00041a:	ea40 4004 	orr.w	r0, r0, r4, lsl #16
 c00041e:	e79d      	b.n	c00035c <__udivmoddi4+0x98>
 c000420:	f1c1 0620 	rsb	r6, r1, #32
 c000424:	408b      	lsls	r3, r1
 c000426:	fa04 fe01 	lsl.w	lr, r4, r1
 c00042a:	fa22 f706 	lsr.w	r7, r2, r6
 c00042e:	fa20 fc06 	lsr.w	ip, r0, r6
 c000432:	40f4      	lsrs	r4, r6
 c000434:	408a      	lsls	r2, r1
 c000436:	431f      	orrs	r7, r3
 c000438:	ea4e 030c 	orr.w	r3, lr, ip
 c00043c:	fa00 fe01 	lsl.w	lr, r0, r1
 c000440:	ea4f 4817 	mov.w	r8, r7, lsr #16
 c000444:	ea4f 4913 	mov.w	r9, r3, lsr #16
 c000448:	fa1f fc87 	uxth.w	ip, r7
 c00044c:	fbb4 f0f8 	udiv	r0, r4, r8
 c000450:	fb08 4410 	mls	r4, r8, r0, r4
 c000454:	ea49 4404 	orr.w	r4, r9, r4, lsl #16
 c000458:	fb00 f90c 	mul.w	r9, r0, ip
 c00045c:	45a1      	cmp	r9, r4
 c00045e:	d90e      	bls.n	c00047e <__udivmoddi4+0x1ba>
 c000460:	193c      	adds	r4, r7, r4
 c000462:	f100 3aff 	add.w	sl, r0, #4294967295
 c000466:	bf2c      	ite	cs
 c000468:	f04f 0b01 	movcs.w	fp, #1
 c00046c:	f04f 0b00 	movcc.w	fp, #0
 c000470:	45a1      	cmp	r9, r4
 c000472:	d903      	bls.n	c00047c <__udivmoddi4+0x1b8>
 c000474:	f1bb 0f00 	cmp.w	fp, #0
 c000478:	f000 8093 	beq.w	c0005a2 <__udivmoddi4+0x2de>
 c00047c:	4650      	mov	r0, sl
 c00047e:	eba4 0409 	sub.w	r4, r4, r9
 c000482:	fa1f f983 	uxth.w	r9, r3
 c000486:	fbb4 f3f8 	udiv	r3, r4, r8
 c00048a:	fb08 4413 	mls	r4, r8, r3, r4
 c00048e:	fb03 fc0c 	mul.w	ip, r3, ip
 c000492:	ea49 4404 	orr.w	r4, r9, r4, lsl #16
 c000496:	45a4      	cmp	ip, r4
 c000498:	d906      	bls.n	c0004a8 <__udivmoddi4+0x1e4>
 c00049a:	193c      	adds	r4, r7, r4
 c00049c:	f103 38ff 	add.w	r8, r3, #4294967295
 c0004a0:	d201      	bcs.n	c0004a6 <__udivmoddi4+0x1e2>
 c0004a2:	45a4      	cmp	ip, r4
 c0004a4:	d87a      	bhi.n	c00059c <__udivmoddi4+0x2d8>
 c0004a6:	4643      	mov	r3, r8
 c0004a8:	ea43 4000 	orr.w	r0, r3, r0, lsl #16
 c0004ac:	eba4 040c 	sub.w	r4, r4, ip
 c0004b0:	fba0 9802 	umull	r9, r8, r0, r2
 c0004b4:	4544      	cmp	r4, r8
 c0004b6:	46cc      	mov	ip, r9
 c0004b8:	4643      	mov	r3, r8
 c0004ba:	d302      	bcc.n	c0004c2 <__udivmoddi4+0x1fe>
 c0004bc:	d106      	bne.n	c0004cc <__udivmoddi4+0x208>
 c0004be:	45ce      	cmp	lr, r9
 c0004c0:	d204      	bcs.n	c0004cc <__udivmoddi4+0x208>
 c0004c2:	3801      	subs	r0, #1
 c0004c4:	ebb9 0c02 	subs.w	ip, r9, r2
 c0004c8:	eb68 0307 	sbc.w	r3, r8, r7
 c0004cc:	b15d      	cbz	r5, c0004e6 <__udivmoddi4+0x222>
 c0004ce:	ebbe 020c 	subs.w	r2, lr, ip
 c0004d2:	eb64 0403 	sbc.w	r4, r4, r3
 c0004d6:	fa04 f606 	lsl.w	r6, r4, r6
 c0004da:	fa22 f301 	lsr.w	r3, r2, r1
 c0004de:	40cc      	lsrs	r4, r1
 c0004e0:	431e      	orrs	r6, r3
 c0004e2:	e9c5 6400 	strd	r6, r4, [r5]
 c0004e6:	2100      	movs	r1, #0
 c0004e8:	e73e      	b.n	c000368 <__udivmoddi4+0xa4>
 c0004ea:	fa02 fe03 	lsl.w	lr, r2, r3
 c0004ee:	f1c3 0120 	rsb	r1, r3, #32
 c0004f2:	fa04 f203 	lsl.w	r2, r4, r3
 c0004f6:	fa00 fc03 	lsl.w	ip, r0, r3
 c0004fa:	40cc      	lsrs	r4, r1
 c0004fc:	ea4f 471e 	mov.w	r7, lr, lsr #16
 c000500:	fa20 f101 	lsr.w	r1, r0, r1
 c000504:	fa1f f68e 	uxth.w	r6, lr
 c000508:	fbb4 f0f7 	udiv	r0, r4, r7
 c00050c:	430a      	orrs	r2, r1
 c00050e:	fb07 4410 	mls	r4, r7, r0, r4
 c000512:	0c11      	lsrs	r1, r2, #16
 c000514:	ea41 4104 	orr.w	r1, r1, r4, lsl #16
 c000518:	fb00 f406 	mul.w	r4, r0, r6
 c00051c:	428c      	cmp	r4, r1
 c00051e:	d90e      	bls.n	c00053e <__udivmoddi4+0x27a>
 c000520:	eb1e 0101 	adds.w	r1, lr, r1
 c000524:	f100 38ff 	add.w	r8, r0, #4294967295
 c000528:	bf2c      	ite	cs
 c00052a:	f04f 0901 	movcs.w	r9, #1
 c00052e:	f04f 0900 	movcc.w	r9, #0
 c000532:	428c      	cmp	r4, r1
 c000534:	d902      	bls.n	c00053c <__udivmoddi4+0x278>
 c000536:	f1b9 0f00 	cmp.w	r9, #0
 c00053a:	d02c      	beq.n	c000596 <__udivmoddi4+0x2d2>
 c00053c:	4640      	mov	r0, r8
 c00053e:	1b09      	subs	r1, r1, r4
 c000540:	b292      	uxth	r2, r2
 c000542:	fbb1 f4f7 	udiv	r4, r1, r7
 c000546:	fb07 1114 	mls	r1, r7, r4, r1
 c00054a:	ea42 4201 	orr.w	r2, r2, r1, lsl #16
 c00054e:	fb04 f106 	mul.w	r1, r4, r6
 c000552:	4291      	cmp	r1, r2
 c000554:	d907      	bls.n	c000566 <__udivmoddi4+0x2a2>
 c000556:	eb1e 0202 	adds.w	r2, lr, r2
 c00055a:	f104 38ff 	add.w	r8, r4, #4294967295
 c00055e:	d201      	bcs.n	c000564 <__udivmoddi4+0x2a0>
 c000560:	4291      	cmp	r1, r2
 c000562:	d815      	bhi.n	c000590 <__udivmoddi4+0x2cc>
 c000564:	4644      	mov	r4, r8
 c000566:	1a52      	subs	r2, r2, r1
 c000568:	ea44 4100 	orr.w	r1, r4, r0, lsl #16
 c00056c:	e721      	b.n	c0003b2 <__udivmoddi4+0xee>
 c00056e:	1a86      	subs	r6, r0, r2
 c000570:	eb64 0303 	sbc.w	r3, r4, r3
 c000574:	2001      	movs	r0, #1
 c000576:	e70e      	b.n	c000396 <__udivmoddi4+0xd2>
 c000578:	3c02      	subs	r4, #2
 c00057a:	4472      	add	r2, lr
 c00057c:	e735      	b.n	c0003ea <__udivmoddi4+0x126>
 c00057e:	3902      	subs	r1, #2
 c000580:	4472      	add	r2, lr
 c000582:	e6d0      	b.n	c000326 <__udivmoddi4+0x62>
 c000584:	44f4      	add	ip, lr
 c000586:	3802      	subs	r0, #2
 c000588:	e6e3      	b.n	c000352 <__udivmoddi4+0x8e>
 c00058a:	44f4      	add	ip, lr
 c00058c:	3802      	subs	r0, #2
 c00058e:	e742      	b.n	c000416 <__udivmoddi4+0x152>
 c000590:	3c02      	subs	r4, #2
 c000592:	4472      	add	r2, lr
 c000594:	e7e7      	b.n	c000566 <__udivmoddi4+0x2a2>
 c000596:	3802      	subs	r0, #2
 c000598:	4471      	add	r1, lr
 c00059a:	e7d0      	b.n	c00053e <__udivmoddi4+0x27a>
 c00059c:	3b02      	subs	r3, #2
 c00059e:	443c      	add	r4, r7
 c0005a0:	e782      	b.n	c0004a8 <__udivmoddi4+0x1e4>
 c0005a2:	3802      	subs	r0, #2
 c0005a4:	443c      	add	r4, r7
 c0005a6:	e76a      	b.n	c00047e <__udivmoddi4+0x1ba>

0c0005a8 <__aeabi_idiv0>:
 c0005a8:	4770      	bx	lr
 c0005aa:	bf00      	nop

0c0005ac <sha256_initialize>:
 c0005ac:	b510      	push	{r4, lr}
 c0005ae:	4604      	mov	r4, r0
 c0005b0:	2244      	movs	r2, #68	@ 0x44
 c0005b2:	2100      	movs	r1, #0
 c0005b4:	3020      	adds	r0, #32
 c0005b6:	f005 fdc3 	bl	c006140 <memset>
 c0005ba:	2300      	movs	r3, #0
 c0005bc:	480a      	ldr	r0, [pc, #40]	@ (c0005e8 <sha256_initialize+0x3c>)
 c0005be:	4a0b      	ldr	r2, [pc, #44]	@ (c0005ec <sha256_initialize+0x40>)
 c0005c0:	490b      	ldr	r1, [pc, #44]	@ (c0005f0 <sha256_initialize+0x44>)
 c0005c2:	e9c4 0218 	strd	r0, r2, [r4, #96]	@ 0x60
 c0005c6:	4a0b      	ldr	r2, [pc, #44]	@ (c0005f4 <sha256_initialize+0x48>)
 c0005c8:	480b      	ldr	r0, [pc, #44]	@ (c0005f8 <sha256_initialize+0x4c>)
 c0005ca:	e9c4 121a 	strd	r1, r2, [r4, #104]	@ 0x68
 c0005ce:	4a0b      	ldr	r2, [pc, #44]	@ (c0005fc <sha256_initialize+0x50>)
 c0005d0:	490b      	ldr	r1, [pc, #44]	@ (c000600 <sha256_initialize+0x54>)
 c0005d2:	e9c4 021c 	strd	r0, r2, [r4, #112]	@ 0x70
 c0005d6:	4a0b      	ldr	r2, [pc, #44]	@ (c000604 <sha256_initialize+0x58>)
 c0005d8:	f8c4 3080 	str.w	r3, [r4, #128]	@ 0x80
 c0005dc:	f8c4 3084 	str.w	r3, [r4, #132]	@ 0x84
 c0005e0:	e9c4 121e 	strd	r1, r2, [r4, #120]	@ 0x78
 c0005e4:	bd10      	pop	{r4, pc}
 c0005e6:	bf00      	nop
 c0005e8:	6a09e667 	.word	0x6a09e667
 c0005ec:	bb67ae85 	.word	0xbb67ae85
 c0005f0:	3c6ef372 	.word	0x3c6ef372
 c0005f4:	a54ff53a 	.word	0xa54ff53a
 c0005f8:	510e527f 	.word	0x510e527f
 c0005fc:	9b05688c 	.word	0x9b05688c
 c000600:	1f83d9ab 	.word	0x1f83d9ab
 c000604:	5be0cd19 	.word	0x5be0cd19

0c000608 <sha256_update>:
 c000608:	4603      	mov	r3, r0
 c00060a:	e92d 4ff0 	stmdb	sp!, {r4, r5, r6, r7, r8, r9, sl, fp, lr}
 c00060e:	00d7      	lsls	r7, r2, #3
 c000610:	f5ad 7d0f 	sub.w	sp, sp, #572	@ 0x23c
 c000614:	f06f 0602 	mvn.w	r6, #2
 c000618:	2407      	movs	r4, #7
 c00061a:	e9cd 2001 	strd	r2, r0, [sp, #4]
 c00061e:	337f      	adds	r3, #127	@ 0x7f
 c000620:	fa5f fc87 	uxtb.w	ip, r7
 c000624:	e00e      	b.n	c000644 <sha256_update+0x3c>
 c000626:	2c02      	cmp	r4, #2
 c000628:	f340 81cb 	ble.w	c0009c2 <sha256_update+0x3ba>
 c00062c:	9801      	ldr	r0, [sp, #4]
 c00062e:	fa20 f506 	lsr.w	r5, r0, r6
 c000632:	fa52 f085 	uxtab	r0, r2, r5
 c000636:	28ff      	cmp	r0, #255	@ 0xff
 c000638:	dc0c      	bgt.n	c000654 <sha256_update+0x4c>
 c00063a:	442a      	add	r2, r5
 c00063c:	721a      	strb	r2, [r3, #8]
 c00063e:	3c01      	subs	r4, #1
 c000640:	3b01      	subs	r3, #1
 c000642:	3608      	adds	r6, #8
 c000644:	2c07      	cmp	r4, #7
 c000646:	7a1a      	ldrb	r2, [r3, #8]
 c000648:	d1ed      	bne.n	c000626 <sha256_update+0x1e>
 c00064a:	eb0c 0002 	add.w	r0, ip, r2
 c00064e:	28ff      	cmp	r0, #255	@ 0xff
 c000650:	463d      	mov	r5, r7
 c000652:	ddf2      	ble.n	c00063a <sha256_update+0x32>
 c000654:	79d8      	ldrb	r0, [r3, #7]
 c000656:	f100 0e01 	add.w	lr, r0, #1
 c00065a:	28ff      	cmp	r0, #255	@ 0xff
 c00065c:	f883 e007 	strb.w	lr, [r3, #7]
 c000660:	d13e      	bne.n	c0006e0 <sha256_update+0xd8>
 c000662:	7998      	ldrb	r0, [r3, #6]
 c000664:	f100 0e01 	add.w	lr, r0, #1
 c000668:	28ff      	cmp	r0, #255	@ 0xff
 c00066a:	f883 e006 	strb.w	lr, [r3, #6]
 c00066e:	d137      	bne.n	c0006e0 <sha256_update+0xd8>
 c000670:	2c02      	cmp	r4, #2
 c000672:	f000 8182 	beq.w	c00097a <sha256_update+0x372>
 c000676:	7958      	ldrb	r0, [r3, #5]
 c000678:	f100 0e01 	add.w	lr, r0, #1
 c00067c:	28ff      	cmp	r0, #255	@ 0xff
 c00067e:	f883 e005 	strb.w	lr, [r3, #5]
 c000682:	d12d      	bne.n	c0006e0 <sha256_update+0xd8>
 c000684:	2c03      	cmp	r4, #3
 c000686:	f000 817e 	beq.w	c000986 <sha256_update+0x37e>
 c00068a:	7918      	ldrb	r0, [r3, #4]
 c00068c:	f100 0e01 	add.w	lr, r0, #1
 c000690:	28ff      	cmp	r0, #255	@ 0xff
 c000692:	f883 e004 	strb.w	lr, [r3, #4]
 c000696:	d123      	bne.n	c0006e0 <sha256_update+0xd8>
 c000698:	2c04      	cmp	r4, #4
 c00069a:	f000 817a 	beq.w	c000992 <sha256_update+0x38a>
 c00069e:	78d8      	ldrb	r0, [r3, #3]
 c0006a0:	f100 0e01 	add.w	lr, r0, #1
 c0006a4:	28ff      	cmp	r0, #255	@ 0xff
 c0006a6:	f883 e003 	strb.w	lr, [r3, #3]
 c0006aa:	d119      	bne.n	c0006e0 <sha256_update+0xd8>
 c0006ac:	2c05      	cmp	r4, #5
 c0006ae:	f000 8176 	beq.w	c00099e <sha256_update+0x396>
 c0006b2:	7898      	ldrb	r0, [r3, #2]
 c0006b4:	f100 0e01 	add.w	lr, r0, #1
 c0006b8:	28ff      	cmp	r0, #255	@ 0xff
 c0006ba:	f883 e002 	strb.w	lr, [r3, #2]
 c0006be:	d10f      	bne.n	c0006e0 <sha256_update+0xd8>
 c0006c0:	2c06      	cmp	r4, #6
 c0006c2:	f000 8172 	beq.w	c0009aa <sha256_update+0x3a2>
 c0006c6:	7858      	ldrb	r0, [r3, #1]
 c0006c8:	f100 0e01 	add.w	lr, r0, #1
 c0006cc:	28ff      	cmp	r0, #255	@ 0xff
 c0006ce:	f883 e001 	strb.w	lr, [r3, #1]
 c0006d2:	d105      	bne.n	c0006e0 <sha256_update+0xd8>
 c0006d4:	2c07      	cmp	r4, #7
 c0006d6:	f000 816e 	beq.w	c0009b6 <sha256_update+0x3ae>
 c0006da:	7818      	ldrb	r0, [r3, #0]
 c0006dc:	3001      	adds	r0, #1
 c0006de:	7018      	strb	r0, [r3, #0]
 c0006e0:	442a      	add	r2, r5
 c0006e2:	3c01      	subs	r4, #1
 c0006e4:	721a      	strb	r2, [r3, #8]
 c0006e6:	1c62      	adds	r2, r4, #1
 c0006e8:	d1aa      	bne.n	c000640 <sha256_update+0x38>
 c0006ea:	9801      	ldr	r0, [sp, #4]
 c0006ec:	b340      	cbz	r0, c000740 <sha256_update+0x138>
 c0006ee:	468b      	mov	fp, r1
 c0006f0:	9b02      	ldr	r3, [sp, #8]
 c0006f2:	9d01      	ldr	r5, [sp, #4]
 c0006f4:	f893 2086 	ldrb.w	r2, [r3, #134]	@ 0x86
 c0006f8:	f893 3087 	ldrb.w	r3, [r3, #135]	@ 0x87
 c0006fc:	f002 0201 	and.w	r2, r2, #1
 c000700:	08db      	lsrs	r3, r3, #3
 c000702:	eb03 1342 	add.w	r3, r3, r2, lsl #5
 c000706:	1a18      	subs	r0, r3, r0
 c000708:	9303      	str	r3, [sp, #12]
 c00070a:	f000 003f 	and.w	r0, r0, #63	@ 0x3f
 c00070e:	9e02      	ldr	r6, [sp, #8]
 c000710:	e001      	b.n	c000716 <sha256_update+0x10e>
 c000712:	2840      	cmp	r0, #64	@ 0x40
 c000714:	d018      	beq.n	c000748 <sha256_update+0x140>
 c000716:	43c3      	mvns	r3, r0
 c000718:	f020 0203 	bic.w	r2, r0, #3
 c00071c:	f81b 4b01 	ldrb.w	r4, [fp], #1
 c000720:	4432      	add	r2, r6
 c000722:	f003 0303 	and.w	r3, r3, #3
 c000726:	6a11      	ldr	r1, [r2, #32]
 c000728:	00db      	lsls	r3, r3, #3
 c00072a:	fa04 f303 	lsl.w	r3, r4, r3
 c00072e:	4319      	orrs	r1, r3
 c000730:	3d01      	subs	r5, #1
 c000732:	f100 0001 	add.w	r0, r0, #1
 c000736:	6211      	str	r1, [r2, #32]
 c000738:	d1eb      	bne.n	c000712 <sha256_update+0x10a>
 c00073a:	2840      	cmp	r0, #64	@ 0x40
 c00073c:	9501      	str	r5, [sp, #4]
 c00073e:	d004      	beq.n	c00074a <sha256_update+0x142>
 c000740:	f50d 7d0f 	add.w	sp, sp, #572	@ 0x23c
 c000744:	e8bd 8ff0 	ldmia.w	sp!, {r4, r5, r6, r7, r8, r9, sl, fp, pc}
 c000748:	9501      	str	r5, [sp, #4]
 c00074a:	f44f 7280 	mov.w	r2, #256	@ 0x100
 c00074e:	499e      	ldr	r1, [pc, #632]	@ (c0009c8 <sha256_update+0x3c0>)
 c000750:	a84e      	add	r0, sp, #312	@ 0x138
 c000752:	f005 fd21 	bl	c006198 <memcpy>
 c000756:	9902      	ldr	r1, [sp, #8]
 c000758:	2300      	movs	r3, #0
 c00075a:	6a8a      	ldr	r2, [r1, #40]	@ 0x28
 c00075c:	2710      	movs	r7, #16
 c00075e:	9200      	str	r2, [sp, #0]
 c000760:	e9d1 240b 	ldrd	r2, r4, [r1, #44]	@ 0x2c
 c000764:	9404      	str	r4, [sp, #16]
 c000766:	6b4c      	ldr	r4, [r1, #52]	@ 0x34
 c000768:	6a48      	ldr	r0, [r1, #36]	@ 0x24
 c00076a:	9405      	str	r4, [sp, #20]
 c00076c:	6b8c      	ldr	r4, [r1, #56]	@ 0x38
 c00076e:	6a0e      	ldr	r6, [r1, #32]
 c000770:	9406      	str	r4, [sp, #24]
 c000772:	6bcc      	ldr	r4, [r1, #60]	@ 0x3c
 c000774:	900f      	str	r0, [sp, #60]	@ 0x3c
 c000776:	9407      	str	r4, [sp, #28]
 c000778:	6c0c      	ldr	r4, [r1, #64]	@ 0x40
 c00077a:	9800      	ldr	r0, [sp, #0]
 c00077c:	9408      	str	r4, [sp, #32]
 c00077e:	6c4c      	ldr	r4, [r1, #68]	@ 0x44
 c000780:	960e      	str	r6, [sp, #56]	@ 0x38
 c000782:	9409      	str	r4, [sp, #36]	@ 0x24
 c000784:	6c8c      	ldr	r4, [r1, #72]	@ 0x48
 c000786:	ad0e      	add	r5, sp, #56	@ 0x38
 c000788:	940a      	str	r4, [sp, #40]	@ 0x28
 c00078a:	6ccc      	ldr	r4, [r1, #76]	@ 0x4c
 c00078c:	940b      	str	r4, [sp, #44]	@ 0x2c
 c00078e:	6d0c      	ldr	r4, [r1, #80]	@ 0x50
 c000790:	940c      	str	r4, [sp, #48]	@ 0x30
 c000792:	6d4c      	ldr	r4, [r1, #84]	@ 0x54
 c000794:	940d      	str	r4, [sp, #52]	@ 0x34
 c000796:	e9d1 1416 	ldrd	r1, r4, [r1, #88]	@ 0x58
 c00079a:	e9cd 0210 	strd	r0, r2, [sp, #64]	@ 0x40
 c00079e:	9804      	ldr	r0, [sp, #16]
 c0007a0:	9a02      	ldr	r2, [sp, #8]
 c0007a2:	9012      	str	r0, [sp, #72]	@ 0x48
 c0007a4:	9805      	ldr	r0, [sp, #20]
 c0007a6:	e9c2 3308 	strd	r3, r3, [r2, #32]
 c0007aa:	9013      	str	r0, [sp, #76]	@ 0x4c
 c0007ac:	9806      	ldr	r0, [sp, #24]
 c0007ae:	e9c2 330a 	strd	r3, r3, [r2, #40]	@ 0x28
 c0007b2:	9014      	str	r0, [sp, #80]	@ 0x50
 c0007b4:	9807      	ldr	r0, [sp, #28]
 c0007b6:	e9c2 330c 	strd	r3, r3, [r2, #48]	@ 0x30
 c0007ba:	9015      	str	r0, [sp, #84]	@ 0x54
 c0007bc:	9808      	ldr	r0, [sp, #32]
 c0007be:	e9c2 330e 	strd	r3, r3, [r2, #56]	@ 0x38
 c0007c2:	9016      	str	r0, [sp, #88]	@ 0x58
 c0007c4:	9809      	ldr	r0, [sp, #36]	@ 0x24
 c0007c6:	941d      	str	r4, [sp, #116]	@ 0x74
 c0007c8:	9017      	str	r0, [sp, #92]	@ 0x5c
 c0007ca:	980a      	ldr	r0, [sp, #40]	@ 0x28
 c0007cc:	9018      	str	r0, [sp, #96]	@ 0x60
 c0007ce:	980b      	ldr	r0, [sp, #44]	@ 0x2c
 c0007d0:	9019      	str	r0, [sp, #100]	@ 0x64
 c0007d2:	980c      	ldr	r0, [sp, #48]	@ 0x30
 c0007d4:	901a      	str	r0, [sp, #104]	@ 0x68
 c0007d6:	980d      	ldr	r0, [sp, #52]	@ 0x34
 c0007d8:	e9cd 011b 	strd	r0, r1, [sp, #108]	@ 0x6c
 c0007dc:	e9c2 3310 	strd	r3, r3, [r2, #64]	@ 0x40
 c0007e0:	e9c2 3312 	strd	r3, r3, [r2, #72]	@ 0x48
 c0007e4:	e9c2 3314 	strd	r3, r3, [r2, #80]	@ 0x50
 c0007e8:	e9c2 3316 	strd	r3, r3, [r2, #88]	@ 0x58
 c0007ec:	ea4f 43f1 	mov.w	r3, r1, ror #19
 c0007f0:	ea83 4371 	eor.w	r3, r3, r1, ror #17
 c0007f4:	686a      	ldr	r2, [r5, #4]
 c0007f6:	ea83 2391 	eor.w	r3, r3, r1, lsr #10
 c0007fa:	6a69      	ldr	r1, [r5, #36]	@ 0x24
 c0007fc:	3702      	adds	r7, #2
 c0007fe:	440b      	add	r3, r1
 c000800:	ea4f 41b2 	mov.w	r1, r2, ror #18
 c000804:	ea81 11f2 	eor.w	r1, r1, r2, ror #7
 c000808:	ea81 01d2 	eor.w	r1, r1, r2, lsr #3
 c00080c:	440b      	add	r3, r1
 c00080e:	1999      	adds	r1, r3, r6
 c000810:	6aab      	ldr	r3, [r5, #40]	@ 0x28
 c000812:	68ae      	ldr	r6, [r5, #8]
 c000814:	441a      	add	r2, r3
 c000816:	ea4f 43f4 	mov.w	r3, r4, ror #19
 c00081a:	ea83 4374 	eor.w	r3, r3, r4, ror #17
 c00081e:	ea83 2394 	eor.w	r3, r3, r4, lsr #10
 c000822:	ea4f 44b6 	mov.w	r4, r6, ror #18
 c000826:	ea84 14f6 	eor.w	r4, r4, r6, ror #7
 c00082a:	4413      	add	r3, r2
 c00082c:	ea84 04d6 	eor.w	r4, r4, r6, lsr #3
 c000830:	441c      	add	r4, r3
 c000832:	2f3e      	cmp	r7, #62	@ 0x3e
 c000834:	6429      	str	r1, [r5, #64]	@ 0x40
 c000836:	646c      	str	r4, [r5, #68]	@ 0x44
 c000838:	f105 0508 	add.w	r5, r5, #8
 c00083c:	d1d6      	bne.n	c0007ec <sha256_update+0x1e4>
 c00083e:	e9dd 753d 	ldrd	r7, r5, [sp, #244]	@ 0xf4
 c000842:	9945      	ldr	r1, [sp, #276]	@ 0x114
 c000844:	ea4f 40b7 	mov.w	r0, r7, ror #18
 c000848:	9b3c      	ldr	r3, [sp, #240]	@ 0xf0
 c00084a:	ea80 10f7 	eor.w	r0, r0, r7, ror #7
 c00084e:	ea80 00d7 	eor.w	r0, r0, r7, lsr #3
 c000852:	440b      	add	r3, r1
 c000854:	1819      	adds	r1, r3, r0
 c000856:	9e46      	ldr	r6, [sp, #280]	@ 0x118
 c000858:	ea4f 43b5 	mov.w	r3, r5, ror #18
 c00085c:	ea83 13f5 	eor.w	r3, r3, r5, ror #7
 c000860:	443e      	add	r6, r7
 c000862:	ea83 03d5 	eor.w	r3, r3, r5, lsr #3
 c000866:	e9dd 424a 	ldrd	r4, r2, [sp, #296]	@ 0x128
 c00086a:	18f0      	adds	r0, r6, r3
 c00086c:	ea4f 43f4 	mov.w	r3, r4, ror #19
 c000870:	ea83 4374 	eor.w	r3, r3, r4, ror #17
 c000874:	ea83 2394 	eor.w	r3, r3, r4, lsr #10
 c000878:	4419      	add	r1, r3
 c00087a:	ea4f 43f2 	mov.w	r3, r2, ror #19
 c00087e:	ea83 4372 	eor.w	r3, r3, r2, ror #17
 c000882:	ea83 2392 	eor.w	r3, r3, r2, lsr #10
 c000886:	4403      	add	r3, r0
 c000888:	934d      	str	r3, [sp, #308]	@ 0x134
 c00088a:	9b02      	ldr	r3, [sp, #8]
 c00088c:	914c      	str	r1, [sp, #304]	@ 0x130
 c00088e:	6edc      	ldr	r4, [r3, #108]	@ 0x6c
 c000890:	6f5e      	ldr	r6, [r3, #116]	@ 0x74
 c000892:	e9d3 1218 	ldrd	r1, r2, [r3, #96]	@ 0x60
 c000896:	6e9d      	ldr	r5, [r3, #104]	@ 0x68
 c000898:	6f18      	ldr	r0, [r3, #112]	@ 0x70
 c00089a:	6f9f      	ldr	r7, [r3, #120]	@ 0x78
 c00089c:	6fdb      	ldr	r3, [r3, #124]	@ 0x7c
 c00089e:	46b6      	mov	lr, r6
 c0008a0:	4699      	mov	r9, r3
 c0008a2:	9309      	str	r3, [sp, #36]	@ 0x24
 c0008a4:	ab0d      	add	r3, sp, #52	@ 0x34
 c0008a6:	46a0      	mov	r8, r4
 c0008a8:	9405      	str	r4, [sp, #20]
 c0008aa:	9607      	str	r6, [sp, #28]
 c0008ac:	460c      	mov	r4, r1
 c0008ae:	4616      	mov	r6, r2
 c0008b0:	e9cd 120a 	strd	r1, r2, [sp, #40]	@ 0x28
 c0008b4:	9504      	str	r5, [sp, #16]
 c0008b6:	9006      	str	r0, [sp, #24]
 c0008b8:	9708      	str	r7, [sp, #32]
 c0008ba:	f50d 7c9a 	add.w	ip, sp, #308	@ 0x134
 c0008be:	9300      	str	r3, [sp, #0]
 c0008c0:	f8cd b030 	str.w	fp, [sp, #48]	@ 0x30
 c0008c4:	e005      	b.n	c0008d2 <sha256_update+0x2ca>
 c0008c6:	4677      	mov	r7, lr
 c0008c8:	4635      	mov	r5, r6
 c0008ca:	4686      	mov	lr, r0
 c0008cc:	4626      	mov	r6, r4
 c0008ce:	4650      	mov	r0, sl
 c0008d0:	461c      	mov	r4, r3
 c0008d2:	9900      	ldr	r1, [sp, #0]
 c0008d4:	f85c af04 	ldr.w	sl, [ip, #4]!
 c0008d8:	f851 2f04 	ldr.w	r2, [r1, #4]!
 c0008dc:	ea4f 23f0 	mov.w	r3, r0, ror #11
 c0008e0:	ea83 13b0 	eor.w	r3, r3, r0, ror #6
 c0008e4:	4452      	add	r2, sl
 c0008e6:	ea83 6370 	eor.w	r3, r3, r0, ror #25
 c0008ea:	441a      	add	r2, r3
 c0008ec:	ea00 0a0e 	and.w	sl, r0, lr
 c0008f0:	ea27 0300 	bic.w	r3, r7, r0
 c0008f4:	ea83 030a 	eor.w	r3, r3, sl
 c0008f8:	4413      	add	r3, r2
 c0008fa:	9100      	str	r1, [sp, #0]
 c0008fc:	ea85 0206 	eor.w	r2, r5, r6
 c000900:	ea4f 3174 	mov.w	r1, r4, ror #13
 c000904:	ea81 01b4 	eor.w	r1, r1, r4, ror #2
 c000908:	4022      	ands	r2, r4
 c00090a:	ea05 0b06 	and.w	fp, r5, r6
 c00090e:	ea81 51b4 	eor.w	r1, r1, r4, ror #22
 c000912:	ea82 020b 	eor.w	r2, r2, fp
 c000916:	444b      	add	r3, r9
 c000918:	440a      	add	r2, r1
 c00091a:	eb03 0a08 	add.w	sl, r3, r8
 c00091e:	4413      	add	r3, r2
 c000920:	aa8d      	add	r2, sp, #564	@ 0x234
 c000922:	4562      	cmp	r2, ip
 c000924:	46b9      	mov	r9, r7
 c000926:	46a8      	mov	r8, r5
 c000928:	d1cd      	bne.n	c0008c6 <sha256_update+0x2be>
 c00092a:	e9dd 120a 	ldrd	r1, r2, [sp, #40]	@ 0x28
 c00092e:	4419      	add	r1, r3
 c000930:	9b04      	ldr	r3, [sp, #16]
 c000932:	4414      	add	r4, r2
 c000934:	4433      	add	r3, r6
 c000936:	469c      	mov	ip, r3
 c000938:	9b07      	ldr	r3, [sp, #28]
 c00093a:	9a05      	ldr	r2, [sp, #20]
 c00093c:	4403      	add	r3, r0
 c00093e:	4618      	mov	r0, r3
 c000940:	9b09      	ldr	r3, [sp, #36]	@ 0x24
 c000942:	442a      	add	r2, r5
 c000944:	443b      	add	r3, r7
 c000946:	461f      	mov	r7, r3
 c000948:	9b02      	ldr	r3, [sp, #8]
 c00094a:	9d06      	ldr	r5, [sp, #24]
 c00094c:	9e08      	ldr	r6, [sp, #32]
 c00094e:	e9c3 c21a 	strd	ip, r2, [r3, #104]	@ 0x68
 c000952:	9a01      	ldr	r2, [sp, #4]
 c000954:	4455      	add	r5, sl
 c000956:	4476      	add	r6, lr
 c000958:	e9c3 1418 	strd	r1, r4, [r3, #96]	@ 0x60
 c00095c:	e9c3 501c 	strd	r5, r0, [r3, #112]	@ 0x70
 c000960:	e9c3 671e 	strd	r6, r7, [r3, #120]	@ 0x78
 c000964:	f8dd b030 	ldr.w	fp, [sp, #48]	@ 0x30
 c000968:	2a00      	cmp	r2, #0
 c00096a:	f43f aee9 	beq.w	c000740 <sha256_update+0x138>
 c00096e:	9b03      	ldr	r3, [sp, #12]
 c000970:	4615      	mov	r5, r2
 c000972:	1a98      	subs	r0, r3, r2
 c000974:	f000 003f 	and.w	r0, r0, #63	@ 0x3f
 c000978:	e6c9      	b.n	c00070e <sha256_update+0x106>
 c00097a:	442a      	add	r2, r5
 c00097c:	721a      	strb	r2, [r3, #8]
 c00097e:	2401      	movs	r4, #1
 c000980:	3608      	adds	r6, #8
 c000982:	3b01      	subs	r3, #1
 c000984:	e65e      	b.n	c000644 <sha256_update+0x3c>
 c000986:	442a      	add	r2, r5
 c000988:	721a      	strb	r2, [r3, #8]
 c00098a:	2402      	movs	r4, #2
 c00098c:	3608      	adds	r6, #8
 c00098e:	3b01      	subs	r3, #1
 c000990:	e658      	b.n	c000644 <sha256_update+0x3c>
 c000992:	442a      	add	r2, r5
 c000994:	721a      	strb	r2, [r3, #8]
 c000996:	2403      	movs	r4, #3
 c000998:	3608      	adds	r6, #8
 c00099a:	3b01      	subs	r3, #1
 c00099c:	e652      	b.n	c000644 <sha256_update+0x3c>
 c00099e:	442a      	add	r2, r5
 c0009a0:	721a      	strb	r2, [r3, #8]
 c0009a2:	2404      	movs	r4, #4
 c0009a4:	3608      	adds	r6, #8
 c0009a6:	3b01      	subs	r3, #1
 c0009a8:	e64c      	b.n	c000644 <sha256_update+0x3c>
 c0009aa:	442a      	add	r2, r5
 c0009ac:	721a      	strb	r2, [r3, #8]
 c0009ae:	2405      	movs	r4, #5
 c0009b0:	3608      	adds	r6, #8
 c0009b2:	3b01      	subs	r3, #1
 c0009b4:	e646      	b.n	c000644 <sha256_update+0x3c>
 c0009b6:	442a      	add	r2, r5
 c0009b8:	721a      	strb	r2, [r3, #8]
 c0009ba:	2406      	movs	r4, #6
 c0009bc:	3608      	adds	r6, #8
 c0009be:	3b01      	subs	r3, #1
 c0009c0:	e640      	b.n	c000644 <sha256_update+0x3c>
 c0009c2:	2500      	movs	r5, #0
 c0009c4:	e68c      	b.n	c0006e0 <sha256_update+0xd8>
 c0009c6:	bf00      	nop
 c0009c8:	0c0061cc 	.word	0x0c0061cc

0c0009cc <sha256_finalize>:
 c0009cc:	b5f0      	push	{r4, r5, r6, r7, lr}
 c0009ce:	4615      	mov	r5, r2
 c0009d0:	2780      	movs	r7, #128	@ 0x80
 c0009d2:	b093      	sub	sp, #76	@ 0x4c
 c0009d4:	4604      	mov	r4, r0
 c0009d6:	460e      	mov	r6, r1
 c0009d8:	2244      	movs	r2, #68	@ 0x44
 c0009da:	2100      	movs	r1, #0
 c0009dc:	a801      	add	r0, sp, #4
 c0009de:	9700      	str	r7, [sp, #0]
 c0009e0:	f005 fbae 	bl	c006140 <memset>
 c0009e4:	bb7d      	cbnz	r5, c000a46 <sha256_finalize+0x7a>
 c0009e6:	f894 3086 	ldrb.w	r3, [r4, #134]	@ 0x86
 c0009ea:	f894 2087 	ldrb.w	r2, [r4, #135]	@ 0x87
 c0009ee:	f003 0301 	and.w	r3, r3, #1
 c0009f2:	f1c3 0302 	rsb	r3, r3, #2
 c0009f6:	08d2      	lsrs	r2, r2, #3
 c0009f8:	ebc2 1243 	rsb	r2, r2, r3, lsl #5
 c0009fc:	2a08      	cmp	r2, #8
 c0009fe:	f8d4 1080 	ldr.w	r1, [r4, #128]	@ 0x80
 c000a02:	bfd8      	it	le
 c000a04:	3240      	addle	r2, #64	@ 0x40
 c000a06:	f1a2 0308 	sub.w	r3, r2, #8
 c000a0a:	f84d 1003 	str.w	r1, [sp, r3]
 c000a0e:	eb0d 0503 	add.w	r5, sp, r3
 c000a12:	f8d4 3084 	ldr.w	r3, [r4, #132]	@ 0x84
 c000a16:	4620      	mov	r0, r4
 c000a18:	4669      	mov	r1, sp
 c000a1a:	606b      	str	r3, [r5, #4]
 c000a1c:	f7ff fdf4 	bl	c000608 <sha256_update>
 c000a20:	2200      	movs	r2, #0
 c000a22:	1e60      	subs	r0, r4, #1
 c000a24:	43d3      	mvns	r3, r2
 c000a26:	1091      	asrs	r1, r2, #2
 c000a28:	3118      	adds	r1, #24
 c000a2a:	f854 1021 	ldr.w	r1, [r4, r1, lsl #2]
 c000a2e:	f003 0303 	and.w	r3, r3, #3
 c000a32:	3201      	adds	r2, #1
 c000a34:	00db      	lsls	r3, r3, #3
 c000a36:	fa21 f303 	lsr.w	r3, r1, r3
 c000a3a:	2a20      	cmp	r2, #32
 c000a3c:	f800 3f01 	strb.w	r3, [r0, #1]!
 c000a40:	d1f0      	bne.n	c000a24 <sha256_finalize+0x58>
 c000a42:	b013      	add	sp, #76	@ 0x4c
 c000a44:	bdf0      	pop	{r4, r5, r6, r7, pc}
 c000a46:	462a      	mov	r2, r5
 c000a48:	4631      	mov	r1, r6
 c000a4a:	4620      	mov	r0, r4
 c000a4c:	f7ff fddc 	bl	c000608 <sha256_update>
 c000a50:	e7c9      	b.n	c0009e6 <sha256_finalize+0x1a>
 c000a52:	bf00      	nop

0c000a54 <ts_bytes_to_ull>:
 c000a54:	b1a9      	cbz	r1, c000a82 <ts_bytes_to_ull+0x2e>
 c000a56:	4602      	mov	r2, r0
 c000a58:	2000      	movs	r0, #0
 c000a5a:	3a01      	subs	r2, #1
 c000a5c:	b500      	push	{lr}
 c000a5e:	eb02 0e01 	add.w	lr, r2, r1
 c000a62:	4601      	mov	r1, r0
 c000a64:	f812 3f01 	ldrb.w	r3, [r2, #1]!
 c000a68:	0209      	lsls	r1, r1, #8
 c000a6a:	ea4f 2c00 	mov.w	ip, r0, lsl #8
 c000a6e:	ea41 6110 	orr.w	r1, r1, r0, lsr #24
 c000a72:	eb13 000c 	adds.w	r0, r3, ip
 c000a76:	f141 0100 	adc.w	r1, r1, #0
 c000a7a:	4596      	cmp	lr, r2
 c000a7c:	d1f2      	bne.n	c000a64 <ts_bytes_to_ull+0x10>
 c000a7e:	f85d fb04 	ldr.w	pc, [sp], #4
 c000a82:	4608      	mov	r0, r1
 c000a84:	4770      	bx	lr
 c000a86:	bf00      	nop

0c000a88 <ts_ull_to_bytes>:
 c000a88:	9900      	ldr	r1, [sp, #0]
 c000a8a:	b151      	cbz	r1, c000aa2 <ts_ull_to_bytes+0x1a>
 c000a8c:	4401      	add	r1, r0
 c000a8e:	f801 2d01 	strb.w	r2, [r1, #-1]!
 c000a92:	4288      	cmp	r0, r1
 c000a94:	ea4f 2212 	mov.w	r2, r2, lsr #8
 c000a98:	ea42 6203 	orr.w	r2, r2, r3, lsl #24
 c000a9c:	ea4f 2313 	mov.w	r3, r3, lsr #8
 c000aa0:	d1f5      	bne.n	c000a8e <ts_ull_to_bytes+0x6>
 c000aa2:	4770      	bx	lr
 c000aa4:	0000      	movs	r0, r0
	...

0c000aa8 <ts_SHA256_init>:
 c000aa8:	ed9f 7b0b 	vldr	d7, [pc, #44]	@ c000ad8 <ts_SHA256_init+0x30>
 c000aac:	ed80 7b08 	vstr	d7, [r0, #32]
 c000ab0:	ed9f 7b0b 	vldr	d7, [pc, #44]	@ c000ae0 <ts_SHA256_init+0x38>
 c000ab4:	ed80 7b02 	vstr	d7, [r0, #8]
 c000ab8:	ed9f 7b0b 	vldr	d7, [pc, #44]	@ c000ae8 <ts_SHA256_init+0x40>
 c000abc:	2300      	movs	r3, #0
 c000abe:	ed9f 6b0c 	vldr	d6, [pc, #48]	@ c000af0 <ts_SHA256_init+0x48>
 c000ac2:	ed80 7b04 	vstr	d7, [r0, #16]
 c000ac6:	ed9f 7b0c 	vldr	d7, [pc, #48]	@ c000af8 <ts_SHA256_init+0x50>
 c000aca:	ed80 6b00 	vstr	d6, [r0]
 c000ace:	ed80 7b06 	vstr	d7, [r0, #24]
 c000ad2:	6283      	str	r3, [r0, #40]	@ 0x28
 c000ad4:	4770      	bx	lr
 c000ad6:	bf00      	nop
	...
 c000ae0:	3c6ef372 	.word	0x3c6ef372
 c000ae4:	a54ff53a 	.word	0xa54ff53a
 c000ae8:	510e527f 	.word	0x510e527f
 c000aec:	9b05688c 	.word	0x9b05688c
 c000af0:	6a09e667 	.word	0x6a09e667
 c000af4:	bb67ae85 	.word	0xbb67ae85
 c000af8:	1f83d9ab 	.word	0x1f83d9ab
 c000afc:	5be0cd19 	.word	0x5be0cd19

0c000b00 <ts_SHA256_update>:
 c000b00:	e92d 4ff0 	stmdb	sp!, {r4, r5, r6, r7, r8, r9, sl, fp, lr}
 c000b04:	4614      	mov	r4, r2
 c000b06:	4682      	mov	sl, r0
 c000b08:	461d      	mov	r5, r3
 c000b0a:	b08b      	sub	sp, #44	@ 0x2c
 c000b0c:	e9cd 3106 	strd	r3, r1, [sp, #24]
 c000b10:	00db      	lsls	r3, r3, #3
 c000b12:	ea43 7352 	orr.w	r3, r3, r2, lsr #29
 c000b16:	9205      	str	r2, [sp, #20]
 c000b18:	e9d0 2108 	ldrd	r2, r1, [r0, #32]
 c000b1c:	00e0      	lsls	r0, r4, #3
 c000b1e:	1812      	adds	r2, r2, r0
 c000b20:	eb43 0301 	adc.w	r3, r3, r1
 c000b24:	e9ca 2308 	strd	r2, r3, [sl, #32]
 c000b28:	ea54 0305 	orrs.w	r3, r4, r5
 c000b2c:	f000 80de 	beq.w	c000cec <ts_SHA256_update+0x1ec>
 c000b30:	f8da 3028 	ldr.w	r3, [sl, #40]	@ 0x28
 c000b34:	9905      	ldr	r1, [sp, #20]
 c000b36:	f1c3 0540 	rsb	r5, r3, #64	@ 0x40
 c000b3a:	9a06      	ldr	r2, [sp, #24]
 c000b3c:	42a9      	cmp	r1, r5
 c000b3e:	f172 0200 	sbcs.w	r2, r2, #0
 c000b42:	bf38      	it	cc
 c000b44:	460d      	movcc	r5, r1
 c000b46:	2d40      	cmp	r5, #64	@ 0x40
 c000b48:	f000 80d3 	beq.w	c000cf2 <ts_SHA256_update+0x1f2>
 c000b4c:	332c      	adds	r3, #44	@ 0x2c
 c000b4e:	eb0a 0003 	add.w	r0, sl, r3
 c000b52:	462a      	mov	r2, r5
 c000b54:	9907      	ldr	r1, [sp, #28]
 c000b56:	f005 fb1f 	bl	c006198 <memcpy>
 c000b5a:	f8da 3028 	ldr.w	r3, [sl, #40]	@ 0x28
 c000b5e:	442b      	add	r3, r5
 c000b60:	2b3f      	cmp	r3, #63	@ 0x3f
 c000b62:	f240 80c9 	bls.w	c000cf8 <ts_SHA256_update+0x1f8>
 c000b66:	f10a 0b2c 	add.w	fp, sl, #44	@ 0x2c
 c000b6a:	9b05      	ldr	r3, [sp, #20]
 c000b6c:	e9da 4800 	ldrd	r4, r8, [sl]
 c000b70:	1b59      	subs	r1, r3, r5
 c000b72:	9b06      	ldr	r3, [sp, #24]
 c000b74:	9108      	str	r1, [sp, #32]
 c000b76:	f163 0c00 	sbc.w	ip, r3, #0
 c000b7a:	e9da 9302 	ldrd	r9, r3, [sl, #8]
 c000b7e:	9302      	str	r3, [sp, #8]
 c000b80:	9b07      	ldr	r3, [sp, #28]
 c000b82:	e9cd 9403 	strd	r9, r4, [sp, #12]
 c000b86:	442b      	add	r3, r5
 c000b88:	9307      	str	r3, [sp, #28]
 c000b8a:	2300      	movs	r3, #0
 c000b8c:	f8ca 3028 	str.w	r3, [sl, #40]	@ 0x28
 c000b90:	e9da 6304 	ldrd	r6, r3, [sl, #16]
 c000b94:	9300      	str	r3, [sp, #0]
 c000b96:	e9da 7306 	ldrd	r7, r3, [sl, #24]
 c000b9a:	9301      	str	r3, [sp, #4]
 c000b9c:	f10b 0340 	add.w	r3, fp, #64	@ 0x40
 c000ba0:	465c      	mov	r4, fp
 c000ba2:	4699      	mov	r9, r3
 c000ba4:	46e3      	mov	fp, ip
 c000ba6:	e9cd 1c05 	strd	r1, ip, [sp, #20]
 c000baa:	f10a 0528 	add.w	r5, sl, #40	@ 0x28
 c000bae:	4620      	mov	r0, r4
 c000bb0:	2104      	movs	r1, #4
 c000bb2:	f7ff ff4f 	bl	c000a54 <ts_bytes_to_ull>
 c000bb6:	3404      	adds	r4, #4
 c000bb8:	454c      	cmp	r4, r9
 c000bba:	f845 0f04 	str.w	r0, [r5, #4]!
 c000bbe:	d1f6      	bne.n	c000bae <ts_SHA256_update+0xae>
 c000bc0:	4b50      	ldr	r3, [pc, #320]	@ (c000d04 <ts_SHA256_update+0x204>)
 c000bc2:	e9dd 9403 	ldrd	r9, r4, [sp, #12]
 c000bc6:	2000      	movs	r0, #0
 c000bc8:	9303      	str	r3, [sp, #12]
 c000bca:	f8cd b024 	str.w	fp, [sp, #36]	@ 0x24
 c000bce:	e005      	b.n	c000bdc <ts_SHA256_update+0xdc>
 c000bd0:	46c1      	mov	r9, r8
 c000bd2:	9f00      	ldr	r7, [sp, #0]
 c000bd4:	46a0      	mov	r8, r4
 c000bd6:	9600      	str	r6, [sp, #0]
 c000bd8:	4614      	mov	r4, r2
 c000bda:	462e      	mov	r6, r5
 c000bdc:	9b00      	ldr	r3, [sp, #0]
 c000bde:	ea44 0108 	orr.w	r1, r4, r8
 c000be2:	ea83 0507 	eor.w	r5, r3, r7
 c000be6:	ea4f 23f6 	mov.w	r3, r6, ror #11
 c000bea:	ea83 13b6 	eor.w	r3, r3, r6, ror #6
 c000bee:	4035      	ands	r5, r6
 c000bf0:	407d      	eors	r5, r7
 c000bf2:	ea83 6376 	eor.w	r3, r3, r6, ror #25
 c000bf6:	ea4f 3274 	mov.w	r2, r4, ror #13
 c000bfa:	442b      	add	r3, r5
 c000bfc:	ea82 02b4 	eor.w	r2, r2, r4, ror #2
 c000c00:	ea01 0109 	and.w	r1, r1, r9
 c000c04:	f000 050f 	and.w	r5, r0, #15
 c000c08:	f1a0 0c02 	sub.w	ip, r0, #2
 c000c0c:	ea04 0e08 	and.w	lr, r4, r8
 c000c10:	ea41 010e 	orr.w	r1, r1, lr
 c000c14:	ea82 52b4 	eor.w	r2, r2, r4, ror #22
 c000c18:	eb0a 0585 	add.w	r5, sl, r5, lsl #2
 c000c1c:	f00c 0c0f 	and.w	ip, ip, #15
 c000c20:	280f      	cmp	r0, #15
 c000c22:	440a      	add	r2, r1
 c000c24:	9304      	str	r3, [sp, #16]
 c000c26:	6ae9      	ldr	r1, [r5, #44]	@ 0x2c
 c000c28:	eb0a 0c8c 	add.w	ip, sl, ip, lsl #2
 c000c2c:	d921      	bls.n	c000c72 <ts_SHA256_update+0x172>
 c000c2e:	f1a0 0b07 	sub.w	fp, r0, #7
 c000c32:	f00b 0b0f 	and.w	fp, fp, #15
 c000c36:	f8dc e02c 	ldr.w	lr, [ip, #44]	@ 0x2c
 c000c3a:	eb0a 0b8b 	add.w	fp, sl, fp, lsl #2
 c000c3e:	f1a0 0c0f 	sub.w	ip, r0, #15
 c000c42:	f8db b02c 	ldr.w	fp, [fp, #44]	@ 0x2c
 c000c46:	f00c 0c0f 	and.w	ip, ip, #15
 c000c4a:	eb0a 0c8c 	add.w	ip, sl, ip, lsl #2
 c000c4e:	f8dc c02c 	ldr.w	ip, [ip, #44]	@ 0x2c
 c000c52:	448b      	add	fp, r1
 c000c54:	ea4f 41fe 	mov.w	r1, lr, ror #19
 c000c58:	ea81 417e 	eor.w	r1, r1, lr, ror #17
 c000c5c:	ea81 219e 	eor.w	r1, r1, lr, lsr #10
 c000c60:	ea4f 4ebc 	mov.w	lr, ip, ror #18
 c000c64:	ea8e 1efc 	eor.w	lr, lr, ip, ror #7
 c000c68:	4459      	add	r1, fp
 c000c6a:	ea8e 0edc 	eor.w	lr, lr, ip, lsr #3
 c000c6e:	4471      	add	r1, lr
 c000c70:	62e9      	str	r1, [r5, #44]	@ 0x2c
 c000c72:	9b03      	ldr	r3, [sp, #12]
 c000c74:	3001      	adds	r0, #1
 c000c76:	f853 5f04 	ldr.w	r5, [r3, #4]!
 c000c7a:	2840      	cmp	r0, #64	@ 0x40
 c000c7c:	9303      	str	r3, [sp, #12]
 c000c7e:	9b04      	ldr	r3, [sp, #16]
 c000c80:	442b      	add	r3, r5
 c000c82:	440b      	add	r3, r1
 c000c84:	9901      	ldr	r1, [sp, #4]
 c000c86:	9d02      	ldr	r5, [sp, #8]
 c000c88:	440b      	add	r3, r1
 c000c8a:	e9cd 7901 	strd	r7, r9, [sp, #4]
 c000c8e:	441d      	add	r5, r3
 c000c90:	441a      	add	r2, r3
 c000c92:	d19d      	bne.n	c000bd0 <ts_SHA256_update+0xd0>
 c000c94:	4613      	mov	r3, r2
 c000c96:	e9dd 1c08 	ldrd	r1, ip, [sp, #32]
 c000c9a:	f8da 2000 	ldr.w	r2, [sl]
 c000c9e:	9800      	ldr	r0, [sp, #0]
 c000ca0:	441a      	add	r2, r3
 c000ca2:	f8da 3004 	ldr.w	r3, [sl, #4]
 c000ca6:	f8ca 2000 	str.w	r2, [sl]
 c000caa:	4423      	add	r3, r4
 c000cac:	f8ca 3004 	str.w	r3, [sl, #4]
 c000cb0:	f8da 3008 	ldr.w	r3, [sl, #8]
 c000cb4:	f8da 2010 	ldr.w	r2, [sl, #16]
 c000cb8:	4443      	add	r3, r8
 c000cba:	f8ca 3008 	str.w	r3, [sl, #8]
 c000cbe:	f8da 300c 	ldr.w	r3, [sl, #12]
 c000cc2:	4415      	add	r5, r2
 c000cc4:	444b      	add	r3, r9
 c000cc6:	f8ca 300c 	str.w	r3, [sl, #12]
 c000cca:	e9da 2305 	ldrd	r2, r3, [sl, #20]
 c000cce:	4403      	add	r3, r0
 c000cd0:	f8da 001c 	ldr.w	r0, [sl, #28]
 c000cd4:	4432      	add	r2, r6
 c000cd6:	e9ca 2305 	strd	r2, r3, [sl, #20]
 c000cda:	4438      	add	r0, r7
 c000cdc:	ea51 030c 	orrs.w	r3, r1, ip
 c000ce0:	f8ca 5010 	str.w	r5, [sl, #16]
 c000ce4:	f8ca 001c 	str.w	r0, [sl, #28]
 c000ce8:	f47f af22 	bne.w	c000b30 <ts_SHA256_update+0x30>
 c000cec:	b00b      	add	sp, #44	@ 0x2c
 c000cee:	e8bd 8ff0 	ldmia.w	sp!, {r4, r5, r6, r7, r8, r9, sl, fp, pc}
 c000cf2:	f8dd b01c 	ldr.w	fp, [sp, #28]
 c000cf6:	e738      	b.n	c000b6a <ts_SHA256_update+0x6a>
 c000cf8:	f8ca 3028 	str.w	r3, [sl, #40]	@ 0x28
 c000cfc:	b00b      	add	sp, #44	@ 0x2c
 c000cfe:	e8bd 8ff0 	ldmia.w	sp!, {r4, r5, r6, r7, r8, r9, sl, fp, pc}
 c000d02:	bf00      	nop
 c000d04:	0c0062dc 	.word	0x0c0062dc

0c000d08 <ts_SHA256_final_trunc>:
 c000d08:	2308      	movs	r3, #8
 c000d0a:	b5f0      	push	{r4, r5, r6, r7, lr}
 c000d0c:	460c      	mov	r4, r1
 c000d0e:	b085      	sub	sp, #20
 c000d10:	9300      	str	r3, [sp, #0]
 c000d12:	4605      	mov	r5, r0
 c000d14:	4616      	mov	r6, r2
 c000d16:	eb0d 0003 	add.w	r0, sp, r3
 c000d1a:	e9d1 2308 	ldrd	r2, r3, [r1, #32]
 c000d1e:	f7ff feb3 	bl	c000a88 <ts_ull_to_bytes>
 c000d22:	2201      	movs	r2, #1
 c000d24:	2300      	movs	r3, #0
 c000d26:	4620      	mov	r0, r4
 c000d28:	4917      	ldr	r1, [pc, #92]	@ (c000d88 <ts_SHA256_final_trunc+0x80>)
 c000d2a:	f7ff fee9 	bl	c000b00 <ts_SHA256_update>
 c000d2e:	6aa2      	ldr	r2, [r4, #40]	@ 0x28
 c000d30:	2a38      	cmp	r2, #56	@ 0x38
 c000d32:	d821      	bhi.n	c000d78 <ts_SHA256_final_trunc+0x70>
 c000d34:	f104 002c 	add.w	r0, r4, #44	@ 0x2c
 c000d38:	2100      	movs	r1, #0
 c000d3a:	4410      	add	r0, r2
 c000d3c:	f1c2 0238 	rsb	r2, r2, #56	@ 0x38
 c000d40:	f005 f9fe 	bl	c006140 <memset>
 c000d44:	2338      	movs	r3, #56	@ 0x38
 c000d46:	4620      	mov	r0, r4
 c000d48:	62a3      	str	r3, [r4, #40]	@ 0x28
 c000d4a:	2208      	movs	r2, #8
 c000d4c:	2300      	movs	r3, #0
 c000d4e:	a902      	add	r1, sp, #8
 c000d50:	f7ff fed6 	bl	c000b00 <ts_SHA256_update>
 c000d54:	08b6      	lsrs	r6, r6, #2
 c000d56:	d00d      	beq.n	c000d74 <ts_SHA256_final_trunc+0x6c>
 c000d58:	2704      	movs	r7, #4
 c000d5a:	eb04 0686 	add.w	r6, r4, r6, lsl #2
 c000d5e:	f854 2b04 	ldr.w	r2, [r4], #4
 c000d62:	4628      	mov	r0, r5
 c000d64:	2300      	movs	r3, #0
 c000d66:	9700      	str	r7, [sp, #0]
 c000d68:	f7ff fe8e 	bl	c000a88 <ts_ull_to_bytes>
 c000d6c:	42b4      	cmp	r4, r6
 c000d6e:	f105 0504 	add.w	r5, r5, #4
 c000d72:	d1f4      	bne.n	c000d5e <ts_SHA256_final_trunc+0x56>
 c000d74:	b005      	add	sp, #20
 c000d76:	bdf0      	pop	{r4, r5, r6, r7, pc}
 c000d78:	2208      	movs	r2, #8
 c000d7a:	2300      	movs	r3, #0
 c000d7c:	4620      	mov	r0, r4
 c000d7e:	4903      	ldr	r1, [pc, #12]	@ (c000d8c <ts_SHA256_final_trunc+0x84>)
 c000d80:	f7ff febe 	bl	c000b00 <ts_SHA256_update>
 c000d84:	6aa2      	ldr	r2, [r4, #40]	@ 0x28
 c000d86:	e7d5      	b.n	c000d34 <ts_SHA256_final_trunc+0x2c>
 c000d88:	0c0062dc 	.word	0x0c0062dc
 c000d8c:	0c0062cc 	.word	0x0c0062cc

0c000d90 <ts_SHA256_final>:
 c000d90:	2220      	movs	r2, #32
 c000d92:	f7ff bfb9 	b.w	c000d08 <ts_SHA256_final_trunc>
 c000d96:	bf00      	nop

0c000d98 <ts_SHA256_save_state>:
 c000d98:	1d0b      	adds	r3, r1, #4
 c000d9a:	4298      	cmp	r0, r3
 c000d9c:	d010      	beq.n	c000dc0 <ts_SHA256_save_state+0x28>
 c000d9e:	e9d1 2300 	ldrd	r2, r3, [r1]
 c000da2:	e9c0 2300 	strd	r2, r3, [r0]
 c000da6:	e9d1 2302 	ldrd	r2, r3, [r1, #8]
 c000daa:	e9c0 2302 	strd	r2, r3, [r0, #8]
 c000dae:	e9d1 2304 	ldrd	r2, r3, [r1, #16]
 c000db2:	e9c0 2304 	strd	r2, r3, [r0, #16]
 c000db6:	e9d1 2306 	ldrd	r2, r3, [r1, #24]
 c000dba:	e9c0 2306 	strd	r2, r3, [r0, #24]
 c000dbe:	4770      	bx	lr
 c000dc0:	680b      	ldr	r3, [r1, #0]
 c000dc2:	6003      	str	r3, [r0, #0]
 c000dc4:	684b      	ldr	r3, [r1, #4]
 c000dc6:	6043      	str	r3, [r0, #4]
 c000dc8:	688b      	ldr	r3, [r1, #8]
 c000dca:	6083      	str	r3, [r0, #8]
 c000dcc:	68cb      	ldr	r3, [r1, #12]
 c000dce:	60c3      	str	r3, [r0, #12]
 c000dd0:	690b      	ldr	r3, [r1, #16]
 c000dd2:	6103      	str	r3, [r0, #16]
 c000dd4:	694b      	ldr	r3, [r1, #20]
 c000dd6:	6143      	str	r3, [r0, #20]
 c000dd8:	698b      	ldr	r3, [r1, #24]
 c000dda:	6183      	str	r3, [r0, #24]
 c000ddc:	69cb      	ldr	r3, [r1, #28]
 c000dde:	61c3      	str	r3, [r0, #28]
 c000de0:	4770      	bx	lr
 c000de2:	bf00      	nop
 c000de4:	0000      	movs	r0, r0
	...

0c000de8 <ts_SHA256_restore_state_after_64>:
 c000de8:	1d0b      	adds	r3, r1, #4
 c000dea:	4298      	cmp	r0, r3
 c000dec:	d016      	beq.n	c000e1c <ts_SHA256_restore_state_after_64+0x34>
 c000dee:	e9d1 2300 	ldrd	r2, r3, [r1]
 c000df2:	e9c0 2300 	strd	r2, r3, [r0]
 c000df6:	e9d1 2302 	ldrd	r2, r3, [r1, #8]
 c000dfa:	e9c0 2302 	strd	r2, r3, [r0, #8]
 c000dfe:	e9d1 2304 	ldrd	r2, r3, [r1, #16]
 c000e02:	e9c0 2304 	strd	r2, r3, [r0, #16]
 c000e06:	e9d1 2306 	ldrd	r2, r3, [r1, #24]
 c000e0a:	e9c0 2306 	strd	r2, r3, [r0, #24]
 c000e0e:	ed9f 7b0c 	vldr	d7, [pc, #48]	@ c000e40 <ts_SHA256_restore_state_after_64+0x58>
 c000e12:	2300      	movs	r3, #0
 c000e14:	ed80 7b08 	vstr	d7, [r0, #32]
 c000e18:	6283      	str	r3, [r0, #40]	@ 0x28
 c000e1a:	4770      	bx	lr
 c000e1c:	680b      	ldr	r3, [r1, #0]
 c000e1e:	e9c0 3300 	strd	r3, r3, [r0]
 c000e22:	688b      	ldr	r3, [r1, #8]
 c000e24:	6083      	str	r3, [r0, #8]
 c000e26:	68cb      	ldr	r3, [r1, #12]
 c000e28:	60c3      	str	r3, [r0, #12]
 c000e2a:	690b      	ldr	r3, [r1, #16]
 c000e2c:	6103      	str	r3, [r0, #16]
 c000e2e:	694b      	ldr	r3, [r1, #20]
 c000e30:	6143      	str	r3, [r0, #20]
 c000e32:	698b      	ldr	r3, [r1, #24]
 c000e34:	6183      	str	r3, [r0, #24]
 c000e36:	69cb      	ldr	r3, [r1, #28]
 c000e38:	61c3      	str	r3, [r0, #28]
 c000e3a:	e7e8      	b.n	c000e0e <ts_SHA256_restore_state_after_64+0x26>
 c000e3c:	f3af 8000 	nop.w
 c000e40:	00000200 	.word	0x00000200
 c000e44:	00000000 	.word	0x00000000

0c000e48 <ts_sha2_L1_prf_msg>:
 c000e48:	e92d 4ff0 	stmdb	sp!, {r4, r5, r6, r7, r8, r9, sl, fp, lr}
 c000e4c:	4606      	mov	r6, r0
 c000e4e:	b09f      	sub	sp, #124	@ 0x7c
 c000e50:	9828      	ldr	r0, [sp, #160]	@ 0xa0
 c000e52:	f10d 0838 	add.w	r8, sp, #56	@ 0x38
 c000e56:	6804      	ldr	r4, [r0, #0]
 c000e58:	f500 77a8 	add.w	r7, r0, #336	@ 0x150
 c000e5c:	7825      	ldrb	r5, [r4, #0]
 c000e5e:	6844      	ldr	r4, [r0, #4]
 c000e60:	4638      	mov	r0, r7
 c000e62:	e9cd 6100 	strd	r6, r1, [sp]
 c000e66:	e9cd 2302 	strd	r2, r3, [sp, #8]
 c000e6a:	eb08 0905 	add.w	r9, r8, r5
 c000e6e:	f7ff fe1b 	bl	c000aa8 <ts_SHA256_init>
 c000e72:	f1c5 0b40 	rsb	fp, r5, #64	@ 0x40
 c000e76:	2d00      	cmp	r5, #0
 c000e78:	f000 8198 	beq.w	c0011ac <ts_sha2_L1_prf_msg+0x364>
 c000e7c:	1e6b      	subs	r3, r5, #1
 c000e7e:	2b04      	cmp	r3, #4
 c000e80:	9305      	str	r3, [sp, #20]
 c000e82:	d906      	bls.n	c000e92 <ts_sha2_L1_prf_msg+0x4a>
 c000e84:	f1c5 0601 	rsb	r6, r5, #1
 c000e88:	19a3      	adds	r3, r4, r6
 c000e8a:	eba8 0303 	sub.w	r3, r8, r3
 c000e8e:	2b02      	cmp	r3, #2
 c000e90:	d854      	bhi.n	c000f3c <ts_sha2_L1_prf_msg+0xf4>
 c000e92:	43eb      	mvns	r3, r5
 c000e94:	4641      	mov	r1, r8
 c000e96:	9304      	str	r3, [sp, #16]
 c000e98:	1e66      	subs	r6, r4, #1
 c000e9a:	18e2      	adds	r2, r4, r3
 c000e9c:	f812 3f01 	ldrb.w	r3, [r2, #1]!
 c000ea0:	f083 0336 	eor.w	r3, r3, #54	@ 0x36
 c000ea4:	42b2      	cmp	r2, r6
 c000ea6:	f801 3b01 	strb.w	r3, [r1], #1
 c000eaa:	d1f7      	bne.n	c000e9c <ts_sha2_L1_prf_msg+0x54>
 c000eac:	465a      	mov	r2, fp
 c000eae:	2136      	movs	r1, #54	@ 0x36
 c000eb0:	4648      	mov	r0, r9
 c000eb2:	f005 f945 	bl	c006140 <memset>
 c000eb6:	4641      	mov	r1, r8
 c000eb8:	4638      	mov	r0, r7
 c000eba:	2240      	movs	r2, #64	@ 0x40
 c000ebc:	2300      	movs	r3, #0
 c000ebe:	f7ff fe1f 	bl	c000b00 <ts_SHA256_update>
 c000ec2:	462a      	mov	r2, r5
 c000ec4:	2300      	movs	r3, #0
 c000ec6:	4638      	mov	r0, r7
 c000ec8:	9901      	ldr	r1, [sp, #4]
 c000eca:	f7ff fe19 	bl	c000b00 <ts_SHA256_update>
 c000ece:	e9dd 1202 	ldrd	r1, r2, [sp, #8]
 c000ed2:	2300      	movs	r3, #0
 c000ed4:	4638      	mov	r0, r7
 c000ed6:	f10d 0a18 	add.w	sl, sp, #24
 c000eda:	f7ff fe11 	bl	c000b00 <ts_SHA256_update>
 c000ede:	4639      	mov	r1, r7
 c000ee0:	4650      	mov	r0, sl
 c000ee2:	f7ff ff55 	bl	c000d90 <ts_SHA256_final>
 c000ee6:	4638      	mov	r0, r7
 c000ee8:	f7ff fdde 	bl	c000aa8 <ts_SHA256_init>
 c000eec:	9b05      	ldr	r3, [sp, #20]
 c000eee:	2b04      	cmp	r3, #4
 c000ef0:	f200 8159 	bhi.w	c0011a6 <ts_sha2_L1_prf_msg+0x35e>
 c000ef4:	4642      	mov	r2, r8
 c000ef6:	9b04      	ldr	r3, [sp, #16]
 c000ef8:	441c      	add	r4, r3
 c000efa:	f814 3f01 	ldrb.w	r3, [r4, #1]!
 c000efe:	f083 035c 	eor.w	r3, r3, #92	@ 0x5c
 c000f02:	42b4      	cmp	r4, r6
 c000f04:	f802 3b01 	strb.w	r3, [r2], #1
 c000f08:	d1f7      	bne.n	c000efa <ts_sha2_L1_prf_msg+0xb2>
 c000f0a:	465a      	mov	r2, fp
 c000f0c:	4648      	mov	r0, r9
 c000f0e:	215c      	movs	r1, #92	@ 0x5c
 c000f10:	f005 f916 	bl	c006140 <memset>
 c000f14:	4641      	mov	r1, r8
 c000f16:	4638      	mov	r0, r7
 c000f18:	2240      	movs	r2, #64	@ 0x40
 c000f1a:	2300      	movs	r3, #0
 c000f1c:	f7ff fdf0 	bl	c000b00 <ts_SHA256_update>
 c000f20:	4651      	mov	r1, sl
 c000f22:	2300      	movs	r3, #0
 c000f24:	4638      	mov	r0, r7
 c000f26:	2220      	movs	r2, #32
 c000f28:	f7ff fdea 	bl	c000b00 <ts_SHA256_update>
 c000f2c:	462a      	mov	r2, r5
 c000f2e:	4639      	mov	r1, r7
 c000f30:	9800      	ldr	r0, [sp, #0]
 c000f32:	f7ff fee9 	bl	c000d08 <ts_SHA256_final_trunc>
 c000f36:	b01f      	add	sp, #124	@ 0x7c
 c000f38:	e8bd 8ff0 	ldmia.w	sp!, {r4, r5, r6, r7, r8, r9, sl, fp, pc}
 c000f3c:	1b62      	subs	r2, r4, r5
 c000f3e:	6813      	ldr	r3, [r2, #0]
 c000f40:	f083 3336 	eor.w	r3, r3, #909522486	@ 0x36363636
 c000f44:	930e      	str	r3, [sp, #56]	@ 0x38
 c000f46:	08ab      	lsrs	r3, r5, #2
 c000f48:	2b01      	cmp	r3, #1
 c000f4a:	f000 8150 	beq.w	c0011ee <ts_sha2_L1_prf_msg+0x3a6>
 c000f4e:	6851      	ldr	r1, [r2, #4]
 c000f50:	2b02      	cmp	r3, #2
 c000f52:	f081 3136 	eor.w	r1, r1, #909522486	@ 0x36363636
 c000f56:	910f      	str	r1, [sp, #60]	@ 0x3c
 c000f58:	d051      	beq.n	c000ffe <ts_sha2_L1_prf_msg+0x1b6>
 c000f5a:	6891      	ldr	r1, [r2, #8]
 c000f5c:	2b03      	cmp	r3, #3
 c000f5e:	f081 3136 	eor.w	r1, r1, #909522486	@ 0x36363636
 c000f62:	9110      	str	r1, [sp, #64]	@ 0x40
 c000f64:	d04b      	beq.n	c000ffe <ts_sha2_L1_prf_msg+0x1b6>
 c000f66:	68d1      	ldr	r1, [r2, #12]
 c000f68:	2b04      	cmp	r3, #4
 c000f6a:	f081 3136 	eor.w	r1, r1, #909522486	@ 0x36363636
 c000f6e:	9111      	str	r1, [sp, #68]	@ 0x44
 c000f70:	d045      	beq.n	c000ffe <ts_sha2_L1_prf_msg+0x1b6>
 c000f72:	6911      	ldr	r1, [r2, #16]
 c000f74:	2b05      	cmp	r3, #5
 c000f76:	f081 3136 	eor.w	r1, r1, #909522486	@ 0x36363636
 c000f7a:	9112      	str	r1, [sp, #72]	@ 0x48
 c000f7c:	d03f      	beq.n	c000ffe <ts_sha2_L1_prf_msg+0x1b6>
 c000f7e:	6951      	ldr	r1, [r2, #20]
 c000f80:	2b06      	cmp	r3, #6
 c000f82:	f081 3136 	eor.w	r1, r1, #909522486	@ 0x36363636
 c000f86:	9113      	str	r1, [sp, #76]	@ 0x4c
 c000f88:	d039      	beq.n	c000ffe <ts_sha2_L1_prf_msg+0x1b6>
 c000f8a:	6991      	ldr	r1, [r2, #24]
 c000f8c:	2b07      	cmp	r3, #7
 c000f8e:	f081 3136 	eor.w	r1, r1, #909522486	@ 0x36363636
 c000f92:	9114      	str	r1, [sp, #80]	@ 0x50
 c000f94:	d033      	beq.n	c000ffe <ts_sha2_L1_prf_msg+0x1b6>
 c000f96:	69d1      	ldr	r1, [r2, #28]
 c000f98:	2b08      	cmp	r3, #8
 c000f9a:	f081 3136 	eor.w	r1, r1, #909522486	@ 0x36363636
 c000f9e:	9115      	str	r1, [sp, #84]	@ 0x54
 c000fa0:	d02d      	beq.n	c000ffe <ts_sha2_L1_prf_msg+0x1b6>
 c000fa2:	6a11      	ldr	r1, [r2, #32]
 c000fa4:	2b09      	cmp	r3, #9
 c000fa6:	f081 3136 	eor.w	r1, r1, #909522486	@ 0x36363636
 c000faa:	9116      	str	r1, [sp, #88]	@ 0x58
 c000fac:	d027      	beq.n	c000ffe <ts_sha2_L1_prf_msg+0x1b6>
 c000fae:	6a51      	ldr	r1, [r2, #36]	@ 0x24
 c000fb0:	2b0a      	cmp	r3, #10
 c000fb2:	f081 3136 	eor.w	r1, r1, #909522486	@ 0x36363636
 c000fb6:	9117      	str	r1, [sp, #92]	@ 0x5c
 c000fb8:	d021      	beq.n	c000ffe <ts_sha2_L1_prf_msg+0x1b6>
 c000fba:	6a91      	ldr	r1, [r2, #40]	@ 0x28
 c000fbc:	2b0b      	cmp	r3, #11
 c000fbe:	f081 3136 	eor.w	r1, r1, #909522486	@ 0x36363636
 c000fc2:	9118      	str	r1, [sp, #96]	@ 0x60
 c000fc4:	d01b      	beq.n	c000ffe <ts_sha2_L1_prf_msg+0x1b6>
 c000fc6:	6ad1      	ldr	r1, [r2, #44]	@ 0x2c
 c000fc8:	2b0c      	cmp	r3, #12
 c000fca:	f081 3136 	eor.w	r1, r1, #909522486	@ 0x36363636
 c000fce:	9119      	str	r1, [sp, #100]	@ 0x64
 c000fd0:	d015      	beq.n	c000ffe <ts_sha2_L1_prf_msg+0x1b6>
 c000fd2:	6b11      	ldr	r1, [r2, #48]	@ 0x30
 c000fd4:	2b0d      	cmp	r3, #13
 c000fd6:	f081 3136 	eor.w	r1, r1, #909522486	@ 0x36363636
 c000fda:	911a      	str	r1, [sp, #104]	@ 0x68
 c000fdc:	d00f      	beq.n	c000ffe <ts_sha2_L1_prf_msg+0x1b6>
 c000fde:	6b51      	ldr	r1, [r2, #52]	@ 0x34
 c000fe0:	2b0e      	cmp	r3, #14
 c000fe2:	f081 3136 	eor.w	r1, r1, #909522486	@ 0x36363636
 c000fe6:	911b      	str	r1, [sp, #108]	@ 0x6c
 c000fe8:	d009      	beq.n	c000ffe <ts_sha2_L1_prf_msg+0x1b6>
 c000fea:	6b91      	ldr	r1, [r2, #56]	@ 0x38
 c000fec:	2b0f      	cmp	r3, #15
 c000fee:	f081 3136 	eor.w	r1, r1, #909522486	@ 0x36363636
 c000ff2:	911c      	str	r1, [sp, #112]	@ 0x70
 c000ff4:	d003      	beq.n	c000ffe <ts_sha2_L1_prf_msg+0x1b6>
 c000ff6:	6bd3      	ldr	r3, [r2, #60]	@ 0x3c
 c000ff8:	f083 3336 	eor.w	r3, r3, #909522486	@ 0x36363636
 c000ffc:	931d      	str	r3, [sp, #116]	@ 0x74
 c000ffe:	07aa      	lsls	r2, r5, #30
 c001000:	d021      	beq.n	c001046 <ts_sha2_L1_prf_msg+0x1fe>
 c001002:	f025 0203 	bic.w	r2, r5, #3
 c001006:	1b53      	subs	r3, r2, r5
 c001008:	5ce3      	ldrb	r3, [r4, r3]
 c00100a:	f102 0178 	add.w	r1, r2, #120	@ 0x78
 c00100e:	f083 0336 	eor.w	r3, r3, #54	@ 0x36
 c001012:	4469      	add	r1, sp
 c001014:	f801 3c40 	strb.w	r3, [r1, #-64]
 c001018:	1c53      	adds	r3, r2, #1
 c00101a:	429d      	cmp	r5, r3
 c00101c:	d913      	bls.n	c001046 <ts_sha2_L1_prf_msg+0x1fe>
 c00101e:	1b59      	subs	r1, r3, r5
 c001020:	5c61      	ldrb	r1, [r4, r1]
 c001022:	3202      	adds	r2, #2
 c001024:	3378      	adds	r3, #120	@ 0x78
 c001026:	446b      	add	r3, sp
 c001028:	f081 0136 	eor.w	r1, r1, #54	@ 0x36
 c00102c:	4295      	cmp	r5, r2
 c00102e:	f803 1c40 	strb.w	r1, [r3, #-64]
 c001032:	d908      	bls.n	c001046 <ts_sha2_L1_prf_msg+0x1fe>
 c001034:	1b53      	subs	r3, r2, r5
 c001036:	5ce1      	ldrb	r1, [r4, r3]
 c001038:	f102 0378 	add.w	r3, r2, #120	@ 0x78
 c00103c:	446b      	add	r3, sp
 c00103e:	f081 0236 	eor.w	r2, r1, #54	@ 0x36
 c001042:	f803 2c40 	strb.w	r2, [r3, #-64]
 c001046:	465a      	mov	r2, fp
 c001048:	2136      	movs	r1, #54	@ 0x36
 c00104a:	4648      	mov	r0, r9
 c00104c:	f005 f878 	bl	c006140 <memset>
 c001050:	4641      	mov	r1, r8
 c001052:	4638      	mov	r0, r7
 c001054:	2240      	movs	r2, #64	@ 0x40
 c001056:	2300      	movs	r3, #0
 c001058:	f7ff fd52 	bl	c000b00 <ts_SHA256_update>
 c00105c:	462a      	mov	r2, r5
 c00105e:	4638      	mov	r0, r7
 c001060:	2300      	movs	r3, #0
 c001062:	9901      	ldr	r1, [sp, #4]
 c001064:	f7ff fd4c 	bl	c000b00 <ts_SHA256_update>
 c001068:	e9dd 1202 	ldrd	r1, r2, [sp, #8]
 c00106c:	2300      	movs	r3, #0
 c00106e:	4638      	mov	r0, r7
 c001070:	f10d 0a18 	add.w	sl, sp, #24
 c001074:	f7ff fd44 	bl	c000b00 <ts_SHA256_update>
 c001078:	4650      	mov	r0, sl
 c00107a:	4639      	mov	r1, r7
 c00107c:	f7ff fe88 	bl	c000d90 <ts_SHA256_final>
 c001080:	4638      	mov	r0, r7
 c001082:	f7ff fd11 	bl	c000aa8 <ts_SHA256_init>
 c001086:	4426      	add	r6, r4
 c001088:	eba8 0606 	sub.w	r6, r8, r6
 c00108c:	2e02      	cmp	r6, #2
 c00108e:	d803      	bhi.n	c001098 <ts_sha2_L1_prf_msg+0x250>
 c001090:	43eb      	mvns	r3, r5
 c001092:	1e66      	subs	r6, r4, #1
 c001094:	9304      	str	r3, [sp, #16]
 c001096:	e72d      	b.n	c000ef4 <ts_sha2_L1_prf_msg+0xac>
 c001098:	1b62      	subs	r2, r4, r5
 c00109a:	6813      	ldr	r3, [r2, #0]
 c00109c:	f083 335c 	eor.w	r3, r3, #1549556828	@ 0x5c5c5c5c
 c0010a0:	930e      	str	r3, [sp, #56]	@ 0x38
 c0010a2:	08ab      	lsrs	r3, r5, #2
 c0010a4:	2b01      	cmp	r3, #1
 c0010a6:	d057      	beq.n	c001158 <ts_sha2_L1_prf_msg+0x310>
 c0010a8:	6851      	ldr	r1, [r2, #4]
 c0010aa:	2b02      	cmp	r3, #2
 c0010ac:	f081 315c 	eor.w	r1, r1, #1549556828	@ 0x5c5c5c5c
 c0010b0:	910f      	str	r1, [sp, #60]	@ 0x3c
 c0010b2:	d051      	beq.n	c001158 <ts_sha2_L1_prf_msg+0x310>
 c0010b4:	6891      	ldr	r1, [r2, #8]
 c0010b6:	2b03      	cmp	r3, #3
 c0010b8:	f081 315c 	eor.w	r1, r1, #1549556828	@ 0x5c5c5c5c
 c0010bc:	9110      	str	r1, [sp, #64]	@ 0x40
 c0010be:	d04b      	beq.n	c001158 <ts_sha2_L1_prf_msg+0x310>
 c0010c0:	68d1      	ldr	r1, [r2, #12]
 c0010c2:	2b04      	cmp	r3, #4
 c0010c4:	f081 315c 	eor.w	r1, r1, #1549556828	@ 0x5c5c5c5c
 c0010c8:	9111      	str	r1, [sp, #68]	@ 0x44
 c0010ca:	d045      	beq.n	c001158 <ts_sha2_L1_prf_msg+0x310>
 c0010cc:	6911      	ldr	r1, [r2, #16]
 c0010ce:	2b05      	cmp	r3, #5
 c0010d0:	f081 315c 	eor.w	r1, r1, #1549556828	@ 0x5c5c5c5c
 c0010d4:	9112      	str	r1, [sp, #72]	@ 0x48
 c0010d6:	d03f      	beq.n	c001158 <ts_sha2_L1_prf_msg+0x310>
 c0010d8:	6951      	ldr	r1, [r2, #20]
 c0010da:	2b06      	cmp	r3, #6
 c0010dc:	f081 315c 	eor.w	r1, r1, #1549556828	@ 0x5c5c5c5c
 c0010e0:	9113      	str	r1, [sp, #76]	@ 0x4c
 c0010e2:	d039      	beq.n	c001158 <ts_sha2_L1_prf_msg+0x310>
 c0010e4:	6991      	ldr	r1, [r2, #24]
 c0010e6:	2b07      	cmp	r3, #7
 c0010e8:	f081 315c 	eor.w	r1, r1, #1549556828	@ 0x5c5c5c5c
 c0010ec:	9114      	str	r1, [sp, #80]	@ 0x50
 c0010ee:	d033      	beq.n	c001158 <ts_sha2_L1_prf_msg+0x310>
 c0010f0:	69d1      	ldr	r1, [r2, #28]
 c0010f2:	2b08      	cmp	r3, #8
 c0010f4:	f081 315c 	eor.w	r1, r1, #1549556828	@ 0x5c5c5c5c
 c0010f8:	9115      	str	r1, [sp, #84]	@ 0x54
 c0010fa:	d02d      	beq.n	c001158 <ts_sha2_L1_prf_msg+0x310>
 c0010fc:	6a11      	ldr	r1, [r2, #32]
 c0010fe:	2b09      	cmp	r3, #9
 c001100:	f081 315c 	eor.w	r1, r1, #1549556828	@ 0x5c5c5c5c
 c001104:	9116      	str	r1, [sp, #88]	@ 0x58
 c001106:	d027      	beq.n	c001158 <ts_sha2_L1_prf_msg+0x310>
 c001108:	6a51      	ldr	r1, [r2, #36]	@ 0x24
 c00110a:	2b0a      	cmp	r3, #10
 c00110c:	f081 315c 	eor.w	r1, r1, #1549556828	@ 0x5c5c5c5c
 c001110:	9117      	str	r1, [sp, #92]	@ 0x5c
 c001112:	d021      	beq.n	c001158 <ts_sha2_L1_prf_msg+0x310>
 c001114:	6a91      	ldr	r1, [r2, #40]	@ 0x28
 c001116:	2b0b      	cmp	r3, #11
 c001118:	f081 315c 	eor.w	r1, r1, #1549556828	@ 0x5c5c5c5c
 c00111c:	9118      	str	r1, [sp, #96]	@ 0x60
 c00111e:	d01b      	beq.n	c001158 <ts_sha2_L1_prf_msg+0x310>
 c001120:	6ad1      	ldr	r1, [r2, #44]	@ 0x2c
 c001122:	2b0c      	cmp	r3, #12
 c001124:	f081 315c 	eor.w	r1, r1, #1549556828	@ 0x5c5c5c5c
 c001128:	9119      	str	r1, [sp, #100]	@ 0x64
 c00112a:	d015      	beq.n	c001158 <ts_sha2_L1_prf_msg+0x310>
 c00112c:	6b11      	ldr	r1, [r2, #48]	@ 0x30
 c00112e:	2b0d      	cmp	r3, #13
 c001130:	f081 315c 	eor.w	r1, r1, #1549556828	@ 0x5c5c5c5c
 c001134:	911a      	str	r1, [sp, #104]	@ 0x68
 c001136:	d00f      	beq.n	c001158 <ts_sha2_L1_prf_msg+0x310>
 c001138:	6b51      	ldr	r1, [r2, #52]	@ 0x34
 c00113a:	2b0e      	cmp	r3, #14
 c00113c:	f081 315c 	eor.w	r1, r1, #1549556828	@ 0x5c5c5c5c
 c001140:	911b      	str	r1, [sp, #108]	@ 0x6c
 c001142:	d009      	beq.n	c001158 <ts_sha2_L1_prf_msg+0x310>
 c001144:	6b91      	ldr	r1, [r2, #56]	@ 0x38
 c001146:	2b0f      	cmp	r3, #15
 c001148:	f081 315c 	eor.w	r1, r1, #1549556828	@ 0x5c5c5c5c
 c00114c:	911c      	str	r1, [sp, #112]	@ 0x70
 c00114e:	d003      	beq.n	c001158 <ts_sha2_L1_prf_msg+0x310>
 c001150:	6bd3      	ldr	r3, [r2, #60]	@ 0x3c
 c001152:	f083 335c 	eor.w	r3, r3, #1549556828	@ 0x5c5c5c5c
 c001156:	931d      	str	r3, [sp, #116]	@ 0x74
 c001158:	07ab      	lsls	r3, r5, #30
 c00115a:	f025 0203 	bic.w	r2, r5, #3
 c00115e:	f43f aed4 	beq.w	c000f0a <ts_sha2_L1_prf_msg+0xc2>
 c001162:	1b53      	subs	r3, r2, r5
 c001164:	5ce3      	ldrb	r3, [r4, r3]
 c001166:	f102 0178 	add.w	r1, r2, #120	@ 0x78
 c00116a:	f083 035c 	eor.w	r3, r3, #92	@ 0x5c
 c00116e:	4469      	add	r1, sp
 c001170:	f801 3c40 	strb.w	r3, [r1, #-64]
 c001174:	1c53      	adds	r3, r2, #1
 c001176:	42ab      	cmp	r3, r5
 c001178:	f4bf aec7 	bcs.w	c000f0a <ts_sha2_L1_prf_msg+0xc2>
 c00117c:	1b59      	subs	r1, r3, r5
 c00117e:	5c61      	ldrb	r1, [r4, r1]
 c001180:	3202      	adds	r2, #2
 c001182:	3378      	adds	r3, #120	@ 0x78
 c001184:	446b      	add	r3, sp
 c001186:	f081 015c 	eor.w	r1, r1, #92	@ 0x5c
 c00118a:	42aa      	cmp	r2, r5
 c00118c:	f803 1c40 	strb.w	r1, [r3, #-64]
 c001190:	f4bf aebb 	bcs.w	c000f0a <ts_sha2_L1_prf_msg+0xc2>
 c001194:	1b53      	subs	r3, r2, r5
 c001196:	5ce3      	ldrb	r3, [r4, r3]
 c001198:	3278      	adds	r2, #120	@ 0x78
 c00119a:	446a      	add	r2, sp
 c00119c:	f083 035c 	eor.w	r3, r3, #92	@ 0x5c
 c0011a0:	f802 3c40 	strb.w	r3, [r2, #-64]
 c0011a4:	e6b1      	b.n	c000f0a <ts_sha2_L1_prf_msg+0xc2>
 c0011a6:	f1c5 0601 	rsb	r6, r5, #1
 c0011aa:	e76c      	b.n	c001086 <ts_sha2_L1_prf_msg+0x23e>
 c0011ac:	2240      	movs	r2, #64	@ 0x40
 c0011ae:	2136      	movs	r1, #54	@ 0x36
 c0011b0:	4640      	mov	r0, r8
 c0011b2:	f004 ffc5 	bl	c006140 <memset>
 c0011b6:	4641      	mov	r1, r8
 c0011b8:	4638      	mov	r0, r7
 c0011ba:	2240      	movs	r2, #64	@ 0x40
 c0011bc:	2300      	movs	r3, #0
 c0011be:	f7ff fc9f 	bl	c000b00 <ts_SHA256_update>
 c0011c2:	4638      	mov	r0, r7
 c0011c4:	9901      	ldr	r1, [sp, #4]
 c0011c6:	2200      	movs	r2, #0
 c0011c8:	2300      	movs	r3, #0
 c0011ca:	f7ff fc99 	bl	c000b00 <ts_SHA256_update>
 c0011ce:	f10d 0a18 	add.w	sl, sp, #24
 c0011d2:	462b      	mov	r3, r5
 c0011d4:	4638      	mov	r0, r7
 c0011d6:	9a03      	ldr	r2, [sp, #12]
 c0011d8:	9902      	ldr	r1, [sp, #8]
 c0011da:	f7ff fc91 	bl	c000b00 <ts_SHA256_update>
 c0011de:	4650      	mov	r0, sl
 c0011e0:	4639      	mov	r1, r7
 c0011e2:	f7ff fdd5 	bl	c000d90 <ts_SHA256_final>
 c0011e6:	4638      	mov	r0, r7
 c0011e8:	f7ff fc5e 	bl	c000aa8 <ts_SHA256_init>
 c0011ec:	e68d      	b.n	c000f0a <ts_sha2_L1_prf_msg+0xc2>
 c0011ee:	2204      	movs	r2, #4
 c0011f0:	e709      	b.n	c001006 <ts_sha2_L1_prf_msg+0x1be>
 c0011f2:	bf00      	nop

0c0011f4 <ts_sha2_L1_hash_msg>:
 c0011f4:	e92d 4ff0 	stmdb	sp!, {r4, r5, r6, r7, r8, r9, sl, fp, lr}
 c0011f8:	4691      	mov	r9, r2
 c0011fa:	469b      	mov	fp, r3
 c0011fc:	460e      	mov	r6, r1
 c0011fe:	b0a7      	sub	sp, #156	@ 0x9c
 c001200:	4680      	mov	r8, r0
 c001202:	9831      	ldr	r0, [sp, #196]	@ 0xc4
 c001204:	6804      	ldr	r4, [r0, #0]
 c001206:	f500 77a8 	add.w	r7, r0, #336	@ 0x150
 c00120a:	7824      	ldrb	r4, [r4, #0]
 c00120c:	f8d0 a004 	ldr.w	sl, [r0, #4]
 c001210:	4638      	mov	r0, r7
 c001212:	f7ff fc49 	bl	c000aa8 <ts_SHA256_init>
 c001216:	4622      	mov	r2, r4
 c001218:	2300      	movs	r3, #0
 c00121a:	4638      	mov	r0, r7
 c00121c:	4649      	mov	r1, r9
 c00121e:	f7ff fc6f 	bl	c000b00 <ts_SHA256_update>
 c001222:	4622      	mov	r2, r4
 c001224:	2300      	movs	r3, #0
 c001226:	4651      	mov	r1, sl
 c001228:	4638      	mov	r0, r7
 c00122a:	f7ff fc69 	bl	c000b00 <ts_SHA256_update>
 c00122e:	4622      	mov	r2, r4
 c001230:	2300      	movs	r3, #0
 c001232:	4638      	mov	r0, r7
 c001234:	eb0a 0104 	add.w	r1, sl, r4
 c001238:	f7ff fc62 	bl	c000b00 <ts_SHA256_update>
 c00123c:	9a30      	ldr	r2, [sp, #192]	@ 0xc0
 c00123e:	4659      	mov	r1, fp
 c001240:	2300      	movs	r3, #0
 c001242:	4638      	mov	r0, r7
 c001244:	f7ff fc5c 	bl	c000b00 <ts_SHA256_update>
 c001248:	ab0d      	add	r3, sp, #52	@ 0x34
 c00124a:	eb03 0044 	add.w	r0, r3, r4, lsl #1
 c00124e:	4639      	mov	r1, r7
 c001250:	f7ff fd9e 	bl	c000d90 <ts_SHA256_final>
 c001254:	4622      	mov	r2, r4
 c001256:	4649      	mov	r1, r9
 c001258:	a80d      	add	r0, sp, #52	@ 0x34
 c00125a:	f004 ff9d 	bl	c006198 <memcpy>
 c00125e:	ab0d      	add	r3, sp, #52	@ 0x34
 c001260:	4622      	mov	r2, r4
 c001262:	4651      	mov	r1, sl
 c001264:	1918      	adds	r0, r3, r4
 c001266:	f004 ff97 	bl	c006198 <memcpy>
 c00126a:	b376      	cbz	r6, c0012ca <ts_sha2_L1_hash_msg+0xd6>
 c00126c:	0065      	lsls	r5, r4, #1
 c00126e:	2400      	movs	r4, #0
 c001270:	f04f 0b04 	mov.w	fp, #4
 c001274:	46a1      	mov	r9, r4
 c001276:	ab0d      	add	r3, sp, #52	@ 0x34
 c001278:	f105 0a20 	add.w	sl, r5, #32
 c00127c:	449a      	add	sl, r3
 c00127e:	f105 0324 	add.w	r3, r5, #36	@ 0x24
 c001282:	9303      	str	r3, [sp, #12]
 c001284:	464b      	mov	r3, r9
 c001286:	4622      	mov	r2, r4
 c001288:	4650      	mov	r0, sl
 c00128a:	f8cd b000 	str.w	fp, [sp]
 c00128e:	f7ff fbfb 	bl	c000a88 <ts_ull_to_bytes>
 c001292:	4638      	mov	r0, r7
 c001294:	f7ff fc08 	bl	c000aa8 <ts_SHA256_init>
 c001298:	2e20      	cmp	r6, #32
 c00129a:	4635      	mov	r5, r6
 c00129c:	bf28      	it	cs
 c00129e:	2520      	movcs	r5, #32
 c0012a0:	2300      	movs	r3, #0
 c0012a2:	9a03      	ldr	r2, [sp, #12]
 c0012a4:	4638      	mov	r0, r7
 c0012a6:	a90d      	add	r1, sp, #52	@ 0x34
 c0012a8:	f7ff fc2a 	bl	c000b00 <ts_SHA256_update>
 c0012ac:	4639      	mov	r1, r7
 c0012ae:	a805      	add	r0, sp, #20
 c0012b0:	f7ff fd6e 	bl	c000d90 <ts_SHA256_final>
 c0012b4:	4640      	mov	r0, r8
 c0012b6:	462a      	mov	r2, r5
 c0012b8:	a905      	add	r1, sp, #20
 c0012ba:	f004 ff6d 	bl	c006198 <memcpy>
 c0012be:	3401      	adds	r4, #1
 c0012c0:	f149 0900 	adc.w	r9, r9, #0
 c0012c4:	1b76      	subs	r6, r6, r5
 c0012c6:	44a8      	add	r8, r5
 c0012c8:	d1dc      	bne.n	c001284 <ts_sha2_L1_hash_msg+0x90>
 c0012ca:	b027      	add	sp, #156	@ 0x9c
 c0012cc:	e8bd 8ff0 	ldmia.w	sp!, {r4, r5, r6, r7, r8, r9, sl, fp, pc}

0c0012d0 <ts_sha2_L1_init_t_simple>:
 c0012d0:	b570      	push	{r4, r5, r6, lr}
 c0012d2:	4605      	mov	r5, r0
 c0012d4:	460c      	mov	r4, r1
 c0012d6:	f000 f859 	bl	c00138c <ts_sha256_init_ctx>
 c0012da:	4628      	mov	r0, r5
 c0012dc:	f104 012d 	add.w	r1, r4, #45	@ 0x2d
 c0012e0:	2216      	movs	r2, #22
 c0012e2:	e8bd 4070 	ldmia.w	sp!, {r4, r5, r6, lr}
 c0012e6:	2300      	movs	r3, #0
 c0012e8:	f7ff bc0a 	b.w	c000b00 <ts_SHA256_update>

0c0012ec <ts_sha2_L1_next_t_simple>:
 c0012ec:	6812      	ldr	r2, [r2, #0]
 c0012ee:	2300      	movs	r3, #0
 c0012f0:	7812      	ldrb	r2, [r2, #0]
 c0012f2:	f7ff bc05 	b.w	c000b00 <ts_SHA256_update>
 c0012f6:	bf00      	nop

0c0012f8 <ts_sha2_L1_final_t_simple>:
 c0012f8:	6813      	ldr	r3, [r2, #0]
 c0012fa:	781a      	ldrb	r2, [r3, #0]
 c0012fc:	f7ff bd04 	b.w	c000d08 <ts_SHA256_final_trunc>

0c001300 <ts_sha2_L1_prehash>:
 c001300:	b5f8      	push	{r3, r4, r5, r6, r7, lr}
 c001302:	4607      	mov	r7, r0
 c001304:	6803      	ldr	r3, [r0, #0]
 c001306:	f500 75a8 	add.w	r5, r0, #336	@ 0x150
 c00130a:	781c      	ldrb	r4, [r3, #0]
 c00130c:	4628      	mov	r0, r5
 c00130e:	f7ff fbcb 	bl	c000aa8 <ts_SHA256_init>
 c001312:	4622      	mov	r2, r4
 c001314:	2300      	movs	r3, #0
 c001316:	4628      	mov	r0, r5
 c001318:	6879      	ldr	r1, [r7, #4]
 c00131a:	f7ff fbf1 	bl	c000b00 <ts_SHA256_update>
 c00131e:	2c3f      	cmp	r4, #63	@ 0x3f
 c001320:	dc09      	bgt.n	c001336 <ts_sha2_L1_prehash+0x36>
 c001322:	4e08      	ldr	r6, [pc, #32]	@ (c001344 <ts_sha2_L1_prehash+0x44>)
 c001324:	2201      	movs	r2, #1
 c001326:	2300      	movs	r3, #0
 c001328:	4631      	mov	r1, r6
 c00132a:	4628      	mov	r0, r5
 c00132c:	3401      	adds	r4, #1
 c00132e:	f7ff fbe7 	bl	c000b00 <ts_SHA256_update>
 c001332:	2c40      	cmp	r4, #64	@ 0x40
 c001334:	d1f6      	bne.n	c001324 <ts_sha2_L1_prehash+0x24>
 c001336:	4629      	mov	r1, r5
 c001338:	f507 7008 	add.w	r0, r7, #544	@ 0x220
 c00133c:	e8bd 40f8 	ldmia.w	sp!, {r3, r4, r5, r6, r7, lr}
 c001340:	f7ff bd2a 	b.w	c000d98 <ts_SHA256_save_state>
 c001344:	0c0062d8 	.word	0x0c0062d8

0c001348 <ts_sha2_prf>:
 c001348:	b5f8      	push	{r3, r4, r5, r6, r7, lr}
 c00134a:	460c      	mov	r4, r1
 c00134c:	4606      	mov	r6, r0
 c00134e:	f501 75a8 	add.w	r5, r1, #336	@ 0x150
 c001352:	680b      	ldr	r3, [r1, #0]
 c001354:	4628      	mov	r0, r5
 c001356:	f501 7108 	add.w	r1, r1, #544	@ 0x220
 c00135a:	781f      	ldrb	r7, [r3, #0]
 c00135c:	f7ff fd44 	bl	c000de8 <ts_SHA256_restore_state_after_64>
 c001360:	4628      	mov	r0, r5
 c001362:	f104 012d 	add.w	r1, r4, #45	@ 0x2d
 c001366:	2216      	movs	r2, #22
 c001368:	2300      	movs	r3, #0
 c00136a:	f7ff fbc9 	bl	c000b00 <ts_SHA256_update>
 c00136e:	6861      	ldr	r1, [r4, #4]
 c001370:	463a      	mov	r2, r7
 c001372:	4628      	mov	r0, r5
 c001374:	eba1 0147 	sub.w	r1, r1, r7, lsl #1
 c001378:	2300      	movs	r3, #0
 c00137a:	f7ff fbc1 	bl	c000b00 <ts_SHA256_update>
 c00137e:	463a      	mov	r2, r7
 c001380:	4629      	mov	r1, r5
 c001382:	4630      	mov	r0, r6
 c001384:	e8bd 40f8 	ldmia.w	sp!, {r3, r4, r5, r6, r7, lr}
 c001388:	f7ff bcbe 	b.w	c000d08 <ts_SHA256_final_trunc>

0c00138c <ts_sha256_init_ctx>:
 c00138c:	f501 7108 	add.w	r1, r1, #544	@ 0x220
 c001390:	f7ff bd2a 	b.w	c000de8 <ts_SHA256_restore_state_after_64>

0c001394 <ts_sha2_f_simple>:
 c001394:	e92d 41f0 	stmdb	sp!, {r4, r5, r6, r7, r8, lr}
 c001398:	4614      	mov	r4, r2
 c00139a:	460f      	mov	r7, r1
 c00139c:	4606      	mov	r6, r0
 c00139e:	6813      	ldr	r3, [r2, #0]
 c0013a0:	f502 75a8 	add.w	r5, r2, #336	@ 0x150
 c0013a4:	f893 8000 	ldrb.w	r8, [r3]
 c0013a8:	4611      	mov	r1, r2
 c0013aa:	4628      	mov	r0, r5
 c0013ac:	f7ff ffee 	bl	c00138c <ts_sha256_init_ctx>
 c0013b0:	4628      	mov	r0, r5
 c0013b2:	f104 012d 	add.w	r1, r4, #45	@ 0x2d
 c0013b6:	2216      	movs	r2, #22
 c0013b8:	2300      	movs	r3, #0
 c0013ba:	f7ff fba1 	bl	c000b00 <ts_SHA256_update>
 c0013be:	4642      	mov	r2, r8
 c0013c0:	4639      	mov	r1, r7
 c0013c2:	4628      	mov	r0, r5
 c0013c4:	2300      	movs	r3, #0
 c0013c6:	f7ff fb9b 	bl	c000b00 <ts_SHA256_update>
 c0013ca:	4642      	mov	r2, r8
 c0013cc:	4629      	mov	r1, r5
 c0013ce:	4630      	mov	r0, r6
 c0013d0:	e8bd 41f0 	ldmia.w	sp!, {r4, r5, r6, r7, r8, lr}
 c0013d4:	f7ff bc98 	b.w	c000d08 <ts_SHA256_final_trunc>

0c0013d8 <set_fors_prf_adr>:
 c0013d8:	b570      	push	{r4, r5, r6, lr}
 c0013da:	6803      	ldr	r3, [r0, #0]
 c0013dc:	4604      	mov	r4, r0
 c0013de:	799b      	ldrb	r3, [r3, #6]
 c0013e0:	460d      	mov	r5, r1
 c0013e2:	b082      	sub	sp, #8
 c0013e4:	2b00      	cmp	r3, #0
 c0013e6:	d038      	beq.n	c00145a <set_fors_prf_adr+0x82>
 c0013e8:	e9d0 2316 	ldrd	r2, r3, [r0, #88]	@ 0x58
 c0013ec:	2100      	movs	r1, #0
 c0013ee:	f880 102d 	strb.w	r1, [r0, #45]	@ 0x2d
 c0013f2:	2108      	movs	r1, #8
 c0013f4:	f104 002e 	add.w	r0, r4, #46	@ 0x2e
 c0013f8:	9100      	str	r1, [sp, #0]
 c0013fa:	f7ff fb45 	bl	c000a88 <ts_ull_to_bytes>
 c0013fe:	6823      	ldr	r3, [r4, #0]
 c001400:	799b      	ldrb	r3, [r3, #6]
 c001402:	2b00      	cmp	r3, #0
 c001404:	d040      	beq.n	c001488 <set_fors_prf_adr+0xb0>
 c001406:	2306      	movs	r3, #6
 c001408:	f8b4 2050 	ldrh.w	r2, [r4, #80]	@ 0x50
 c00140c:	f884 3036 	strb.w	r3, [r4, #54]	@ 0x36
 c001410:	2104      	movs	r1, #4
 c001412:	2300      	movs	r3, #0
 c001414:	f104 0037 	add.w	r0, r4, #55	@ 0x37
 c001418:	9100      	str	r1, [sp, #0]
 c00141a:	f7ff fb35 	bl	c000a88 <ts_ull_to_bytes>
 c00141e:	6823      	ldr	r3, [r4, #0]
 c001420:	2104      	movs	r1, #4
 c001422:	799b      	ldrb	r3, [r3, #6]
 c001424:	2200      	movs	r2, #0
 c001426:	2b00      	cmp	r3, #0
 c001428:	d049      	beq.n	c0014be <set_fors_prf_adr+0xe6>
 c00142a:	2300      	movs	r3, #0
 c00142c:	f104 003b 	add.w	r0, r4, #59	@ 0x3b
 c001430:	9100      	str	r1, [sp, #0]
 c001432:	f7ff fb29 	bl	c000a88 <ts_ull_to_bytes>
 c001436:	6823      	ldr	r3, [r4, #0]
 c001438:	f894 202b 	ldrb.w	r2, [r4, #43]	@ 0x2b
 c00143c:	7899      	ldrb	r1, [r3, #2]
 c00143e:	799b      	ldrb	r3, [r3, #6]
 c001440:	408a      	lsls	r2, r1
 c001442:	442a      	add	r2, r5
 c001444:	2104      	movs	r1, #4
 c001446:	2b00      	cmp	r3, #0
 c001448:	d032      	beq.n	c0014b0 <set_fors_prf_adr+0xd8>
 c00144a:	2300      	movs	r3, #0
 c00144c:	f104 003f 	add.w	r0, r4, #63	@ 0x3f
 c001450:	9100      	str	r1, [sp, #0]
 c001452:	f7ff fb19 	bl	c000a88 <ts_ull_to_bytes>
 c001456:	b002      	add	sp, #8
 c001458:	bd70      	pop	{r4, r5, r6, pc}
 c00145a:	2104      	movs	r1, #4
 c00145c:	2200      	movs	r2, #0
 c00145e:	2300      	movs	r3, #0
 c001460:	9100      	str	r1, [sp, #0]
 c001462:	302d      	adds	r0, #45	@ 0x2d
 c001464:	f7ff fb10 	bl	c000a88 <ts_ull_to_bytes>
 c001468:	e9d4 2316 	ldrd	r2, r3, [r4, #88]	@ 0x58
 c00146c:	6821      	ldr	r1, [r4, #0]
 c00146e:	7989      	ldrb	r1, [r1, #6]
 c001470:	2900      	cmp	r1, #0
 c001472:	d1be      	bne.n	c0013f2 <set_fors_prf_adr+0x1a>
 c001474:	210c      	movs	r1, #12
 c001476:	f104 0031 	add.w	r0, r4, #49	@ 0x31
 c00147a:	9100      	str	r1, [sp, #0]
 c00147c:	f7ff fb04 	bl	c000a88 <ts_ull_to_bytes>
 c001480:	6823      	ldr	r3, [r4, #0]
 c001482:	799b      	ldrb	r3, [r3, #6]
 c001484:	2b00      	cmp	r3, #0
 c001486:	d1be      	bne.n	c001406 <set_fors_prf_adr+0x2e>
 c001488:	2604      	movs	r6, #4
 c00148a:	2206      	movs	r2, #6
 c00148c:	2300      	movs	r3, #0
 c00148e:	f104 003d 	add.w	r0, r4, #61	@ 0x3d
 c001492:	9600      	str	r6, [sp, #0]
 c001494:	f7ff faf8 	bl	c000a88 <ts_ull_to_bytes>
 c001498:	6823      	ldr	r3, [r4, #0]
 c00149a:	f8b4 2050 	ldrh.w	r2, [r4, #80]	@ 0x50
 c00149e:	799b      	ldrb	r3, [r3, #6]
 c0014a0:	2b00      	cmp	r3, #0
 c0014a2:	d1b5      	bne.n	c001410 <set_fors_prf_adr+0x38>
 c0014a4:	9600      	str	r6, [sp, #0]
 c0014a6:	f104 0041 	add.w	r0, r4, #65	@ 0x41
 c0014aa:	f7ff faed 	bl	c000a88 <ts_ull_to_bytes>
 c0014ae:	e7b6      	b.n	c00141e <set_fors_prf_adr+0x46>
 c0014b0:	f104 0049 	add.w	r0, r4, #73	@ 0x49
 c0014b4:	9100      	str	r1, [sp, #0]
 c0014b6:	f7ff fae7 	bl	c000a88 <ts_ull_to_bytes>
 c0014ba:	b002      	add	sp, #8
 c0014bc:	bd70      	pop	{r4, r5, r6, pc}
 c0014be:	2300      	movs	r3, #0
 c0014c0:	f104 0045 	add.w	r0, r4, #69	@ 0x45
 c0014c4:	9100      	str	r1, [sp, #0]
 c0014c6:	f7ff fadf 	bl	c000a88 <ts_ull_to_bytes>
 c0014ca:	e7b4      	b.n	c001436 <set_fors_prf_adr+0x5e>

0c0014cc <ts_set_fors_leaf_adr>:
 c0014cc:	b570      	push	{r4, r5, r6, lr}
 c0014ce:	6803      	ldr	r3, [r0, #0]
 c0014d0:	4604      	mov	r4, r0
 c0014d2:	799b      	ldrb	r3, [r3, #6]
 c0014d4:	460d      	mov	r5, r1
 c0014d6:	b082      	sub	sp, #8
 c0014d8:	2b00      	cmp	r3, #0
 c0014da:	d038      	beq.n	c00154e <ts_set_fors_leaf_adr+0x82>
 c0014dc:	e9d0 2316 	ldrd	r2, r3, [r0, #88]	@ 0x58
 c0014e0:	2100      	movs	r1, #0
 c0014e2:	f880 102d 	strb.w	r1, [r0, #45]	@ 0x2d
 c0014e6:	2108      	movs	r1, #8
 c0014e8:	f104 002e 	add.w	r0, r4, #46	@ 0x2e
 c0014ec:	9100      	str	r1, [sp, #0]
 c0014ee:	f7ff facb 	bl	c000a88 <ts_ull_to_bytes>
 c0014f2:	6823      	ldr	r3, [r4, #0]
 c0014f4:	799b      	ldrb	r3, [r3, #6]
 c0014f6:	2b00      	cmp	r3, #0
 c0014f8:	d040      	beq.n	c00157c <ts_set_fors_leaf_adr+0xb0>
 c0014fa:	2303      	movs	r3, #3
 c0014fc:	f8b4 2050 	ldrh.w	r2, [r4, #80]	@ 0x50
 c001500:	f884 3036 	strb.w	r3, [r4, #54]	@ 0x36
 c001504:	2104      	movs	r1, #4
 c001506:	2300      	movs	r3, #0
 c001508:	f104 0037 	add.w	r0, r4, #55	@ 0x37
 c00150c:	9100      	str	r1, [sp, #0]
 c00150e:	f7ff fabb 	bl	c000a88 <ts_ull_to_bytes>
 c001512:	6823      	ldr	r3, [r4, #0]
 c001514:	2104      	movs	r1, #4
 c001516:	799b      	ldrb	r3, [r3, #6]
 c001518:	2200      	movs	r2, #0
 c00151a:	2b00      	cmp	r3, #0
 c00151c:	d049      	beq.n	c0015b2 <ts_set_fors_leaf_adr+0xe6>
 c00151e:	2300      	movs	r3, #0
 c001520:	f104 003b 	add.w	r0, r4, #59	@ 0x3b
 c001524:	9100      	str	r1, [sp, #0]
 c001526:	f7ff faaf 	bl	c000a88 <ts_ull_to_bytes>
 c00152a:	6823      	ldr	r3, [r4, #0]
 c00152c:	f894 202b 	ldrb.w	r2, [r4, #43]	@ 0x2b
 c001530:	7899      	ldrb	r1, [r3, #2]
 c001532:	799b      	ldrb	r3, [r3, #6]
 c001534:	408a      	lsls	r2, r1
 c001536:	442a      	add	r2, r5
 c001538:	2104      	movs	r1, #4
 c00153a:	2b00      	cmp	r3, #0
 c00153c:	d032      	beq.n	c0015a4 <ts_set_fors_leaf_adr+0xd8>
 c00153e:	2300      	movs	r3, #0
 c001540:	f104 003f 	add.w	r0, r4, #63	@ 0x3f
 c001544:	9100      	str	r1, [sp, #0]
 c001546:	f7ff fa9f 	bl	c000a88 <ts_ull_to_bytes>
 c00154a:	b002      	add	sp, #8
 c00154c:	bd70      	pop	{r4, r5, r6, pc}
 c00154e:	2104      	movs	r1, #4
 c001550:	2200      	movs	r2, #0
 c001552:	2300      	movs	r3, #0
 c001554:	9100      	str	r1, [sp, #0]
 c001556:	302d      	adds	r0, #45	@ 0x2d
 c001558:	f7ff fa96 	bl	c000a88 <ts_ull_to_bytes>
 c00155c:	e9d4 2316 	ldrd	r2, r3, [r4, #88]	@ 0x58
 c001560:	6821      	ldr	r1, [r4, #0]
 c001562:	7989      	ldrb	r1, [r1, #6]
 c001564:	2900      	cmp	r1, #0
 c001566:	d1be      	bne.n	c0014e6 <ts_set_fors_leaf_adr+0x1a>
 c001568:	210c      	movs	r1, #12
 c00156a:	f104 0031 	add.w	r0, r4, #49	@ 0x31
 c00156e:	9100      	str	r1, [sp, #0]
 c001570:	f7ff fa8a 	bl	c000a88 <ts_ull_to_bytes>
 c001574:	6823      	ldr	r3, [r4, #0]
 c001576:	799b      	ldrb	r3, [r3, #6]
 c001578:	2b00      	cmp	r3, #0
 c00157a:	d1be      	bne.n	c0014fa <ts_set_fors_leaf_adr+0x2e>
 c00157c:	2604      	movs	r6, #4
 c00157e:	2203      	movs	r2, #3
 c001580:	2300      	movs	r3, #0
 c001582:	f104 003d 	add.w	r0, r4, #61	@ 0x3d
 c001586:	9600      	str	r6, [sp, #0]
 c001588:	f7ff fa7e 	bl	c000a88 <ts_ull_to_bytes>
 c00158c:	6823      	ldr	r3, [r4, #0]
 c00158e:	f8b4 2050 	ldrh.w	r2, [r4, #80]	@ 0x50
 c001592:	799b      	ldrb	r3, [r3, #6]
 c001594:	2b00      	cmp	r3, #0
 c001596:	d1b5      	bne.n	c001504 <ts_set_fors_leaf_adr+0x38>
 c001598:	9600      	str	r6, [sp, #0]
 c00159a:	f104 0041 	add.w	r0, r4, #65	@ 0x41
 c00159e:	f7ff fa73 	bl	c000a88 <ts_ull_to_bytes>
 c0015a2:	e7b6      	b.n	c001512 <ts_set_fors_leaf_adr+0x46>
 c0015a4:	f104 0049 	add.w	r0, r4, #73	@ 0x49
 c0015a8:	9100      	str	r1, [sp, #0]
 c0015aa:	f7ff fa6d 	bl	c000a88 <ts_ull_to_bytes>
 c0015ae:	b002      	add	sp, #8
 c0015b0:	bd70      	pop	{r4, r5, r6, pc}
 c0015b2:	2300      	movs	r3, #0
 c0015b4:	f104 0045 	add.w	r0, r4, #69	@ 0x45
 c0015b8:	9100      	str	r1, [sp, #0]
 c0015ba:	f7ff fa65 	bl	c000a88 <ts_ull_to_bytes>
 c0015be:	e7b4      	b.n	c00152a <ts_set_fors_leaf_adr+0x5e>

0c0015c0 <ts_set_wots_f_adr>:
 c0015c0:	e92d 41f0 	stmdb	sp!, {r4, r5, r6, r7, r8, lr}
 c0015c4:	461d      	mov	r5, r3
 c0015c6:	6803      	ldr	r3, [r0, #0]
 c0015c8:	4616      	mov	r6, r2
 c0015ca:	799b      	ldrb	r3, [r3, #6]
 c0015cc:	4604      	mov	r4, r0
 c0015ce:	460f      	mov	r7, r1
 c0015d0:	f890 202a 	ldrb.w	r2, [r0, #42]	@ 0x2a
 c0015d4:	b082      	sub	sp, #8
 c0015d6:	2b00      	cmp	r3, #0
 c0015d8:	d033      	beq.n	c001642 <ts_set_wots_f_adr+0x82>
 c0015da:	f880 202d 	strb.w	r2, [r0, #45]	@ 0x2d
 c0015de:	e9d0 2316 	ldrd	r2, r3, [r0, #88]	@ 0x58
 c0015e2:	2108      	movs	r1, #8
 c0015e4:	f104 002e 	add.w	r0, r4, #46	@ 0x2e
 c0015e8:	9100      	str	r1, [sp, #0]
 c0015ea:	f7ff fa4d 	bl	c000a88 <ts_ull_to_bytes>
 c0015ee:	6823      	ldr	r3, [r4, #0]
 c0015f0:	2200      	movs	r2, #0
 c0015f2:	799b      	ldrb	r3, [r3, #6]
 c0015f4:	2b00      	cmp	r3, #0
 c0015f6:	d03a      	beq.n	c00166e <ts_set_wots_f_adr+0xae>
 c0015f8:	f884 2036 	strb.w	r2, [r4, #54]	@ 0x36
 c0015fc:	2104      	movs	r1, #4
 c0015fe:	463a      	mov	r2, r7
 c001600:	2300      	movs	r3, #0
 c001602:	9100      	str	r1, [sp, #0]
 c001604:	f104 0037 	add.w	r0, r4, #55	@ 0x37
 c001608:	f7ff fa3e 	bl	c000a88 <ts_ull_to_bytes>
 c00160c:	6823      	ldr	r3, [r4, #0]
 c00160e:	2104      	movs	r1, #4
 c001610:	799b      	ldrb	r3, [r3, #6]
 c001612:	4632      	mov	r2, r6
 c001614:	2b00      	cmp	r3, #0
 c001616:	d045      	beq.n	c0016a4 <ts_set_wots_f_adr+0xe4>
 c001618:	2300      	movs	r3, #0
 c00161a:	9100      	str	r1, [sp, #0]
 c00161c:	f104 003b 	add.w	r0, r4, #59	@ 0x3b
 c001620:	f7ff fa32 	bl	c000a88 <ts_ull_to_bytes>
 c001624:	6823      	ldr	r3, [r4, #0]
 c001626:	2104      	movs	r1, #4
 c001628:	799b      	ldrb	r3, [r3, #6]
 c00162a:	462a      	mov	r2, r5
 c00162c:	2b00      	cmp	r3, #0
 c00162e:	d044      	beq.n	c0016ba <ts_set_wots_f_adr+0xfa>
 c001630:	2300      	movs	r3, #0
 c001632:	f104 003f 	add.w	r0, r4, #63	@ 0x3f
 c001636:	9100      	str	r1, [sp, #0]
 c001638:	f7ff fa26 	bl	c000a88 <ts_ull_to_bytes>
 c00163c:	b002      	add	sp, #8
 c00163e:	e8bd 81f0 	ldmia.w	sp!, {r4, r5, r6, r7, r8, pc}
 c001642:	2104      	movs	r1, #4
 c001644:	302d      	adds	r0, #45	@ 0x2d
 c001646:	9100      	str	r1, [sp, #0]
 c001648:	f7ff fa1e 	bl	c000a88 <ts_ull_to_bytes>
 c00164c:	6823      	ldr	r3, [r4, #0]
 c00164e:	7999      	ldrb	r1, [r3, #6]
 c001650:	e9d4 2316 	ldrd	r2, r3, [r4, #88]	@ 0x58
 c001654:	2900      	cmp	r1, #0
 c001656:	d1c4      	bne.n	c0015e2 <ts_set_wots_f_adr+0x22>
 c001658:	210c      	movs	r1, #12
 c00165a:	f104 0031 	add.w	r0, r4, #49	@ 0x31
 c00165e:	9100      	str	r1, [sp, #0]
 c001660:	f7ff fa12 	bl	c000a88 <ts_ull_to_bytes>
 c001664:	6823      	ldr	r3, [r4, #0]
 c001666:	2200      	movs	r2, #0
 c001668:	799b      	ldrb	r3, [r3, #6]
 c00166a:	2b00      	cmp	r3, #0
 c00166c:	d1c4      	bne.n	c0015f8 <ts_set_wots_f_adr+0x38>
 c00166e:	f04f 0804 	mov.w	r8, #4
 c001672:	2300      	movs	r3, #0
 c001674:	2200      	movs	r2, #0
 c001676:	f104 003d 	add.w	r0, r4, #61	@ 0x3d
 c00167a:	f8cd 8000 	str.w	r8, [sp]
 c00167e:	f7ff fa03 	bl	c000a88 <ts_ull_to_bytes>
 c001682:	6823      	ldr	r3, [r4, #0]
 c001684:	799b      	ldrb	r3, [r3, #6]
 c001686:	2b00      	cmp	r3, #0
 c001688:	d1b8      	bne.n	c0015fc <ts_set_wots_f_adr+0x3c>
 c00168a:	463a      	mov	r2, r7
 c00168c:	f8cd 8000 	str.w	r8, [sp]
 c001690:	f104 0041 	add.w	r0, r4, #65	@ 0x41
 c001694:	f7ff f9f8 	bl	c000a88 <ts_ull_to_bytes>
 c001698:	6823      	ldr	r3, [r4, #0]
 c00169a:	2104      	movs	r1, #4
 c00169c:	799b      	ldrb	r3, [r3, #6]
 c00169e:	4632      	mov	r2, r6
 c0016a0:	2b00      	cmp	r3, #0
 c0016a2:	d1b9      	bne.n	c001618 <ts_set_wots_f_adr+0x58>
 c0016a4:	9100      	str	r1, [sp, #0]
 c0016a6:	f104 0045 	add.w	r0, r4, #69	@ 0x45
 c0016aa:	f7ff f9ed 	bl	c000a88 <ts_ull_to_bytes>
 c0016ae:	6823      	ldr	r3, [r4, #0]
 c0016b0:	2104      	movs	r1, #4
 c0016b2:	799b      	ldrb	r3, [r3, #6]
 c0016b4:	462a      	mov	r2, r5
 c0016b6:	2b00      	cmp	r3, #0
 c0016b8:	d1ba      	bne.n	c001630 <ts_set_wots_f_adr+0x70>
 c0016ba:	f104 0049 	add.w	r0, r4, #73	@ 0x49
 c0016be:	9100      	str	r1, [sp, #0]
 c0016c0:	f7ff f9e2 	bl	c000a88 <ts_ull_to_bytes>
 c0016c4:	b002      	add	sp, #8
 c0016c6:	e8bd 81f0 	ldmia.w	sp!, {r4, r5, r6, r7, r8, pc}
 c0016ca:	bf00      	nop

0c0016cc <ts_set_merkle_adr>:
 c0016cc:	b5f0      	push	{r4, r5, r6, r7, lr}
 c0016ce:	461e      	mov	r6, r3
 c0016d0:	6803      	ldr	r3, [r0, #0]
 c0016d2:	4615      	mov	r5, r2
 c0016d4:	799b      	ldrb	r3, [r3, #6]
 c0016d6:	4604      	mov	r4, r0
 c0016d8:	460f      	mov	r7, r1
 c0016da:	f890 202a 	ldrb.w	r2, [r0, #42]	@ 0x2a
 c0016de:	b083      	sub	sp, #12
 c0016e0:	2b00      	cmp	r3, #0
 c0016e2:	d039      	beq.n	c001758 <ts_set_merkle_adr+0x8c>
 c0016e4:	f880 202d 	strb.w	r2, [r0, #45]	@ 0x2d
 c0016e8:	e9d0 2316 	ldrd	r2, r3, [r0, #88]	@ 0x58
 c0016ec:	2108      	movs	r1, #8
 c0016ee:	f104 002e 	add.w	r0, r4, #46	@ 0x2e
 c0016f2:	9100      	str	r1, [sp, #0]
 c0016f4:	f7ff f9c8 	bl	c000a88 <ts_ull_to_bytes>
 c0016f8:	6823      	ldr	r3, [r4, #0]
 c0016fa:	799b      	ldrb	r3, [r3, #6]
 c0016fc:	2b00      	cmp	r3, #0
 c0016fe:	d040      	beq.n	c001782 <ts_set_merkle_adr+0xb6>
 c001700:	f8b4 2050 	ldrh.w	r2, [r4, #80]	@ 0x50
 c001704:	f884 6036 	strb.w	r6, [r4, #54]	@ 0x36
 c001708:	2104      	movs	r1, #4
 c00170a:	2300      	movs	r3, #0
 c00170c:	f104 0037 	add.w	r0, r4, #55	@ 0x37
 c001710:	9100      	str	r1, [sp, #0]
 c001712:	f7ff f9b9 	bl	c000a88 <ts_ull_to_bytes>
 c001716:	6823      	ldr	r3, [r4, #0]
 c001718:	3501      	adds	r5, #1
 c00171a:	799b      	ldrb	r3, [r3, #6]
 c00171c:	2104      	movs	r1, #4
 c00171e:	462a      	mov	r2, r5
 c001720:	2b00      	cmp	r3, #0
 c001722:	d048      	beq.n	c0017b6 <ts_set_merkle_adr+0xea>
 c001724:	2300      	movs	r3, #0
 c001726:	f104 003b 	add.w	r0, r4, #59	@ 0x3b
 c00172a:	9100      	str	r1, [sp, #0]
 c00172c:	f7ff f9ac 	bl	c000a88 <ts_ull_to_bytes>
 c001730:	6823      	ldr	r3, [r4, #0]
 c001732:	f894 002b 	ldrb.w	r0, [r4, #43]	@ 0x2b
 c001736:	789a      	ldrb	r2, [r3, #2]
 c001738:	799b      	ldrb	r3, [r3, #6]
 c00173a:	4090      	lsls	r0, r2
 c00173c:	19c1      	adds	r1, r0, r7
 c00173e:	fa21 f205 	lsr.w	r2, r1, r5
 c001742:	2104      	movs	r1, #4
 c001744:	2b00      	cmp	r3, #0
 c001746:	d02f      	beq.n	c0017a8 <ts_set_merkle_adr+0xdc>
 c001748:	2300      	movs	r3, #0
 c00174a:	f104 003f 	add.w	r0, r4, #63	@ 0x3f
 c00174e:	9100      	str	r1, [sp, #0]
 c001750:	f7ff f99a 	bl	c000a88 <ts_ull_to_bytes>
 c001754:	b003      	add	sp, #12
 c001756:	bdf0      	pop	{r4, r5, r6, r7, pc}
 c001758:	2104      	movs	r1, #4
 c00175a:	302d      	adds	r0, #45	@ 0x2d
 c00175c:	9100      	str	r1, [sp, #0]
 c00175e:	f7ff f993 	bl	c000a88 <ts_ull_to_bytes>
 c001762:	6823      	ldr	r3, [r4, #0]
 c001764:	7999      	ldrb	r1, [r3, #6]
 c001766:	e9d4 2316 	ldrd	r2, r3, [r4, #88]	@ 0x58
 c00176a:	2900      	cmp	r1, #0
 c00176c:	d1be      	bne.n	c0016ec <ts_set_merkle_adr+0x20>
 c00176e:	210c      	movs	r1, #12
 c001770:	f104 0031 	add.w	r0, r4, #49	@ 0x31
 c001774:	9100      	str	r1, [sp, #0]
 c001776:	f7ff f987 	bl	c000a88 <ts_ull_to_bytes>
 c00177a:	6823      	ldr	r3, [r4, #0]
 c00177c:	799b      	ldrb	r3, [r3, #6]
 c00177e:	2b00      	cmp	r3, #0
 c001780:	d1be      	bne.n	c001700 <ts_set_merkle_adr+0x34>
 c001782:	4632      	mov	r2, r6
 c001784:	2604      	movs	r6, #4
 c001786:	f104 003d 	add.w	r0, r4, #61	@ 0x3d
 c00178a:	9600      	str	r6, [sp, #0]
 c00178c:	f7ff f97c 	bl	c000a88 <ts_ull_to_bytes>
 c001790:	6823      	ldr	r3, [r4, #0]
 c001792:	f8b4 2050 	ldrh.w	r2, [r4, #80]	@ 0x50
 c001796:	799b      	ldrb	r3, [r3, #6]
 c001798:	2b00      	cmp	r3, #0
 c00179a:	d1b5      	bne.n	c001708 <ts_set_merkle_adr+0x3c>
 c00179c:	9600      	str	r6, [sp, #0]
 c00179e:	f104 0041 	add.w	r0, r4, #65	@ 0x41
 c0017a2:	f7ff f971 	bl	c000a88 <ts_ull_to_bytes>
 c0017a6:	e7b6      	b.n	c001716 <ts_set_merkle_adr+0x4a>
 c0017a8:	f104 0049 	add.w	r0, r4, #73	@ 0x49
 c0017ac:	9100      	str	r1, [sp, #0]
 c0017ae:	f7ff f96b 	bl	c000a88 <ts_ull_to_bytes>
 c0017b2:	b003      	add	sp, #12
 c0017b4:	bdf0      	pop	{r4, r5, r6, r7, pc}
 c0017b6:	f104 0045 	add.w	r0, r4, #69	@ 0x45
 c0017ba:	9100      	str	r1, [sp, #0]
 c0017bc:	f7ff f964 	bl	c000a88 <ts_ull_to_bytes>
 c0017c0:	e7b6      	b.n	c001730 <ts_set_merkle_adr+0x64>
 c0017c2:	bf00      	nop

0c0017c4 <ts_set_fors_root_adr>:
 c0017c4:	b530      	push	{r4, r5, lr}
 c0017c6:	6803      	ldr	r3, [r0, #0]
 c0017c8:	4604      	mov	r4, r0
 c0017ca:	799b      	ldrb	r3, [r3, #6]
 c0017cc:	b083      	sub	sp, #12
 c0017ce:	2b00      	cmp	r3, #0
 c0017d0:	d034      	beq.n	c00183c <ts_set_fors_root_adr+0x78>
 c0017d2:	e9d0 2316 	ldrd	r2, r3, [r0, #88]	@ 0x58
 c0017d6:	2100      	movs	r1, #0
 c0017d8:	f880 102d 	strb.w	r1, [r0, #45]	@ 0x2d
 c0017dc:	2108      	movs	r1, #8
 c0017de:	f104 002e 	add.w	r0, r4, #46	@ 0x2e
 c0017e2:	9100      	str	r1, [sp, #0]
 c0017e4:	f7ff f950 	bl	c000a88 <ts_ull_to_bytes>
 c0017e8:	6823      	ldr	r3, [r4, #0]
 c0017ea:	799b      	ldrb	r3, [r3, #6]
 c0017ec:	2b00      	cmp	r3, #0
 c0017ee:	d03c      	beq.n	c00186a <ts_set_fors_root_adr+0xa6>
 c0017f0:	2304      	movs	r3, #4
 c0017f2:	f8b4 2050 	ldrh.w	r2, [r4, #80]	@ 0x50
 c0017f6:	f884 3036 	strb.w	r3, [r4, #54]	@ 0x36
 c0017fa:	2104      	movs	r1, #4
 c0017fc:	2300      	movs	r3, #0
 c0017fe:	f104 0037 	add.w	r0, r4, #55	@ 0x37
 c001802:	9100      	str	r1, [sp, #0]
 c001804:	f7ff f940 	bl	c000a88 <ts_ull_to_bytes>
 c001808:	6823      	ldr	r3, [r4, #0]
 c00180a:	2104      	movs	r1, #4
 c00180c:	799b      	ldrb	r3, [r3, #6]
 c00180e:	2200      	movs	r2, #0
 c001810:	2b00      	cmp	r3, #0
 c001812:	d046      	beq.n	c0018a2 <ts_set_fors_root_adr+0xde>
 c001814:	2300      	movs	r3, #0
 c001816:	f104 003b 	add.w	r0, r4, #59	@ 0x3b
 c00181a:	9100      	str	r1, [sp, #0]
 c00181c:	f7ff f934 	bl	c000a88 <ts_ull_to_bytes>
 c001820:	6823      	ldr	r3, [r4, #0]
 c001822:	2104      	movs	r1, #4
 c001824:	799b      	ldrb	r3, [r3, #6]
 c001826:	2200      	movs	r2, #0
 c001828:	2b00      	cmp	r3, #0
 c00182a:	d032      	beq.n	c001892 <ts_set_fors_root_adr+0xce>
 c00182c:	2300      	movs	r3, #0
 c00182e:	f104 003f 	add.w	r0, r4, #63	@ 0x3f
 c001832:	9100      	str	r1, [sp, #0]
 c001834:	f7ff f928 	bl	c000a88 <ts_ull_to_bytes>
 c001838:	b003      	add	sp, #12
 c00183a:	bd30      	pop	{r4, r5, pc}
 c00183c:	2104      	movs	r1, #4
 c00183e:	2200      	movs	r2, #0
 c001840:	2300      	movs	r3, #0
 c001842:	9100      	str	r1, [sp, #0]
 c001844:	302d      	adds	r0, #45	@ 0x2d
 c001846:	f7ff f91f 	bl	c000a88 <ts_ull_to_bytes>
 c00184a:	e9d4 2316 	ldrd	r2, r3, [r4, #88]	@ 0x58
 c00184e:	6821      	ldr	r1, [r4, #0]
 c001850:	7989      	ldrb	r1, [r1, #6]
 c001852:	2900      	cmp	r1, #0
 c001854:	d1c2      	bne.n	c0017dc <ts_set_fors_root_adr+0x18>
 c001856:	210c      	movs	r1, #12
 c001858:	f104 0031 	add.w	r0, r4, #49	@ 0x31
 c00185c:	9100      	str	r1, [sp, #0]
 c00185e:	f7ff f913 	bl	c000a88 <ts_ull_to_bytes>
 c001862:	6823      	ldr	r3, [r4, #0]
 c001864:	799b      	ldrb	r3, [r3, #6]
 c001866:	2b00      	cmp	r3, #0
 c001868:	d1c2      	bne.n	c0017f0 <ts_set_fors_root_adr+0x2c>
 c00186a:	2504      	movs	r5, #4
 c00186c:	2204      	movs	r2, #4
 c00186e:	2300      	movs	r3, #0
 c001870:	f104 003d 	add.w	r0, r4, #61	@ 0x3d
 c001874:	9500      	str	r5, [sp, #0]
 c001876:	f7ff f907 	bl	c000a88 <ts_ull_to_bytes>
 c00187a:	6823      	ldr	r3, [r4, #0]
 c00187c:	f8b4 2050 	ldrh.w	r2, [r4, #80]	@ 0x50
 c001880:	799b      	ldrb	r3, [r3, #6]
 c001882:	2b00      	cmp	r3, #0
 c001884:	d1b9      	bne.n	c0017fa <ts_set_fors_root_adr+0x36>
 c001886:	9500      	str	r5, [sp, #0]
 c001888:	f104 0041 	add.w	r0, r4, #65	@ 0x41
 c00188c:	f7ff f8fc 	bl	c000a88 <ts_ull_to_bytes>
 c001890:	e7ba      	b.n	c001808 <ts_set_fors_root_adr+0x44>
 c001892:	2300      	movs	r3, #0
 c001894:	f104 0049 	add.w	r0, r4, #73	@ 0x49
 c001898:	9100      	str	r1, [sp, #0]
 c00189a:	f7ff f8f5 	bl	c000a88 <ts_ull_to_bytes>
 c00189e:	b003      	add	sp, #12
 c0018a0:	bd30      	pop	{r4, r5, pc}
 c0018a2:	2300      	movs	r3, #0
 c0018a4:	f104 0045 	add.w	r0, r4, #69	@ 0x45
 c0018a8:	9100      	str	r1, [sp, #0]
 c0018aa:	f7ff f8ed 	bl	c000a88 <ts_ull_to_bytes>
 c0018ae:	e7b7      	b.n	c001820 <ts_set_fors_root_adr+0x5c>

0c0018b0 <ts_set_wots_header_adr>:
 c0018b0:	b570      	push	{r4, r5, r6, lr}
 c0018b2:	680b      	ldr	r3, [r1, #0]
 c0018b4:	460c      	mov	r4, r1
 c0018b6:	799b      	ldrb	r3, [r3, #6]
 c0018b8:	4605      	mov	r5, r0
 c0018ba:	f891 202a 	ldrb.w	r2, [r1, #42]	@ 0x2a
 c0018be:	b082      	sub	sp, #8
 c0018c0:	2b00      	cmp	r3, #0
 c0018c2:	d032      	beq.n	c00192a <ts_set_wots_header_adr+0x7a>
 c0018c4:	f881 202d 	strb.w	r2, [r1, #45]	@ 0x2d
 c0018c8:	e9d1 2316 	ldrd	r2, r3, [r1, #88]	@ 0x58
 c0018cc:	2108      	movs	r1, #8
 c0018ce:	f104 002e 	add.w	r0, r4, #46	@ 0x2e
 c0018d2:	9100      	str	r1, [sp, #0]
 c0018d4:	f7ff f8d8 	bl	c000a88 <ts_ull_to_bytes>
 c0018d8:	6823      	ldr	r3, [r4, #0]
 c0018da:	799b      	ldrb	r3, [r3, #6]
 c0018dc:	2b00      	cmp	r3, #0
 c0018de:	d03a      	beq.n	c001956 <ts_set_wots_header_adr+0xa6>
 c0018e0:	2301      	movs	r3, #1
 c0018e2:	f884 3036 	strb.w	r3, [r4, #54]	@ 0x36
 c0018e6:	2104      	movs	r1, #4
 c0018e8:	462a      	mov	r2, r5
 c0018ea:	2300      	movs	r3, #0
 c0018ec:	f104 0037 	add.w	r0, r4, #55	@ 0x37
 c0018f0:	9100      	str	r1, [sp, #0]
 c0018f2:	f7ff f8c9 	bl	c000a88 <ts_ull_to_bytes>
 c0018f6:	6823      	ldr	r3, [r4, #0]
 c0018f8:	2104      	movs	r1, #4
 c0018fa:	799b      	ldrb	r3, [r3, #6]
 c0018fc:	2200      	movs	r2, #0
 c0018fe:	2b00      	cmp	r3, #0
 c001900:	d044      	beq.n	c00198c <ts_set_wots_header_adr+0xdc>
 c001902:	2300      	movs	r3, #0
 c001904:	f104 003b 	add.w	r0, r4, #59	@ 0x3b
 c001908:	9100      	str	r1, [sp, #0]
 c00190a:	f7ff f8bd 	bl	c000a88 <ts_ull_to_bytes>
 c00190e:	6823      	ldr	r3, [r4, #0]
 c001910:	2104      	movs	r1, #4
 c001912:	799b      	ldrb	r3, [r3, #6]
 c001914:	2200      	movs	r2, #0
 c001916:	2b00      	cmp	r3, #0
 c001918:	d030      	beq.n	c00197c <ts_set_wots_header_adr+0xcc>
 c00191a:	2300      	movs	r3, #0
 c00191c:	f104 003f 	add.w	r0, r4, #63	@ 0x3f
 c001920:	9100      	str	r1, [sp, #0]
 c001922:	f7ff f8b1 	bl	c000a88 <ts_ull_to_bytes>
 c001926:	b002      	add	sp, #8
 c001928:	bd70      	pop	{r4, r5, r6, pc}
 c00192a:	2104      	movs	r1, #4
 c00192c:	f104 002d 	add.w	r0, r4, #45	@ 0x2d
 c001930:	9100      	str	r1, [sp, #0]
 c001932:	f7ff f8a9 	bl	c000a88 <ts_ull_to_bytes>
 c001936:	e9d4 2316 	ldrd	r2, r3, [r4, #88]	@ 0x58
 c00193a:	6821      	ldr	r1, [r4, #0]
 c00193c:	7989      	ldrb	r1, [r1, #6]
 c00193e:	2900      	cmp	r1, #0
 c001940:	d1c4      	bne.n	c0018cc <ts_set_wots_header_adr+0x1c>
 c001942:	210c      	movs	r1, #12
 c001944:	f104 0031 	add.w	r0, r4, #49	@ 0x31
 c001948:	9100      	str	r1, [sp, #0]
 c00194a:	f7ff f89d 	bl	c000a88 <ts_ull_to_bytes>
 c00194e:	6823      	ldr	r3, [r4, #0]
 c001950:	799b      	ldrb	r3, [r3, #6]
 c001952:	2b00      	cmp	r3, #0
 c001954:	d1c4      	bne.n	c0018e0 <ts_set_wots_header_adr+0x30>
 c001956:	2604      	movs	r6, #4
 c001958:	2300      	movs	r3, #0
 c00195a:	2201      	movs	r2, #1
 c00195c:	f104 003d 	add.w	r0, r4, #61	@ 0x3d
 c001960:	9600      	str	r6, [sp, #0]
 c001962:	f7ff f891 	bl	c000a88 <ts_ull_to_bytes>
 c001966:	6823      	ldr	r3, [r4, #0]
 c001968:	799b      	ldrb	r3, [r3, #6]
 c00196a:	2b00      	cmp	r3, #0
 c00196c:	d1bb      	bne.n	c0018e6 <ts_set_wots_header_adr+0x36>
 c00196e:	462a      	mov	r2, r5
 c001970:	9600      	str	r6, [sp, #0]
 c001972:	f104 0041 	add.w	r0, r4, #65	@ 0x41
 c001976:	f7ff f887 	bl	c000a88 <ts_ull_to_bytes>
 c00197a:	e7bc      	b.n	c0018f6 <ts_set_wots_header_adr+0x46>
 c00197c:	2300      	movs	r3, #0
 c00197e:	f104 0049 	add.w	r0, r4, #73	@ 0x49
 c001982:	9100      	str	r1, [sp, #0]
 c001984:	f7ff f880 	bl	c000a88 <ts_ull_to_bytes>
 c001988:	b002      	add	sp, #8
 c00198a:	bd70      	pop	{r4, r5, r6, pc}
 c00198c:	2300      	movs	r3, #0
 c00198e:	f104 0045 	add.w	r0, r4, #69	@ 0x45
 c001992:	9100      	str	r1, [sp, #0]
 c001994:	f7ff f878 	bl	c000a88 <ts_ull_to_bytes>
 c001998:	e7b9      	b.n	c00190e <ts_set_wots_header_adr+0x5e>
 c00199a:	bf00      	nop

0c00199c <ts_convert_message_hash_to_hypertree_position>:
 c00199c:	e92d 47f0 	stmdb	sp!, {r4, r5, r6, r7, r8, r9, sl, lr}
 c0019a0:	6806      	ldr	r6, [r0, #0]
 c0019a2:	4681      	mov	r9, r0
 c0019a4:	7873      	ldrb	r3, [r6, #1]
 c0019a6:	460d      	mov	r5, r1
 c0019a8:	2b00      	cmp	r3, #0
 c0019aa:	f000 80a7 	beq.w	c001afc <ts_convert_message_hash_to_hypertree_position+0x160>
 c0019ae:	f04f 0c00 	mov.w	ip, #0
 c0019b2:	4667      	mov	r7, ip
 c0019b4:	46e6      	mov	lr, ip
 c0019b6:	78b0      	ldrb	r0, [r6, #2]
 c0019b8:	f209 287e 	addw	r8, r9, #638	@ 0x27e
 c0019bc:	2800      	cmp	r0, #0
 c0019be:	f000 8087 	beq.w	c001ad0 <ts_convert_message_hash_to_hypertree_position+0x134>
 c0019c2:	2200      	movs	r2, #0
 c0019c4:	4611      	mov	r1, r2
 c0019c6:	e01d      	b.n	c001a04 <ts_convert_message_hash_to_hypertree_position+0x68>
 c0019c8:	f10c 0c01 	add.w	ip, ip, #1
 c0019cc:	f815 300c 	ldrb.w	r3, [r5, ip]
 c0019d0:	3201      	adds	r2, #1
 c0019d2:	0058      	lsls	r0, r3, #1
 c0019d4:	f805 000c 	strb.w	r0, [r5, ip]
 c0019d8:	78b0      	ldrb	r0, [r6, #2]
 c0019da:	09db      	lsrs	r3, r3, #7
 c0019dc:	4290      	cmp	r0, r2
 c0019de:	f04f 0e01 	mov.w	lr, #1
 c0019e2:	eb05 040c 	add.w	r4, r5, ip
 c0019e6:	eb03 0141 	add.w	r1, r3, r1, lsl #1
 c0019ea:	dd11      	ble.n	c001a10 <ts_convert_message_hash_to_hypertree_position+0x74>
 c0019ec:	7823      	ldrb	r3, [r4, #0]
 c0019ee:	3201      	adds	r2, #1
 c0019f0:	0058      	lsls	r0, r3, #1
 c0019f2:	7020      	strb	r0, [r4, #0]
 c0019f4:	78b0      	ldrb	r0, [r6, #2]
 c0019f6:	09db      	lsrs	r3, r3, #7
 c0019f8:	4282      	cmp	r2, r0
 c0019fa:	f10e 0e01 	add.w	lr, lr, #1
 c0019fe:	eb03 0141 	add.w	r1, r3, r1, lsl #1
 c001a02:	da05      	bge.n	c001a10 <ts_convert_message_hash_to_hypertree_position+0x74>
 c001a04:	f1be 0f08 	cmp.w	lr, #8
 c001a08:	d0de      	beq.n	c0019c8 <ts_convert_message_hash_to_hypertree_position+0x2c>
 c001a0a:	eb05 040c 	add.w	r4, r5, ip
 c001a0e:	e7ed      	b.n	c0019ec <ts_convert_message_hash_to_hypertree_position+0x50>
 c001a10:	7873      	ldrb	r3, [r6, #1]
 c001a12:	3701      	adds	r7, #1
 c001a14:	42bb      	cmp	r3, r7
 c001a16:	f828 1f02 	strh.w	r1, [r8, #2]!
 c001a1a:	dccf      	bgt.n	c0019bc <ts_convert_message_hash_to_hypertree_position+0x20>
 c001a1c:	f04f 3eff 	mov.w	lr, #4294967295
 c001a20:	7971      	ldrb	r1, [r6, #5]
 c001a22:	78f6      	ldrb	r6, [r6, #3]
 c001a24:	1a76      	subs	r6, r6, r1
 c001a26:	f1c6 0040 	rsb	r0, r6, #64	@ 0x40
 c001a2a:	f1a6 0220 	sub.w	r2, r6, #32
 c001a2e:	fa0e f202 	lsl.w	r2, lr, r2
 c001a32:	fa2e f800 	lsr.w	r8, lr, r0
 c001a36:	f1c6 0320 	rsb	r3, r6, #32
 c001a3a:	fa2e f303 	lsr.w	r3, lr, r3
 c001a3e:	ea48 0802 	orr.w	r8, r8, r2
 c001a42:	ea48 0803 	orr.w	r8, r8, r3
 c001a46:	fa2e fe00 	lsr.w	lr, lr, r0
 c001a4a:	2e00      	cmp	r6, #0
 c001a4c:	d058      	beq.n	c001b00 <ts_convert_message_hash_to_hypertree_position+0x164>
 c001a4e:	2000      	movs	r0, #0
 c001a50:	4604      	mov	r4, r0
 c001a52:	4603      	mov	r3, r0
 c001a54:	44ac      	add	ip, r5
 c001a56:	4667      	mov	r7, ip
 c001a58:	f81c 2f01 	ldrb.w	r2, [ip, #1]!
 c001a5c:	021b      	lsls	r3, r3, #8
 c001a5e:	ea4f 2a04 	mov.w	sl, r4, lsl #8
 c001a62:	ea43 6314 	orr.w	r3, r3, r4, lsr #24
 c001a66:	3008      	adds	r0, #8
 c001a68:	eb12 040a 	adds.w	r4, r2, sl
 c001a6c:	f143 0300 	adc.w	r3, r3, #0
 c001a70:	4286      	cmp	r6, r0
 c001a72:	d8f0      	bhi.n	c001a56 <ts_convert_message_hash_to_hypertree_position+0xba>
 c001a74:	f1c5 0c01 	rsb	ip, r5, #1
 c001a78:	ea04 0608 	and.w	r6, r4, r8
 c001a7c:	ea03 030e 	and.w	r3, r3, lr
 c001a80:	44bc      	add	ip, r7
 c001a82:	f04f 32ff 	mov.w	r2, #4294967295
 c001a86:	f1c1 0040 	rsb	r0, r1, #64	@ 0x40
 c001a8a:	f1a1 0420 	sub.w	r4, r1, #32
 c001a8e:	e9c9 6316 	strd	r6, r3, [r9, #88]	@ 0x58
 c001a92:	fa22 f000 	lsr.w	r0, r2, r0
 c001a96:	f1c1 0320 	rsb	r3, r1, #32
 c001a9a:	fa02 f404 	lsl.w	r4, r2, r4
 c001a9e:	4320      	orrs	r0, r4
 c001aa0:	fa22 f303 	lsr.w	r3, r2, r3
 c001aa4:	4318      	orrs	r0, r3
 c001aa6:	b179      	cbz	r1, c001ac8 <ts_convert_message_hash_to_hypertree_position+0x12c>
 c001aa8:	2300      	movs	r3, #0
 c001aaa:	188a      	adds	r2, r1, r2
 c001aac:	1c69      	adds	r1, r5, #1
 c001aae:	eb01 01d2 	add.w	r1, r1, r2, lsr #3
 c001ab2:	4465      	add	r5, ip
 c001ab4:	4461      	add	r1, ip
 c001ab6:	f815 2f01 	ldrb.w	r2, [r5, #1]!
 c001aba:	42a9      	cmp	r1, r5
 c001abc:	eb02 2303 	add.w	r3, r2, r3, lsl #8
 c001ac0:	d1f9      	bne.n	c001ab6 <ts_convert_message_hash_to_hypertree_position+0x11a>
 c001ac2:	ea03 0100 	and.w	r1, r3, r0
 c001ac6:	b289      	uxth	r1, r1
 c001ac8:	f8a9 1050 	strh.w	r1, [r9, #80]	@ 0x50
 c001acc:	e8bd 87f0 	ldmia.w	sp!, {r4, r5, r6, r7, r8, r9, sl, pc}
 c001ad0:	1c7a      	adds	r2, r7, #1
 c001ad2:	4293      	cmp	r3, r2
 c001ad4:	f8a8 0002 	strh.w	r0, [r8, #2]
 c001ad8:	dda0      	ble.n	c001a1c <ts_convert_message_hash_to_hypertree_position+0x80>
 c001ada:	f107 4100 	add.w	r1, r7, #2147483648	@ 0x80000000
 c001ade:	f501 71a0 	add.w	r1, r1, #320	@ 0x140
 c001ae2:	eb09 0141 	add.w	r1, r9, r1, lsl #1
 c001ae6:	3201      	adds	r2, #1
 c001ae8:	4293      	cmp	r3, r2
 c001aea:	f821 0f02 	strh.w	r0, [r1, #2]!
 c001aee:	dd95      	ble.n	c001a1c <ts_convert_message_hash_to_hypertree_position+0x80>
 c001af0:	3201      	adds	r2, #1
 c001af2:	4293      	cmp	r3, r2
 c001af4:	f821 0f02 	strh.w	r0, [r1, #2]!
 c001af8:	dcf5      	bgt.n	c001ae6 <ts_convert_message_hash_to_hypertree_position+0x14a>
 c001afa:	e78f      	b.n	c001a1c <ts_convert_message_hash_to_hypertree_position+0x80>
 c001afc:	469c      	mov	ip, r3
 c001afe:	e78d      	b.n	c001a1c <ts_convert_message_hash_to_hypertree_position+0x80>
 c001b00:	4633      	mov	r3, r6
 c001b02:	e7be      	b.n	c001a82 <ts_convert_message_hash_to_hypertree_position+0xe6>

0c001b04 <ts_init_sign>:
 c001b04:	e92d 4ff0 	stmdb	sp!, {r4, r5, r6, r7, r8, r9, sl, fp, lr}
 c001b08:	f893 b000 	ldrb.w	fp, [r3]
 c001b0c:	b093      	sub	sp, #76	@ 0x4c
 c001b0e:	461d      	mov	r5, r3
 c001b10:	e9dd 691c 	ldrd	r6, r9, [sp, #112]	@ 0x70
 c001b14:	6003      	str	r3, [r0, #0]
 c001b16:	6a5b      	ldr	r3, [r3, #36]	@ 0x24
 c001b18:	eb06 064b 	add.w	r6, r6, fp, lsl #1
 c001b1c:	4604      	mov	r4, r0
 c001b1e:	4690      	mov	r8, r2
 c001b20:	9103      	str	r1, [sp, #12]
 c001b22:	6046      	str	r6, [r0, #4]
 c001b24:	b103      	cbz	r3, c001b28 <ts_init_sign+0x24>
 c001b26:	4798      	blx	r3
 c001b28:	f104 0a09 	add.w	sl, r4, #9
 c001b2c:	ae05      	add	r6, sp, #20
 c001b2e:	f1b9 0f00 	cmp.w	r9, #0
 c001b32:	d003      	beq.n	c001b3c <ts_init_sign+0x38>
 c001b34:	4659      	mov	r1, fp
 c001b36:	4630      	mov	r0, r6
 c001b38:	47c8      	blx	r9
 c001b3a:	b920      	cbnz	r0, c001b46 <ts_init_sign+0x42>
 c001b3c:	465a      	mov	r2, fp
 c001b3e:	4630      	mov	r0, r6
 c001b40:	6861      	ldr	r1, [r4, #4]
 c001b42:	f004 fb29 	bl	c006198 <memcpy>
 c001b46:	9400      	str	r4, [sp, #0]
 c001b48:	4643      	mov	r3, r8
 c001b4a:	4631      	mov	r1, r6
 c001b4c:	4650      	mov	r0, sl
 c001b4e:	9a03      	ldr	r2, [sp, #12]
 c001b50:	68af      	ldr	r7, [r5, #8]
 c001b52:	47b8      	blx	r7
 c001b54:	f8cd 8000 	str.w	r8, [sp]
 c001b58:	9401      	str	r4, [sp, #4]
 c001b5a:	4652      	mov	r2, sl
 c001b5c:	9b03      	ldr	r3, [sp, #12]
 c001b5e:	4630      	mov	r0, r6
 c001b60:	2131      	movs	r1, #49	@ 0x31
 c001b62:	68ef      	ldr	r7, [r5, #12]
 c001b64:	47b8      	blx	r7
 c001b66:	4631      	mov	r1, r6
 c001b68:	4620      	mov	r0, r4
 c001b6a:	f7ff ff17 	bl	c00199c <ts_convert_message_hash_to_hypertree_position>
 c001b6e:	2201      	movs	r2, #1
 c001b70:	2300      	movs	r3, #0
 c001b72:	4620      	mov	r0, r4
 c001b74:	7222      	strb	r2, [r4, #8]
 c001b76:	f8c4 3029 	str.w	r3, [r4, #41]	@ 0x29
 c001b7a:	f7ff fe23 	bl	c0017c4 <ts_set_fors_root_adr>
 c001b7e:	4621      	mov	r1, r4
 c001b80:	69ab      	ldr	r3, [r5, #24]
 c001b82:	f104 0080 	add.w	r0, r4, #128	@ 0x80
 c001b86:	4798      	blx	r3
 c001b88:	b013      	add	sp, #76	@ 0x4c
 c001b8a:	e8bd 8ff0 	ldmia.w	sp!, {r4, r5, r6, r7, r8, r9, sl, fp, pc}
 c001b8e:	bf00      	nop

0c001b90 <ts_set_up_wots_signature>:
 c001b90:	2203      	movs	r2, #3
 c001b92:	e92d 41f0 	stmdb	sp!, {r4, r5, r6, r7, r8, lr}
 c001b96:	2300      	movs	r3, #0
 c001b98:	4604      	mov	r4, r0
 c001b9a:	7202      	strb	r2, [r0, #8]
 c001b9c:	f880 3280 	strb.w	r3, [r0, #640]	@ 0x280
 c001ba0:	f854 3b60 	ldr.w	r3, [r4], #96
 c001ba4:	f200 2781 	addw	r7, r0, #641	@ 0x281
 c001ba8:	781b      	ldrb	r3, [r3, #0]
 c001baa:	ebc3 1e03 	rsb	lr, r3, r3, lsl #4
 c001bae:	ea4f 0e4e 	mov.w	lr, lr, lsl #1
 c001bb2:	b1bb      	cbz	r3, c001be4 <ts_set_up_wots_signature+0x54>
 c001bb4:	4602      	mov	r2, r0
 c001bb6:	b21e      	sxth	r6, r3
 c001bb8:	ea4f 0846 	mov.w	r8, r6, lsl #1
 c001bbc:	eb00 0646 	add.w	r6, r0, r6, lsl #1
 c001bc0:	f814 3b01 	ldrb.w	r3, [r4], #1
 c001bc4:	3202      	adds	r2, #2
 c001bc6:	ea4f 1c13 	mov.w	ip, r3, lsr #4
 c001bca:	f003 030f 	and.w	r3, r3, #15
 c001bce:	eb0c 0503 	add.w	r5, ip, r3
 c001bd2:	42b2      	cmp	r2, r6
 c001bd4:	f882 c27f 	strb.w	ip, [r2, #639]	@ 0x27f
 c001bd8:	f882 3280 	strb.w	r3, [r2, #640]	@ 0x280
 c001bdc:	ebae 0e05 	sub.w	lr, lr, r5
 c001be0:	d1ee      	bne.n	c001bc0 <ts_set_up_wots_signature+0x30>
 c001be2:	4447      	add	r7, r8
 c001be4:	f3ce 2303 	ubfx	r3, lr, #8, #4
 c001be8:	703b      	strb	r3, [r7, #0]
 c001bea:	f3ce 1303 	ubfx	r3, lr, #4, #4
 c001bee:	707b      	strb	r3, [r7, #1]
 c001bf0:	2300      	movs	r3, #0
 c001bf2:	f00e 0e0f 	and.w	lr, lr, #15
 c001bf6:	f887 e002 	strb.w	lr, [r7, #2]
 c001bfa:	f8a0 104e 	strh.w	r1, [r0, #78]	@ 0x4e
 c001bfe:	f8a0 3050 	strh.w	r3, [r0, #80]	@ 0x50
 c001c02:	e8bd 81f0 	ldmia.w	sp!, {r4, r5, r6, r7, r8, pc}
 c001c06:	bf00      	nop

0c001c08 <ts_wots_leaf>:
 c001c08:	e92d 4ff0 	stmdb	sp!, {r4, r5, r6, r7, r8, r9, sl, fp, lr}
 c001c0c:	468a      	mov	sl, r1
 c001c0e:	4614      	mov	r4, r2
 c001c10:	f04f 0800 	mov.w	r8, #0
 c001c14:	b087      	sub	sp, #28
 c001c16:	4611      	mov	r1, r2
 c001c18:	4683      	mov	fp, r0
 c001c1a:	4650      	mov	r0, sl
 c001c1c:	f7ff fe48 	bl	c0018b0 <ts_set_wots_header_adr>
 c001c20:	4620      	mov	r0, r4
 c001c22:	46c1      	mov	r9, r8
 c001c24:	f104 032e 	add.w	r3, r4, #46	@ 0x2e
 c001c28:	9303      	str	r3, [sp, #12]
 c001c2a:	f850 3b80 	ldr.w	r3, [r0], #128
 c001c2e:	4621      	mov	r1, r4
 c001c30:	699b      	ldr	r3, [r3, #24]
 c001c32:	9004      	str	r0, [sp, #16]
 c001c34:	4798      	blx	r3
 c001c36:	6825      	ldr	r5, [r4, #0]
 c001c38:	f504 7720 	add.w	r7, r4, #640	@ 0x280
 c001c3c:	f8cd b014 	str.w	fp, [sp, #20]
 c001c40:	79ab      	ldrb	r3, [r5, #6]
 c001c42:	f894 202a 	ldrb.w	r2, [r4, #42]	@ 0x2a
 c001c46:	2b00      	cmp	r3, #0
 c001c48:	f000 80f9 	beq.w	c001e3e <ts_wots_leaf+0x236>
 c001c4c:	f884 202d 	strb.w	r2, [r4, #45]	@ 0x2d
 c001c50:	e9d4 2316 	ldrd	r2, r3, [r4, #88]	@ 0x58
 c001c54:	2108      	movs	r1, #8
 c001c56:	9803      	ldr	r0, [sp, #12]
 c001c58:	9100      	str	r1, [sp, #0]
 c001c5a:	f7fe ff15 	bl	c000a88 <ts_ull_to_bytes>
 c001c5e:	6823      	ldr	r3, [r4, #0]
 c001c60:	799b      	ldrb	r3, [r3, #6]
 c001c62:	2b00      	cmp	r3, #0
 c001c64:	f000 80d7 	beq.w	c001e16 <ts_wots_leaf+0x20e>
 c001c68:	2305      	movs	r3, #5
 c001c6a:	f884 3036 	strb.w	r3, [r4, #54]	@ 0x36
 c001c6e:	2104      	movs	r1, #4
 c001c70:	4652      	mov	r2, sl
 c001c72:	2300      	movs	r3, #0
 c001c74:	f104 0037 	add.w	r0, r4, #55	@ 0x37
 c001c78:	9100      	str	r1, [sp, #0]
 c001c7a:	f7fe ff05 	bl	c000a88 <ts_ull_to_bytes>
 c001c7e:	6823      	ldr	r3, [r4, #0]
 c001c80:	2104      	movs	r1, #4
 c001c82:	799b      	ldrb	r3, [r3, #6]
 c001c84:	4642      	mov	r2, r8
 c001c86:	2b00      	cmp	r3, #0
 c001c88:	f000 80be 	beq.w	c001e08 <ts_wots_leaf+0x200>
 c001c8c:	464b      	mov	r3, r9
 c001c8e:	f104 003b 	add.w	r0, r4, #59	@ 0x3b
 c001c92:	9100      	str	r1, [sp, #0]
 c001c94:	f7fe fef8 	bl	c000a88 <ts_ull_to_bytes>
 c001c98:	6823      	ldr	r3, [r4, #0]
 c001c9a:	2104      	movs	r1, #4
 c001c9c:	799b      	ldrb	r3, [r3, #6]
 c001c9e:	2200      	movs	r2, #0
 c001ca0:	2b00      	cmp	r3, #0
 c001ca2:	f000 80aa 	beq.w	c001dfa <ts_wots_leaf+0x1f2>
 c001ca6:	2300      	movs	r3, #0
 c001ca8:	f104 003f 	add.w	r0, r4, #63	@ 0x3f
 c001cac:	9100      	str	r1, [sp, #0]
 c001cae:	f7fe feeb 	bl	c000a88 <ts_ull_to_bytes>
 c001cb2:	2500      	movs	r5, #0
 c001cb4:	6823      	ldr	r3, [r4, #0]
 c001cb6:	4621      	mov	r1, r4
 c001cb8:	691b      	ldr	r3, [r3, #16]
 c001cba:	4638      	mov	r0, r7
 c001cbc:	4798      	blx	r3
 c001cbe:	f104 032d 	add.w	r3, r4, #45	@ 0x2d
 c001cc2:	462e      	mov	r6, r5
 c001cc4:	9302      	str	r3, [sp, #8]
 c001cc6:	e020      	b.n	c001d0a <ts_wots_leaf+0x102>
 c001cc8:	2304      	movs	r3, #4
 c001cca:	4642      	mov	r2, r8
 c001ccc:	9300      	str	r3, [sp, #0]
 c001cce:	f104 003b 	add.w	r0, r4, #59	@ 0x3b
 c001cd2:	464b      	mov	r3, r9
 c001cd4:	f7fe fed8 	bl	c000a88 <ts_ull_to_bytes>
 c001cd8:	6823      	ldr	r3, [r4, #0]
 c001cda:	799b      	ldrb	r3, [r3, #6]
 c001cdc:	2b00      	cmp	r3, #0
 c001cde:	d042      	beq.n	c001d66 <ts_wots_leaf+0x15e>
 c001ce0:	2304      	movs	r3, #4
 c001ce2:	462a      	mov	r2, r5
 c001ce4:	9300      	str	r3, [sp, #0]
 c001ce6:	4633      	mov	r3, r6
 c001ce8:	f104 003f 	add.w	r0, r4, #63	@ 0x3f
 c001cec:	f7fe fecc 	bl	c000a88 <ts_ull_to_bytes>
 c001cf0:	6823      	ldr	r3, [r4, #0]
 c001cf2:	4622      	mov	r2, r4
 c001cf4:	695b      	ldr	r3, [r3, #20]
 c001cf6:	4639      	mov	r1, r7
 c001cf8:	4638      	mov	r0, r7
 c001cfa:	4798      	blx	r3
 c001cfc:	3501      	adds	r5, #1
 c001cfe:	f146 0600 	adc.w	r6, r6, #0
 c001d02:	f1a5 030f 	sub.w	r3, r5, #15
 c001d06:	4333      	orrs	r3, r6
 c001d08:	d05c      	beq.n	c001dc4 <ts_wots_leaf+0x1bc>
 c001d0a:	6823      	ldr	r3, [r4, #0]
 c001d0c:	f894 202a 	ldrb.w	r2, [r4, #42]	@ 0x2a
 c001d10:	799b      	ldrb	r3, [r3, #6]
 c001d12:	2b00      	cmp	r3, #0
 c001d14:	d044      	beq.n	c001da0 <ts_wots_leaf+0x198>
 c001d16:	f884 202d 	strb.w	r2, [r4, #45]	@ 0x2d
 c001d1a:	e9d4 2316 	ldrd	r2, r3, [r4, #88]	@ 0x58
 c001d1e:	2108      	movs	r1, #8
 c001d20:	9803      	ldr	r0, [sp, #12]
 c001d22:	9100      	str	r1, [sp, #0]
 c001d24:	f7fe feb0 	bl	c000a88 <ts_ull_to_bytes>
 c001d28:	6823      	ldr	r3, [r4, #0]
 c001d2a:	799b      	ldrb	r3, [r3, #6]
 c001d2c:	b313      	cbz	r3, c001d74 <ts_wots_leaf+0x16c>
 c001d2e:	f04f 0300 	mov.w	r3, #0
 c001d32:	f884 3036 	strb.w	r3, [r4, #54]	@ 0x36
 c001d36:	2304      	movs	r3, #4
 c001d38:	4652      	mov	r2, sl
 c001d3a:	9300      	str	r3, [sp, #0]
 c001d3c:	f104 0037 	add.w	r0, r4, #55	@ 0x37
 c001d40:	2300      	movs	r3, #0
 c001d42:	f7fe fea1 	bl	c000a88 <ts_ull_to_bytes>
 c001d46:	6823      	ldr	r3, [r4, #0]
 c001d48:	799b      	ldrb	r3, [r3, #6]
 c001d4a:	2b00      	cmp	r3, #0
 c001d4c:	d1bc      	bne.n	c001cc8 <ts_wots_leaf+0xc0>
 c001d4e:	2304      	movs	r3, #4
 c001d50:	4642      	mov	r2, r8
 c001d52:	9300      	str	r3, [sp, #0]
 c001d54:	f104 0045 	add.w	r0, r4, #69	@ 0x45
 c001d58:	464b      	mov	r3, r9
 c001d5a:	f7fe fe95 	bl	c000a88 <ts_ull_to_bytes>
 c001d5e:	6823      	ldr	r3, [r4, #0]
 c001d60:	799b      	ldrb	r3, [r3, #6]
 c001d62:	2b00      	cmp	r3, #0
 c001d64:	d1bc      	bne.n	c001ce0 <ts_wots_leaf+0xd8>
 c001d66:	2304      	movs	r3, #4
 c001d68:	462a      	mov	r2, r5
 c001d6a:	9300      	str	r3, [sp, #0]
 c001d6c:	f104 0049 	add.w	r0, r4, #73	@ 0x49
 c001d70:	4633      	mov	r3, r6
 c001d72:	e7bb      	b.n	c001cec <ts_wots_leaf+0xe4>
 c001d74:	f04f 0b04 	mov.w	fp, #4
 c001d78:	2300      	movs	r3, #0
 c001d7a:	2200      	movs	r2, #0
 c001d7c:	f104 003d 	add.w	r0, r4, #61	@ 0x3d
 c001d80:	f8cd b000 	str.w	fp, [sp]
 c001d84:	f7fe fe80 	bl	c000a88 <ts_ull_to_bytes>
 c001d88:	6823      	ldr	r3, [r4, #0]
 c001d8a:	799b      	ldrb	r3, [r3, #6]
 c001d8c:	2b00      	cmp	r3, #0
 c001d8e:	d1d2      	bne.n	c001d36 <ts_wots_leaf+0x12e>
 c001d90:	4652      	mov	r2, sl
 c001d92:	f8cd b000 	str.w	fp, [sp]
 c001d96:	f104 0041 	add.w	r0, r4, #65	@ 0x41
 c001d9a:	f7fe fe75 	bl	c000a88 <ts_ull_to_bytes>
 c001d9e:	e7d2      	b.n	c001d46 <ts_wots_leaf+0x13e>
 c001da0:	2104      	movs	r1, #4
 c001da2:	9802      	ldr	r0, [sp, #8]
 c001da4:	9100      	str	r1, [sp, #0]
 c001da6:	f7fe fe6f 	bl	c000a88 <ts_ull_to_bytes>
 c001daa:	6823      	ldr	r3, [r4, #0]
 c001dac:	7999      	ldrb	r1, [r3, #6]
 c001dae:	e9d4 2316 	ldrd	r2, r3, [r4, #88]	@ 0x58
 c001db2:	2900      	cmp	r1, #0
 c001db4:	d1b3      	bne.n	c001d1e <ts_wots_leaf+0x116>
 c001db6:	210c      	movs	r1, #12
 c001db8:	f104 0031 	add.w	r0, r4, #49	@ 0x31
 c001dbc:	9100      	str	r1, [sp, #0]
 c001dbe:	f7fe fe63 	bl	c000a88 <ts_ull_to_bytes>
 c001dc2:	e7b1      	b.n	c001d28 <ts_wots_leaf+0x120>
 c001dc4:	6823      	ldr	r3, [r4, #0]
 c001dc6:	4622      	mov	r2, r4
 c001dc8:	69db      	ldr	r3, [r3, #28]
 c001dca:	4639      	mov	r1, r7
 c001dcc:	9804      	ldr	r0, [sp, #16]
 c001dce:	4798      	blx	r3
 c001dd0:	6825      	ldr	r5, [r4, #0]
 c001dd2:	f118 0801 	adds.w	r8, r8, #1
 c001dd6:	782b      	ldrb	r3, [r5, #0]
 c001dd8:	f149 0900 	adc.w	r9, r9, #0
 c001ddc:	3301      	adds	r3, #1
 c001dde:	ebb8 0f43 	cmp.w	r8, r3, lsl #1
 c001de2:	f77f af2d 	ble.w	c001c40 <ts_wots_leaf+0x38>
 c001de6:	f8dd b014 	ldr.w	fp, [sp, #20]
 c001dea:	4622      	mov	r2, r4
 c001dec:	4658      	mov	r0, fp
 c001dee:	9904      	ldr	r1, [sp, #16]
 c001df0:	6a2b      	ldr	r3, [r5, #32]
 c001df2:	b007      	add	sp, #28
 c001df4:	e8bd 4ff0 	ldmia.w	sp!, {r4, r5, r6, r7, r8, r9, sl, fp, lr}
 c001df8:	4718      	bx	r3
 c001dfa:	2300      	movs	r3, #0
 c001dfc:	f104 0049 	add.w	r0, r4, #73	@ 0x49
 c001e00:	9100      	str	r1, [sp, #0]
 c001e02:	f7fe fe41 	bl	c000a88 <ts_ull_to_bytes>
 c001e06:	e754      	b.n	c001cb2 <ts_wots_leaf+0xaa>
 c001e08:	464b      	mov	r3, r9
 c001e0a:	f104 0045 	add.w	r0, r4, #69	@ 0x45
 c001e0e:	9100      	str	r1, [sp, #0]
 c001e10:	f7fe fe3a 	bl	c000a88 <ts_ull_to_bytes>
 c001e14:	e740      	b.n	c001c98 <ts_wots_leaf+0x90>
 c001e16:	2504      	movs	r5, #4
 c001e18:	2300      	movs	r3, #0
 c001e1a:	2205      	movs	r2, #5
 c001e1c:	f104 003d 	add.w	r0, r4, #61	@ 0x3d
 c001e20:	9500      	str	r5, [sp, #0]
 c001e22:	f7fe fe31 	bl	c000a88 <ts_ull_to_bytes>
 c001e26:	6823      	ldr	r3, [r4, #0]
 c001e28:	799b      	ldrb	r3, [r3, #6]
 c001e2a:	2b00      	cmp	r3, #0
 c001e2c:	f47f af1f 	bne.w	c001c6e <ts_wots_leaf+0x66>
 c001e30:	4652      	mov	r2, sl
 c001e32:	9500      	str	r5, [sp, #0]
 c001e34:	f104 0041 	add.w	r0, r4, #65	@ 0x41
 c001e38:	f7fe fe26 	bl	c000a88 <ts_ull_to_bytes>
 c001e3c:	e71f      	b.n	c001c7e <ts_wots_leaf+0x76>
 c001e3e:	2104      	movs	r1, #4
 c001e40:	f104 002d 	add.w	r0, r4, #45	@ 0x2d
 c001e44:	9100      	str	r1, [sp, #0]
 c001e46:	f7fe fe1f 	bl	c000a88 <ts_ull_to_bytes>
 c001e4a:	e9d4 2316 	ldrd	r2, r3, [r4, #88]	@ 0x58
 c001e4e:	6821      	ldr	r1, [r4, #0]
 c001e50:	7989      	ldrb	r1, [r1, #6]
 c001e52:	2900      	cmp	r1, #0
 c001e54:	f47f aefe 	bne.w	c001c54 <ts_wots_leaf+0x4c>
 c001e58:	210c      	movs	r1, #12
 c001e5a:	f104 0031 	add.w	r0, r4, #49	@ 0x31
 c001e5e:	9100      	str	r1, [sp, #0]
 c001e60:	f7fe fe12 	bl	c000a88 <ts_ull_to_bytes>
 c001e64:	e6fb      	b.n	c001c5e <ts_wots_leaf+0x56>
 c001e66:	bf00      	nop

0c001e68 <ts_sign>:
 c001e68:	7a13      	ldrb	r3, [r2, #8]
 c001e6a:	3b01      	subs	r3, #1
 c001e6c:	2b04      	cmp	r3, #4
 c001e6e:	f200 82b3 	bhi.w	c0023d8 <ts_sign+0x570>
 c001e72:	e92d 4ff0 	stmdb	sp!, {r4, r5, r6, r7, r8, r9, sl, fp, lr}
 c001e76:	6813      	ldr	r3, [r2, #0]
 c001e78:	b08d      	sub	sp, #52	@ 0x34
 c001e7a:	781b      	ldrb	r3, [r3, #0]
 c001e7c:	4693      	mov	fp, r2
 c001e7e:	460e      	mov	r6, r1
 c001e80:	9306      	str	r3, [sp, #24]
 c001e82:	b321      	cbz	r1, c001ece <ts_sign+0x66>
 c001e84:	4607      	mov	r7, r0
 c001e86:	460d      	mov	r5, r1
 c001e88:	f89b 1029 	ldrb.w	r1, [fp, #41]	@ 0x29
 c001e8c:	9b06      	ldr	r3, [sp, #24]
 c001e8e:	1a5c      	subs	r4, r3, r1
 c001e90:	d10b      	bne.n	c001eaa <ts_sign+0x42>
 c001e92:	f89b 3008 	ldrb.w	r3, [fp, #8]
 c001e96:	3b01      	subs	r3, #1
 c001e98:	2b03      	cmp	r3, #3
 c001e9a:	f200 8371 	bhi.w	c002580 <ts_sign+0x718>
 c001e9e:	e8df f013 	tbh	[pc, r3, lsl #1]
 c001ea2:	024c      	.short	0x024c
 c001ea4:	00c30146 	.word	0x00c30146
 c001ea8:	001a      	.short	0x001a
 c001eaa:	42b4      	cmp	r4, r6
 c001eac:	bf28      	it	cs
 c001eae:	4634      	movcs	r4, r6
 c001eb0:	3109      	adds	r1, #9
 c001eb2:	4638      	mov	r0, r7
 c001eb4:	4622      	mov	r2, r4
 c001eb6:	4459      	add	r1, fp
 c001eb8:	f004 f96e 	bl	c006198 <memcpy>
 c001ebc:	f89b 3029 	ldrb.w	r3, [fp, #41]	@ 0x29
 c001ec0:	1b36      	subs	r6, r6, r4
 c001ec2:	4423      	add	r3, r4
 c001ec4:	4427      	add	r7, r4
 c001ec6:	f88b 3029 	strb.w	r3, [fp, #41]	@ 0x29
 c001eca:	d1dd      	bne.n	c001e88 <ts_sign+0x20>
 c001ecc:	462e      	mov	r6, r5
 c001ece:	4630      	mov	r0, r6
 c001ed0:	b00d      	add	sp, #52	@ 0x34
 c001ed2:	e8bd 8ff0 	ldmia.w	sp!, {r4, r5, r6, r7, r8, r9, sl, fp, pc}
 c001ed6:	2001      	movs	r0, #1
 c001ed8:	f89b 202c 	ldrb.w	r2, [fp, #44]	@ 0x2c
 c001edc:	f8db 1000 	ldr.w	r1, [fp]
 c001ee0:	f8bb 304e 	ldrh.w	r3, [fp, #78]	@ 0x4e
 c001ee4:	f891 a000 	ldrb.w	sl, [r1]
 c001ee8:	1811      	adds	r1, r2, r0
 c001eea:	f88b 102c 	strb.w	r1, [fp, #44]	@ 0x2c
 c001eee:	fa00 f102 	lsl.w	r1, r0, r2
 c001ef2:	404b      	eors	r3, r1
 c001ef4:	9103      	str	r1, [sp, #12]
 c001ef6:	4248      	negs	r0, r1
 c001ef8:	ea00 0103 	and.w	r1, r0, r3
 c001efc:	9b03      	ldr	r3, [sp, #12]
 c001efe:	f50b 7c28 	add.w	ip, fp, #672	@ 0x2a0
 c001f02:	f10b 0809 	add.w	r8, fp, #9
 c001f06:	f50b 74a8 	add.w	r4, fp, #336	@ 0x150
 c001f0a:	2b00      	cmp	r3, #0
 c001f0c:	f000 8266 	beq.w	c0023dc <ts_sign+0x574>
 c001f10:	2300      	movs	r3, #0
 c001f12:	4689      	mov	r9, r1
 c001f14:	e9cd 1708 	strd	r1, r7, [sp, #32]
 c001f18:	9302      	str	r3, [sp, #8]
 c001f1a:	9607      	str	r6, [sp, #28]
 c001f1c:	9205      	str	r2, [sp, #20]
 c001f1e:	950a      	str	r5, [sp, #40]	@ 0x28
 c001f20:	f8cd c010 	str.w	ip, [sp, #16]
 c001f24:	465a      	mov	r2, fp
 c001f26:	4649      	mov	r1, r9
 c001f28:	4640      	mov	r0, r8
 c001f2a:	f7ff fe6d 	bl	c001c08 <ts_wots_leaf>
 c001f2e:	9e02      	ldr	r6, [sp, #8]
 c001f30:	f016 0501 	ands.w	r5, r6, #1
 c001f34:	d028      	beq.n	c001f88 <ts_sign+0x120>
 c001f36:	2500      	movs	r5, #0
 c001f38:	9f04      	ldr	r7, [sp, #16]
 c001f3a:	462a      	mov	r2, r5
 c001f3c:	2302      	movs	r3, #2
 c001f3e:	4649      	mov	r1, r9
 c001f40:	4658      	mov	r0, fp
 c001f42:	f7ff fbc3 	bl	c0016cc <ts_set_merkle_adr>
 c001f46:	f8db 3000 	ldr.w	r3, [fp]
 c001f4a:	4659      	mov	r1, fp
 c001f4c:	4620      	mov	r0, r4
 c001f4e:	699b      	ldr	r3, [r3, #24]
 c001f50:	4798      	blx	r3
 c001f52:	f8db 3000 	ldr.w	r3, [fp]
 c001f56:	4639      	mov	r1, r7
 c001f58:	465a      	mov	r2, fp
 c001f5a:	4620      	mov	r0, r4
 c001f5c:	69db      	ldr	r3, [r3, #28]
 c001f5e:	4798      	blx	r3
 c001f60:	f8db 3000 	ldr.w	r3, [fp]
 c001f64:	465a      	mov	r2, fp
 c001f66:	4641      	mov	r1, r8
 c001f68:	4620      	mov	r0, r4
 c001f6a:	69db      	ldr	r3, [r3, #28]
 c001f6c:	4798      	blx	r3
 c001f6e:	f8db 3000 	ldr.w	r3, [fp]
 c001f72:	465a      	mov	r2, fp
 c001f74:	6a1b      	ldr	r3, [r3, #32]
 c001f76:	4621      	mov	r1, r4
 c001f78:	4640      	mov	r0, r8
 c001f7a:	0876      	lsrs	r6, r6, #1
 c001f7c:	4798      	blx	r3
 c001f7e:	07f3      	lsls	r3, r6, #31
 c001f80:	f105 0501 	add.w	r5, r5, #1
 c001f84:	4457      	add	r7, sl
 c001f86:	d4d8      	bmi.n	c001f3a <ts_sign+0xd2>
 c001f88:	9b05      	ldr	r3, [sp, #20]
 c001f8a:	429d      	cmp	r5, r3
 c001f8c:	f0c0 8214 	bcc.w	c0023b8 <ts_sign+0x550>
 c001f90:	9b02      	ldr	r3, [sp, #8]
 c001f92:	9a03      	ldr	r2, [sp, #12]
 c001f94:	3301      	adds	r3, #1
 c001f96:	429a      	cmp	r2, r3
 c001f98:	9302      	str	r3, [sp, #8]
 c001f9a:	f109 0901 	add.w	r9, r9, #1
 c001f9e:	d1c1      	bne.n	c001f24 <ts_sign+0xbc>
 c001fa0:	e9dd 1708 	ldrd	r1, r7, [sp, #32]
 c001fa4:	2300      	movs	r3, #0
 c001fa6:	9a05      	ldr	r2, [sp, #20]
 c001fa8:	4658      	mov	r0, fp
 c001faa:	f88b 3029 	strb.w	r3, [fp, #41]	@ 0x29
 c001fae:	2302      	movs	r3, #2
 c001fb0:	9e07      	ldr	r6, [sp, #28]
 c001fb2:	9d0a      	ldr	r5, [sp, #40]	@ 0x28
 c001fb4:	f7ff fb8a 	bl	c0016cc <ts_set_merkle_adr>
 c001fb8:	f8db 3000 	ldr.w	r3, [fp]
 c001fbc:	4659      	mov	r1, fp
 c001fbe:	699b      	ldr	r3, [r3, #24]
 c001fc0:	4620      	mov	r0, r4
 c001fc2:	4798      	blx	r3
 c001fc4:	f8bb 304e 	ldrh.w	r3, [fp, #78]	@ 0x4e
 c001fc8:	9a03      	ldr	r2, [sp, #12]
 c001fca:	4213      	tst	r3, r2
 c001fcc:	f000 8212 	beq.w	c0023f4 <ts_sign+0x58c>
 c001fd0:	46d9      	mov	r9, fp
 c001fd2:	f859 3b60 	ldr.w	r3, [r9], #96
 c001fd6:	4641      	mov	r1, r8
 c001fd8:	465a      	mov	r2, fp
 c001fda:	4620      	mov	r0, r4
 c001fdc:	69db      	ldr	r3, [r3, #28]
 c001fde:	4798      	blx	r3
 c001fe0:	f8db 3000 	ldr.w	r3, [fp]
 c001fe4:	465a      	mov	r2, fp
 c001fe6:	4649      	mov	r1, r9
 c001fe8:	4620      	mov	r0, r4
 c001fea:	69db      	ldr	r3, [r3, #28]
 c001fec:	4798      	blx	r3
 c001fee:	f8db 3000 	ldr.w	r3, [fp]
 c001ff2:	4621      	mov	r1, r4
 c001ff4:	465a      	mov	r2, fp
 c001ff6:	6a1b      	ldr	r3, [r3, #32]
 c001ff8:	4648      	mov	r0, r9
 c001ffa:	4798      	blx	r3
 c001ffc:	f8db 1000 	ldr.w	r1, [fp]
 c002000:	f89b 202c 	ldrb.w	r2, [fp, #44]	@ 0x2c
 c002004:	794b      	ldrb	r3, [r1, #5]
 c002006:	429a      	cmp	r2, r3
 c002008:	f47f af3e 	bne.w	c001e88 <ts_sign+0x20>
 c00200c:	f89b 302a 	ldrb.w	r3, [fp, #42]	@ 0x2a
 c002010:	3301      	adds	r3, #1
 c002012:	b2db      	uxtb	r3, r3
 c002014:	f88b 302a 	strb.w	r3, [fp, #42]	@ 0x2a
 c002018:	7908      	ldrb	r0, [r1, #4]
 c00201a:	4298      	cmp	r0, r3
 c00201c:	f040 8254 	bne.w	c0024c8 <ts_sign+0x660>
 c002020:	2305      	movs	r3, #5
 c002022:	f88b 3008 	strb.w	r3, [fp, #8]
 c002026:	e72f      	b.n	c001e88 <ts_sign+0x20>
 c002028:	f89b 9280 	ldrb.w	r9, [fp, #640]	@ 0x280
 c00202c:	f8db 3000 	ldr.w	r3, [fp]
 c002030:	f109 0201 	add.w	r2, r9, #1
 c002034:	f88b 2280 	strb.w	r2, [fp, #640]	@ 0x280
 c002038:	799b      	ldrb	r3, [r3, #6]
 c00203a:	f8bb 404e 	ldrh.w	r4, [fp, #78]	@ 0x4e
 c00203e:	f89b 202a 	ldrb.w	r2, [fp, #42]	@ 0x2a
 c002042:	f10b 0809 	add.w	r8, fp, #9
 c002046:	2b00      	cmp	r3, #0
 c002048:	f000 8229 	beq.w	c00249e <ts_sign+0x636>
 c00204c:	f88b 202d 	strb.w	r2, [fp, #45]	@ 0x2d
 c002050:	e9db 2316 	ldrd	r2, r3, [fp, #88]	@ 0x58
 c002054:	2108      	movs	r1, #8
 c002056:	f10b 002e 	add.w	r0, fp, #46	@ 0x2e
 c00205a:	9100      	str	r1, [sp, #0]
 c00205c:	f7fe fd14 	bl	c000a88 <ts_ull_to_bytes>
 c002060:	f8db 3000 	ldr.w	r3, [fp]
 c002064:	799b      	ldrb	r3, [r3, #6]
 c002066:	2b00      	cmp	r3, #0
 c002068:	f000 8201 	beq.w	c00246e <ts_sign+0x606>
 c00206c:	2305      	movs	r3, #5
 c00206e:	f88b 3036 	strb.w	r3, [fp, #54]	@ 0x36
 c002072:	2304      	movs	r3, #4
 c002074:	4622      	mov	r2, r4
 c002076:	9300      	str	r3, [sp, #0]
 c002078:	f10b 0037 	add.w	r0, fp, #55	@ 0x37
 c00207c:	2300      	movs	r3, #0
 c00207e:	f7fe fd03 	bl	c000a88 <ts_ull_to_bytes>
 c002082:	f8db 3000 	ldr.w	r3, [fp]
 c002086:	799b      	ldrb	r3, [r3, #6]
 c002088:	2b00      	cmp	r3, #0
 c00208a:	f000 81e8 	beq.w	c00245e <ts_sign+0x5f6>
 c00208e:	2304      	movs	r3, #4
 c002090:	464a      	mov	r2, r9
 c002092:	9300      	str	r3, [sp, #0]
 c002094:	f10b 003b 	add.w	r0, fp, #59	@ 0x3b
 c002098:	2300      	movs	r3, #0
 c00209a:	f7fe fcf5 	bl	c000a88 <ts_ull_to_bytes>
 c00209e:	f8db 3000 	ldr.w	r3, [fp]
 c0020a2:	799b      	ldrb	r3, [r3, #6]
 c0020a4:	2b00      	cmp	r3, #0
 c0020a6:	f000 81d1 	beq.w	c00244c <ts_sign+0x5e4>
 c0020aa:	2304      	movs	r3, #4
 c0020ac:	2200      	movs	r2, #0
 c0020ae:	9300      	str	r3, [sp, #0]
 c0020b0:	f10b 003f 	add.w	r0, fp, #63	@ 0x3f
 c0020b4:	2300      	movs	r3, #0
 c0020b6:	f7fe fce7 	bl	c000a88 <ts_ull_to_bytes>
 c0020ba:	f8db 3000 	ldr.w	r3, [fp]
 c0020be:	4659      	mov	r1, fp
 c0020c0:	691b      	ldr	r3, [r3, #16]
 c0020c2:	4640      	mov	r0, r8
 c0020c4:	eb0b 0a09 	add.w	sl, fp, r9
 c0020c8:	4798      	blx	r3
 c0020ca:	f89a 3281 	ldrb.w	r3, [sl, #641]	@ 0x281
 c0020ce:	2400      	movs	r4, #0
 c0020d0:	b193      	cbz	r3, c0020f8 <ts_sign+0x290>
 c0020d2:	4623      	mov	r3, r4
 c0020d4:	464a      	mov	r2, r9
 c0020d6:	4658      	mov	r0, fp
 c0020d8:	f8bb 104e 	ldrh.w	r1, [fp, #78]	@ 0x4e
 c0020dc:	f7ff fa70 	bl	c0015c0 <ts_set_wots_f_adr>
 c0020e0:	f8db 3000 	ldr.w	r3, [fp]
 c0020e4:	465a      	mov	r2, fp
 c0020e6:	695b      	ldr	r3, [r3, #20]
 c0020e8:	4641      	mov	r1, r8
 c0020ea:	4640      	mov	r0, r8
 c0020ec:	4798      	blx	r3
 c0020ee:	f89a 3281 	ldrb.w	r3, [sl, #641]	@ 0x281
 c0020f2:	3401      	adds	r4, #1
 c0020f4:	429c      	cmp	r4, r3
 c0020f6:	dbec      	blt.n	c0020d2 <ts_sign+0x26a>
 c0020f8:	2200      	movs	r2, #0
 c0020fa:	2303      	movs	r3, #3
 c0020fc:	f8db 0000 	ldr.w	r0, [fp]
 c002100:	f88b 2029 	strb.w	r2, [fp, #41]	@ 0x29
 c002104:	7800      	ldrb	r0, [r0, #0]
 c002106:	f89b 1280 	ldrb.w	r1, [fp, #640]	@ 0x280
 c00210a:	eb03 0340 	add.w	r3, r3, r0, lsl #1
 c00210e:	428b      	cmp	r3, r1
 c002110:	f47f aeba 	bne.w	c001e88 <ts_sign+0x20>
 c002114:	2304      	movs	r3, #4
 c002116:	f88b 202c 	strb.w	r2, [fp, #44]	@ 0x2c
 c00211a:	f8bb 104e 	ldrh.w	r1, [fp, #78]	@ 0x4e
 c00211e:	465a      	mov	r2, fp
 c002120:	f88b 3008 	strb.w	r3, [fp, #8]
 c002124:	f10b 0060 	add.w	r0, fp, #96	@ 0x60
 c002128:	f7ff fd6e 	bl	c001c08 <ts_wots_leaf>
 c00212c:	e6ac      	b.n	c001e88 <ts_sign+0x20>
 c00212e:	2101      	movs	r1, #1
 c002130:	f89b 202c 	ldrb.w	r2, [fp, #44]	@ 0x2c
 c002134:	f8db 0000 	ldr.w	r0, [fp]
 c002138:	f8bb 304e 	ldrh.w	r3, [fp, #78]	@ 0x4e
 c00213c:	f890 a000 	ldrb.w	sl, [r0]
 c002140:	1850      	adds	r0, r2, r1
 c002142:	f88b 002c 	strb.w	r0, [fp, #44]	@ 0x2c
 c002146:	fa01 f002 	lsl.w	r0, r1, r2
 c00214a:	4043      	eors	r3, r0
 c00214c:	4241      	negs	r1, r0
 c00214e:	f20b 2cc6 	addw	ip, fp, #710	@ 0x2c6
 c002152:	f10b 0809 	add.w	r8, fp, #9
 c002156:	f50b 74a8 	add.w	r4, fp, #336	@ 0x150
 c00215a:	9004      	str	r0, [sp, #16]
 c00215c:	4019      	ands	r1, r3
 c00215e:	2800      	cmp	r0, #0
 c002160:	f000 8158 	beq.w	c002414 <ts_sign+0x5ac>
 c002164:	2300      	movs	r3, #0
 c002166:	4689      	mov	r9, r1
 c002168:	9302      	str	r3, [sp, #8]
 c00216a:	f10b 033d 	add.w	r3, fp, #61	@ 0x3d
 c00216e:	e9cd 3607 	strd	r3, r6, [sp, #28]
 c002172:	e9cd 1709 	strd	r1, r7, [sp, #36]	@ 0x24
 c002176:	9205      	str	r2, [sp, #20]
 c002178:	950b      	str	r5, [sp, #44]	@ 0x2c
 c00217a:	f8cd c00c 	str.w	ip, [sp, #12]
 c00217e:	4649      	mov	r1, r9
 c002180:	4658      	mov	r0, fp
 c002182:	f7ff f929 	bl	c0013d8 <set_fors_prf_adr>
 c002186:	f8db 3000 	ldr.w	r3, [fp]
 c00218a:	4659      	mov	r1, fp
 c00218c:	691b      	ldr	r3, [r3, #16]
 c00218e:	4640      	mov	r0, r8
 c002190:	4798      	blx	r3
 c002192:	f8db 3000 	ldr.w	r3, [fp]
 c002196:	799a      	ldrb	r2, [r3, #6]
 c002198:	2a00      	cmp	r2, #0
 c00219a:	f000 8103 	beq.w	c0023a4 <ts_sign+0x53c>
 c00219e:	f04f 0203 	mov.w	r2, #3
 c0021a2:	f88b 2036 	strb.w	r2, [fp, #54]	@ 0x36
 c0021a6:	465a      	mov	r2, fp
 c0021a8:	4641      	mov	r1, r8
 c0021aa:	4640      	mov	r0, r8
 c0021ac:	695b      	ldr	r3, [r3, #20]
 c0021ae:	4798      	blx	r3
 c0021b0:	9e02      	ldr	r6, [sp, #8]
 c0021b2:	f016 0501 	ands.w	r5, r6, #1
 c0021b6:	d028      	beq.n	c00220a <ts_sign+0x3a2>
 c0021b8:	2500      	movs	r5, #0
 c0021ba:	9f03      	ldr	r7, [sp, #12]
 c0021bc:	462a      	mov	r2, r5
 c0021be:	2303      	movs	r3, #3
 c0021c0:	4649      	mov	r1, r9
 c0021c2:	4658      	mov	r0, fp
 c0021c4:	f7ff fa82 	bl	c0016cc <ts_set_merkle_adr>
 c0021c8:	f8db 3000 	ldr.w	r3, [fp]
 c0021cc:	4659      	mov	r1, fp
 c0021ce:	4620      	mov	r0, r4
 c0021d0:	699b      	ldr	r3, [r3, #24]
 c0021d2:	4798      	blx	r3
 c0021d4:	f8db 3000 	ldr.w	r3, [fp]
 c0021d8:	4639      	mov	r1, r7
 c0021da:	465a      	mov	r2, fp
 c0021dc:	4620      	mov	r0, r4
 c0021de:	69db      	ldr	r3, [r3, #28]
 c0021e0:	4798      	blx	r3
 c0021e2:	f8db 3000 	ldr.w	r3, [fp]
 c0021e6:	465a      	mov	r2, fp
 c0021e8:	4641      	mov	r1, r8
 c0021ea:	4620      	mov	r0, r4
 c0021ec:	69db      	ldr	r3, [r3, #28]
 c0021ee:	4798      	blx	r3
 c0021f0:	f8db 3000 	ldr.w	r3, [fp]
 c0021f4:	465a      	mov	r2, fp
 c0021f6:	4621      	mov	r1, r4
 c0021f8:	4640      	mov	r0, r8
 c0021fa:	6a1b      	ldr	r3, [r3, #32]
 c0021fc:	0876      	lsrs	r6, r6, #1
 c0021fe:	4798      	blx	r3
 c002200:	07f2      	lsls	r2, r6, #31
 c002202:	f105 0501 	add.w	r5, r5, #1
 c002206:	4457      	add	r7, sl
 c002208:	d4d8      	bmi.n	c0021bc <ts_sign+0x354>
 c00220a:	9b05      	ldr	r3, [sp, #20]
 c00220c:	42ab      	cmp	r3, r5
 c00220e:	f200 80db 	bhi.w	c0023c8 <ts_sign+0x560>
 c002212:	9b02      	ldr	r3, [sp, #8]
 c002214:	9a04      	ldr	r2, [sp, #16]
 c002216:	3301      	adds	r3, #1
 c002218:	429a      	cmp	r2, r3
 c00221a:	9302      	str	r3, [sp, #8]
 c00221c:	f109 0901 	add.w	r9, r9, #1
 c002220:	d1ad      	bne.n	c00217e <ts_sign+0x316>
 c002222:	e9dd 1709 	ldrd	r1, r7, [sp, #36]	@ 0x24
 c002226:	2300      	movs	r3, #0
 c002228:	9a05      	ldr	r2, [sp, #20]
 c00222a:	4658      	mov	r0, fp
 c00222c:	f88b 3029 	strb.w	r3, [fp, #41]	@ 0x29
 c002230:	2303      	movs	r3, #3
 c002232:	9e08      	ldr	r6, [sp, #32]
 c002234:	9d0b      	ldr	r5, [sp, #44]	@ 0x2c
 c002236:	f7ff fa49 	bl	c0016cc <ts_set_merkle_adr>
 c00223a:	f8db 3000 	ldr.w	r3, [fp]
 c00223e:	4659      	mov	r1, fp
 c002240:	699b      	ldr	r3, [r3, #24]
 c002242:	4620      	mov	r0, r4
 c002244:	4798      	blx	r3
 c002246:	f8bb 304e 	ldrh.w	r3, [fp, #78]	@ 0x4e
 c00224a:	9a04      	ldr	r2, [sp, #16]
 c00224c:	4213      	tst	r3, r2
 c00224e:	f000 80ed 	beq.w	c00242c <ts_sign+0x5c4>
 c002252:	46d9      	mov	r9, fp
 c002254:	f859 3b60 	ldr.w	r3, [r9], #96
 c002258:	4641      	mov	r1, r8
 c00225a:	465a      	mov	r2, fp
 c00225c:	4620      	mov	r0, r4
 c00225e:	69db      	ldr	r3, [r3, #28]
 c002260:	4798      	blx	r3
 c002262:	f8db 3000 	ldr.w	r3, [fp]
 c002266:	465a      	mov	r2, fp
 c002268:	4649      	mov	r1, r9
 c00226a:	4620      	mov	r0, r4
 c00226c:	69db      	ldr	r3, [r3, #28]
 c00226e:	4798      	blx	r3
 c002270:	f8db 3000 	ldr.w	r3, [fp]
 c002274:	4621      	mov	r1, r4
 c002276:	465a      	mov	r2, fp
 c002278:	6a1b      	ldr	r3, [r3, #32]
 c00227a:	4648      	mov	r0, r9
 c00227c:	4798      	blx	r3
 c00227e:	f8db 3000 	ldr.w	r3, [fp]
 c002282:	f89b 102c 	ldrb.w	r1, [fp, #44]	@ 0x2c
 c002286:	789a      	ldrb	r2, [r3, #2]
 c002288:	4291      	cmp	r1, r2
 c00228a:	f47f adfd 	bne.w	c001e88 <ts_sign+0x20>
 c00228e:	f10b 0480 	add.w	r4, fp, #128	@ 0x80
 c002292:	465a      	mov	r2, fp
 c002294:	4649      	mov	r1, r9
 c002296:	69db      	ldr	r3, [r3, #28]
 c002298:	4620      	mov	r0, r4
 c00229a:	4798      	blx	r3
 c00229c:	2301      	movs	r3, #1
 c00229e:	f88b 3008 	strb.w	r3, [fp, #8]
 c0022a2:	f89b 302b 	ldrb.w	r3, [fp, #43]	@ 0x2b
 c0022a6:	f8db 2000 	ldr.w	r2, [fp]
 c0022aa:	3301      	adds	r3, #1
 c0022ac:	b2db      	uxtb	r3, r3
 c0022ae:	f88b 302b 	strb.w	r3, [fp, #43]	@ 0x2b
 c0022b2:	7851      	ldrb	r1, [r2, #1]
 c0022b4:	4299      	cmp	r1, r3
 c0022b6:	f47f ade7 	bne.w	c001e88 <ts_sign+0x20>
 c0022ba:	6a13      	ldr	r3, [r2, #32]
 c0022bc:	4621      	mov	r1, r4
 c0022be:	465a      	mov	r2, fp
 c0022c0:	4648      	mov	r0, r9
 c0022c2:	4798      	blx	r3
 c0022c4:	2300      	movs	r3, #0
 c0022c6:	2203      	movs	r2, #3
 c0022c8:	f88b 302b 	strb.w	r3, [fp, #43]	@ 0x2b
 c0022cc:	f88b 3280 	strb.w	r3, [fp, #640]	@ 0x280
 c0022d0:	f8db 3000 	ldr.w	r3, [fp]
 c0022d4:	f88b 2008 	strb.w	r2, [fp, #8]
 c0022d8:	781c      	ldrb	r4, [r3, #0]
 c0022da:	f8bb e050 	ldrh.w	lr, [fp, #80]	@ 0x50
 c0022de:	ebc4 1004 	rsb	r0, r4, r4, lsl #4
 c0022e2:	0040      	lsls	r0, r0, #1
 c0022e4:	f20b 2c81 	addw	ip, fp, #641	@ 0x281
 c0022e8:	fa0f f884 	sxth.w	r8, r4
 c0022ec:	b19c      	cbz	r4, c002316 <ts_sign+0x4ae>
 c0022ee:	444c      	add	r4, r9
 c0022f0:	f20b 2183 	addw	r1, fp, #643	@ 0x283
 c0022f4:	f819 3b01 	ldrb.w	r3, [r9], #1
 c0022f8:	3102      	adds	r1, #2
 c0022fa:	091a      	lsrs	r2, r3, #4
 c0022fc:	f003 030f 	and.w	r3, r3, #15
 c002300:	f801 2c04 	strb.w	r2, [r1, #-4]
 c002304:	45a1      	cmp	r9, r4
 c002306:	441a      	add	r2, r3
 c002308:	f801 3c03 	strb.w	r3, [r1, #-3]
 c00230c:	eba0 0002 	sub.w	r0, r0, r2
 c002310:	d1f0      	bne.n	c0022f4 <ts_sign+0x48c>
 c002312:	eb0c 0c48 	add.w	ip, ip, r8, lsl #1
 c002316:	2300      	movs	r3, #0
 c002318:	f3c0 2203 	ubfx	r2, r0, #8, #4
 c00231c:	f88c 2000 	strb.w	r2, [ip]
 c002320:	f3c0 1203 	ubfx	r2, r0, #4, #4
 c002324:	f000 000f 	and.w	r0, r0, #15
 c002328:	f88c 2001 	strb.w	r2, [ip, #1]
 c00232c:	f88c 0002 	strb.w	r0, [ip, #2]
 c002330:	f8ab e04e 	strh.w	lr, [fp, #78]	@ 0x4e
 c002334:	f8ab 3050 	strh.w	r3, [fp, #80]	@ 0x50
 c002338:	e5a6      	b.n	c001e88 <ts_sign+0x20>
 c00233a:	f89b 302b 	ldrb.w	r3, [fp, #43]	@ 0x2b
 c00233e:	4658      	mov	r0, fp
 c002340:	f503 73a0 	add.w	r3, r3, #320	@ 0x140
 c002344:	f83b 4013 	ldrh.w	r4, [fp, r3, lsl #1]
 c002348:	f10b 0860 	add.w	r8, fp, #96	@ 0x60
 c00234c:	4621      	mov	r1, r4
 c00234e:	f8ab 404e 	strh.w	r4, [fp, #78]	@ 0x4e
 c002352:	f7ff f841 	bl	c0013d8 <set_fors_prf_adr>
 c002356:	4658      	mov	r0, fp
 c002358:	f850 3b09 	ldr.w	r3, [r0], #9
 c00235c:	4659      	mov	r1, fp
 c00235e:	691b      	ldr	r3, [r3, #16]
 c002360:	4798      	blx	r3
 c002362:	2300      	movs	r3, #0
 c002364:	2202      	movs	r2, #2
 c002366:	4621      	mov	r1, r4
 c002368:	f88b 2008 	strb.w	r2, [fp, #8]
 c00236c:	4658      	mov	r0, fp
 c00236e:	f88b 3029 	strb.w	r3, [fp, #41]	@ 0x29
 c002372:	f88b 302c 	strb.w	r3, [fp, #44]	@ 0x2c
 c002376:	f7ff f82f 	bl	c0013d8 <set_fors_prf_adr>
 c00237a:	f8db 3000 	ldr.w	r3, [fp]
 c00237e:	4659      	mov	r1, fp
 c002380:	691b      	ldr	r3, [r3, #16]
 c002382:	4640      	mov	r0, r8
 c002384:	4798      	blx	r3
 c002386:	f8db 3000 	ldr.w	r3, [fp]
 c00238a:	799a      	ldrb	r2, [r3, #6]
 c00238c:	2a00      	cmp	r2, #0
 c00238e:	f000 80ec 	beq.w	c00256a <ts_sign+0x702>
 c002392:	2203      	movs	r2, #3
 c002394:	f88b 2036 	strb.w	r2, [fp, #54]	@ 0x36
 c002398:	465a      	mov	r2, fp
 c00239a:	4641      	mov	r1, r8
 c00239c:	4640      	mov	r0, r8
 c00239e:	695b      	ldr	r3, [r3, #20]
 c0023a0:	4798      	blx	r3
 c0023a2:	e571      	b.n	c001e88 <ts_sign+0x20>
 c0023a4:	2304      	movs	r3, #4
 c0023a6:	2203      	movs	r2, #3
 c0023a8:	9300      	str	r3, [sp, #0]
 c0023aa:	9807      	ldr	r0, [sp, #28]
 c0023ac:	2300      	movs	r3, #0
 c0023ae:	f7fe fb6b 	bl	c000a88 <ts_ull_to_bytes>
 c0023b2:	f8db 3000 	ldr.w	r3, [fp]
 c0023b6:	e6f6      	b.n	c0021a6 <ts_sign+0x33e>
 c0023b8:	9b04      	ldr	r3, [sp, #16]
 c0023ba:	4652      	mov	r2, sl
 c0023bc:	4641      	mov	r1, r8
 c0023be:	fb0a 3005 	mla	r0, sl, r5, r3
 c0023c2:	f003 fee9 	bl	c006198 <memcpy>
 c0023c6:	e5e3      	b.n	c001f90 <ts_sign+0x128>
 c0023c8:	9b03      	ldr	r3, [sp, #12]
 c0023ca:	4652      	mov	r2, sl
 c0023cc:	4641      	mov	r1, r8
 c0023ce:	fb05 300a 	mla	r0, r5, sl, r3
 c0023d2:	f003 fee1 	bl	c006198 <memcpy>
 c0023d6:	e71c      	b.n	c002212 <ts_sign+0x3aa>
 c0023d8:	2000      	movs	r0, #0
 c0023da:	4770      	bx	lr
 c0023dc:	4658      	mov	r0, fp
 c0023de:	f88b 3029 	strb.w	r3, [fp, #41]	@ 0x29
 c0023e2:	2302      	movs	r3, #2
 c0023e4:	f7ff f972 	bl	c0016cc <ts_set_merkle_adr>
 c0023e8:	f8db 3000 	ldr.w	r3, [fp]
 c0023ec:	4659      	mov	r1, fp
 c0023ee:	4620      	mov	r0, r4
 c0023f0:	699b      	ldr	r3, [r3, #24]
 c0023f2:	4798      	blx	r3
 c0023f4:	46d9      	mov	r9, fp
 c0023f6:	f859 3b60 	ldr.w	r3, [r9], #96
 c0023fa:	465a      	mov	r2, fp
 c0023fc:	4620      	mov	r0, r4
 c0023fe:	4649      	mov	r1, r9
 c002400:	69db      	ldr	r3, [r3, #28]
 c002402:	4798      	blx	r3
 c002404:	f8db 3000 	ldr.w	r3, [fp]
 c002408:	4641      	mov	r1, r8
 c00240a:	465a      	mov	r2, fp
 c00240c:	4620      	mov	r0, r4
 c00240e:	69db      	ldr	r3, [r3, #28]
 c002410:	4798      	blx	r3
 c002412:	e5ec      	b.n	c001fee <ts_sign+0x186>
 c002414:	2303      	movs	r3, #3
 c002416:	f88b 0029 	strb.w	r0, [fp, #41]	@ 0x29
 c00241a:	4658      	mov	r0, fp
 c00241c:	f7ff f956 	bl	c0016cc <ts_set_merkle_adr>
 c002420:	f8db 3000 	ldr.w	r3, [fp]
 c002424:	4659      	mov	r1, fp
 c002426:	4620      	mov	r0, r4
 c002428:	699b      	ldr	r3, [r3, #24]
 c00242a:	4798      	blx	r3
 c00242c:	46d9      	mov	r9, fp
 c00242e:	f859 3b60 	ldr.w	r3, [r9], #96
 c002432:	465a      	mov	r2, fp
 c002434:	4620      	mov	r0, r4
 c002436:	4649      	mov	r1, r9
 c002438:	69db      	ldr	r3, [r3, #28]
 c00243a:	4798      	blx	r3
 c00243c:	f8db 3000 	ldr.w	r3, [fp]
 c002440:	4641      	mov	r1, r8
 c002442:	465a      	mov	r2, fp
 c002444:	4620      	mov	r0, r4
 c002446:	69db      	ldr	r3, [r3, #28]
 c002448:	4798      	blx	r3
 c00244a:	e711      	b.n	c002270 <ts_sign+0x408>
 c00244c:	2304      	movs	r3, #4
 c00244e:	2200      	movs	r2, #0
 c002450:	9300      	str	r3, [sp, #0]
 c002452:	f10b 0049 	add.w	r0, fp, #73	@ 0x49
 c002456:	2300      	movs	r3, #0
 c002458:	f7fe fb16 	bl	c000a88 <ts_ull_to_bytes>
 c00245c:	e62d      	b.n	c0020ba <ts_sign+0x252>
 c00245e:	2204      	movs	r2, #4
 c002460:	f10b 0045 	add.w	r0, fp, #69	@ 0x45
 c002464:	9200      	str	r2, [sp, #0]
 c002466:	464a      	mov	r2, r9
 c002468:	f7fe fb0e 	bl	c000a88 <ts_ull_to_bytes>
 c00246c:	e617      	b.n	c00209e <ts_sign+0x236>
 c00246e:	f04f 0a04 	mov.w	sl, #4
 c002472:	2300      	movs	r3, #0
 c002474:	2205      	movs	r2, #5
 c002476:	f10b 003d 	add.w	r0, fp, #61	@ 0x3d
 c00247a:	f8cd a000 	str.w	sl, [sp]
 c00247e:	f7fe fb03 	bl	c000a88 <ts_ull_to_bytes>
 c002482:	f8db 3000 	ldr.w	r3, [fp]
 c002486:	799b      	ldrb	r3, [r3, #6]
 c002488:	2b00      	cmp	r3, #0
 c00248a:	f47f adf2 	bne.w	c002072 <ts_sign+0x20a>
 c00248e:	4622      	mov	r2, r4
 c002490:	f8cd a000 	str.w	sl, [sp]
 c002494:	f10b 0041 	add.w	r0, fp, #65	@ 0x41
 c002498:	f7fe faf6 	bl	c000a88 <ts_ull_to_bytes>
 c00249c:	e5f1      	b.n	c002082 <ts_sign+0x21a>
 c00249e:	2104      	movs	r1, #4
 c0024a0:	f10b 002d 	add.w	r0, fp, #45	@ 0x2d
 c0024a4:	9100      	str	r1, [sp, #0]
 c0024a6:	f7fe faef 	bl	c000a88 <ts_ull_to_bytes>
 c0024aa:	f8db 3000 	ldr.w	r3, [fp]
 c0024ae:	7999      	ldrb	r1, [r3, #6]
 c0024b0:	e9db 2316 	ldrd	r2, r3, [fp, #88]	@ 0x58
 c0024b4:	2900      	cmp	r1, #0
 c0024b6:	f47f adcd 	bne.w	c002054 <ts_sign+0x1ec>
 c0024ba:	210c      	movs	r1, #12
 c0024bc:	f10b 0031 	add.w	r0, fp, #49	@ 0x31
 c0024c0:	9100      	str	r1, [sp, #0]
 c0024c2:	f7fe fae1 	bl	c000a88 <ts_ull_to_bytes>
 c0024c6:	e5cb      	b.n	c002060 <ts_sign+0x1f8>
 c0024c8:	2303      	movs	r3, #3
 c0024ca:	f04f 0c01 	mov.w	ip, #1
 c0024ce:	f88b 3008 	strb.w	r3, [fp, #8]
 c0024d2:	2300      	movs	r3, #0
 c0024d4:	fa0c fc02 	lsl.w	ip, ip, r2
 c0024d8:	f10c 3cff 	add.w	ip, ip, #4294967295
 c0024dc:	f1c2 0420 	rsb	r4, r2, #32
 c0024e0:	f88b 3280 	strb.w	r3, [fp, #640]	@ 0x280
 c0024e4:	e9db 3016 	ldrd	r3, r0, [fp, #88]	@ 0x58
 c0024e8:	fa00 f404 	lsl.w	r4, r0, r4
 c0024ec:	ea0c 0c03 	and.w	ip, ip, r3
 c0024f0:	40d3      	lsrs	r3, r2
 c0024f2:	4323      	orrs	r3, r4
 c0024f4:	f1a2 0420 	sub.w	r4, r2, #32
 c0024f8:	fa20 f404 	lsr.w	r4, r0, r4
 c0024fc:	4323      	orrs	r3, r4
 c0024fe:	40d0      	lsrs	r0, r2
 c002500:	e9cb 3016 	strd	r3, r0, [fp, #88]	@ 0x58
 c002504:	fa1f fc8c 	uxth.w	ip, ip
 c002508:	f8ab c04e 	strh.w	ip, [fp, #78]	@ 0x4e
 c00250c:	780c      	ldrb	r4, [r1, #0]
 c00250e:	f20b 2e81 	addw	lr, fp, #641	@ 0x281
 c002512:	ebc4 1004 	rsb	r0, r4, r4, lsl #4
 c002516:	0040      	lsls	r0, r0, #1
 c002518:	fa0f f884 	sxth.w	r8, r4
 c00251c:	b19c      	cbz	r4, c002546 <ts_sign+0x6de>
 c00251e:	444c      	add	r4, r9
 c002520:	f20b 2183 	addw	r1, fp, #643	@ 0x283
 c002524:	f819 3b01 	ldrb.w	r3, [r9], #1
 c002528:	3102      	adds	r1, #2
 c00252a:	091a      	lsrs	r2, r3, #4
 c00252c:	f003 030f 	and.w	r3, r3, #15
 c002530:	f801 2c04 	strb.w	r2, [r1, #-4]
 c002534:	45a1      	cmp	r9, r4
 c002536:	441a      	add	r2, r3
 c002538:	f801 3c03 	strb.w	r3, [r1, #-3]
 c00253c:	eba0 0002 	sub.w	r0, r0, r2
 c002540:	d1f0      	bne.n	c002524 <ts_sign+0x6bc>
 c002542:	eb0e 0e48 	add.w	lr, lr, r8, lsl #1
 c002546:	2300      	movs	r3, #0
 c002548:	f3c0 2203 	ubfx	r2, r0, #8, #4
 c00254c:	f88e 2000 	strb.w	r2, [lr]
 c002550:	f3c0 1203 	ubfx	r2, r0, #4, #4
 c002554:	f000 000f 	and.w	r0, r0, #15
 c002558:	f88e 2001 	strb.w	r2, [lr, #1]
 c00255c:	f88e 0002 	strb.w	r0, [lr, #2]
 c002560:	f8ab c04e 	strh.w	ip, [fp, #78]	@ 0x4e
 c002564:	f8ab 3050 	strh.w	r3, [fp, #80]	@ 0x50
 c002568:	e48e      	b.n	c001e88 <ts_sign+0x20>
 c00256a:	2304      	movs	r3, #4
 c00256c:	2203      	movs	r2, #3
 c00256e:	9300      	str	r3, [sp, #0]
 c002570:	f10b 003d 	add.w	r0, fp, #61	@ 0x3d
 c002574:	2300      	movs	r3, #0
 c002576:	f7fe fa87 	bl	c000a88 <ts_ull_to_bytes>
 c00257a:	f8db 3000 	ldr.w	r3, [fp]
 c00257e:	e70b      	b.n	c002398 <ts_sign+0x530>
 c002580:	462b      	mov	r3, r5
 c002582:	1b98      	subs	r0, r3, r6
 c002584:	e4a4      	b.n	c001ed0 <ts_sign+0x68>
 c002586:	bf00      	nop

0c002588 <next_auth_path.constprop.0>:
 c002588:	e92d 41f0 	stmdb	sp!, {r4, r5, r6, r7, r8, lr}
 c00258c:	4604      	mov	r4, r0
 c00258e:	f890 602c 	ldrb.w	r6, [r0, #44]	@ 0x2c
 c002592:	460b      	mov	r3, r1
 c002594:	1c72      	adds	r2, r6, #1
 c002596:	f8b0 104e 	ldrh.w	r1, [r0, #78]	@ 0x4e
 c00259a:	f880 202c 	strb.w	r2, [r0, #44]	@ 0x2c
 c00259e:	4632      	mov	r2, r6
 c0025a0:	f7ff f894 	bl	c0016cc <ts_set_merkle_adr>
 c0025a4:	6823      	ldr	r3, [r4, #0]
 c0025a6:	f504 75a8 	add.w	r5, r4, #336	@ 0x150
 c0025aa:	699b      	ldr	r3, [r3, #24]
 c0025ac:	4621      	mov	r1, r4
 c0025ae:	4628      	mov	r0, r5
 c0025b0:	4798      	blx	r3
 c0025b2:	2301      	movs	r3, #1
 c0025b4:	f8b4 204e 	ldrh.w	r2, [r4, #78]	@ 0x4e
 c0025b8:	40b3      	lsls	r3, r6
 c0025ba:	4213      	tst	r3, r2
 c0025bc:	f104 0760 	add.w	r7, r4, #96	@ 0x60
 c0025c0:	6823      	ldr	r3, [r4, #0]
 c0025c2:	f104 0809 	add.w	r8, r4, #9
 c0025c6:	d012      	beq.n	c0025ee <next_auth_path.constprop.0+0x66>
 c0025c8:	4641      	mov	r1, r8
 c0025ca:	4622      	mov	r2, r4
 c0025cc:	4628      	mov	r0, r5
 c0025ce:	69db      	ldr	r3, [r3, #28]
 c0025d0:	4798      	blx	r3
 c0025d2:	6823      	ldr	r3, [r4, #0]
 c0025d4:	4622      	mov	r2, r4
 c0025d6:	4639      	mov	r1, r7
 c0025d8:	4628      	mov	r0, r5
 c0025da:	69db      	ldr	r3, [r3, #28]
 c0025dc:	4798      	blx	r3
 c0025de:	6823      	ldr	r3, [r4, #0]
 c0025e0:	4622      	mov	r2, r4
 c0025e2:	4629      	mov	r1, r5
 c0025e4:	4638      	mov	r0, r7
 c0025e6:	e8bd 41f0 	ldmia.w	sp!, {r4, r5, r6, r7, r8, lr}
 c0025ea:	6a1b      	ldr	r3, [r3, #32]
 c0025ec:	4718      	bx	r3
 c0025ee:	4622      	mov	r2, r4
 c0025f0:	4639      	mov	r1, r7
 c0025f2:	4628      	mov	r0, r5
 c0025f4:	69db      	ldr	r3, [r3, #28]
 c0025f6:	4798      	blx	r3
 c0025f8:	6823      	ldr	r3, [r4, #0]
 c0025fa:	4641      	mov	r1, r8
 c0025fc:	4622      	mov	r2, r4
 c0025fe:	4628      	mov	r0, r5
 c002600:	69db      	ldr	r3, [r3, #28]
 c002602:	4798      	blx	r3
 c002604:	e7eb      	b.n	c0025de <next_auth_path.constprop.0+0x56>
 c002606:	bf00      	nop

0c002608 <ts_init_verify>:
 c002608:	b510      	push	{r4, lr}
 c00260a:	2407      	movs	r4, #7
 c00260c:	f04f 0e00 	mov.w	lr, #0
 c002610:	7204      	strb	r4, [r0, #8]
 c002612:	f880 e029 	strb.w	lr, [r0, #41]	@ 0x29
 c002616:	9c02      	ldr	r4, [sp, #8]
 c002618:	f8c0 1280 	str.w	r1, [r0, #640]	@ 0x280
 c00261c:	6a59      	ldr	r1, [r3, #36]	@ 0x24
 c00261e:	6044      	str	r4, [r0, #4]
 c002620:	6003      	str	r3, [r0, #0]
 c002622:	f8c0 2284 	str.w	r2, [r0, #644]	@ 0x284
 c002626:	b111      	cbz	r1, c00262e <ts_init_verify+0x26>
 c002628:	e8bd 4010 	ldmia.w	sp!, {r4, lr}
 c00262c:	4708      	bx	r1
 c00262e:	bd10      	pop	{r4, pc}

0c002630 <ts_update_verify>:
 c002630:	7a13      	ldrb	r3, [r2, #8]
 c002632:	3b07      	subs	r3, #7
 c002634:	2b05      	cmp	r3, #5
 c002636:	f200 813c 	bhi.w	c0028b2 <ts_update_verify+0x282>
 c00263a:	e92d 4ff0 	stmdb	sp!, {r4, r5, r6, r7, r8, r9, sl, fp, lr}
 c00263e:	4614      	mov	r4, r2
 c002640:	4680      	mov	r8, r0
 c002642:	460f      	mov	r7, r1
 c002644:	6813      	ldr	r3, [r2, #0]
 c002646:	b083      	sub	sp, #12
 c002648:	f893 9000 	ldrb.w	r9, [r3]
 c00264c:	f894 6029 	ldrb.w	r6, [r4, #41]	@ 0x29
 c002650:	4641      	mov	r1, r8
 c002652:	eba9 0506 	sub.w	r5, r9, r6
 c002656:	42bd      	cmp	r5, r7
 c002658:	bf28      	it	cs
 c00265a:	463d      	movcs	r5, r7
 c00265c:	f106 0009 	add.w	r0, r6, #9
 c002660:	462a      	mov	r2, r5
 c002662:	4420      	add	r0, r4
 c002664:	442e      	add	r6, r5
 c002666:	f003 fd97 	bl	c006198 <memcpy>
 c00266a:	45b1      	cmp	r9, r6
 c00266c:	44a8      	add	r8, r5
 c00266e:	eba7 0705 	sub.w	r7, r7, r5
 c002672:	f200 8100 	bhi.w	c002876 <ts_update_verify+0x246>
 c002676:	f04f 0200 	mov.w	r2, #0
 c00267a:	7a23      	ldrb	r3, [r4, #8]
 c00267c:	f884 2029 	strb.w	r2, [r4, #41]	@ 0x29
 c002680:	3b07      	subs	r3, #7
 c002682:	2b04      	cmp	r3, #4
 c002684:	f200 8111 	bhi.w	c0028aa <ts_update_verify+0x27a>
 c002688:	e8df f003 	tbb	[pc, r3]
 c00268c:	40b87c95 	.word	0x40b87c95
 c002690:	03          	.byte	0x03
 c002691:	00          	.byte	0x00
 c002692:	2102      	movs	r1, #2
 c002694:	4620      	mov	r0, r4
 c002696:	f7ff ff77 	bl	c002588 <next_auth_path.constprop.0>
 c00269a:	6821      	ldr	r1, [r4, #0]
 c00269c:	f894 302c 	ldrb.w	r3, [r4, #44]	@ 0x2c
 c0026a0:	794a      	ldrb	r2, [r1, #5]
 c0026a2:	4293      	cmp	r3, r2
 c0026a4:	d1d2      	bne.n	c00264c <ts_update_verify+0x1c>
 c0026a6:	f894 202a 	ldrb.w	r2, [r4, #42]	@ 0x2a
 c0026aa:	3201      	adds	r2, #1
 c0026ac:	b2d2      	uxtb	r2, r2
 c0026ae:	f884 202a 	strb.w	r2, [r4, #42]	@ 0x2a
 c0026b2:	7909      	ldrb	r1, [r1, #4]
 c0026b4:	4291      	cmp	r1, r2
 c0026b6:	f240 80e4 	bls.w	c002882 <ts_update_verify+0x252>
 c0026ba:	e9d4 0216 	ldrd	r0, r2, [r4, #88]	@ 0x58
 c0026be:	2501      	movs	r5, #1
 c0026c0:	f1c3 0620 	rsb	r6, r3, #32
 c0026c4:	f1a3 0120 	sub.w	r1, r3, #32
 c0026c8:	fa22 f101 	lsr.w	r1, r2, r1
 c0026cc:	fa02 f606 	lsl.w	r6, r2, r6
 c0026d0:	40da      	lsrs	r2, r3
 c0026d2:	409d      	lsls	r5, r3
 c0026d4:	65e2      	str	r2, [r4, #92]	@ 0x5c
 c0026d6:	fa20 f203 	lsr.w	r2, r0, r3
 c0026da:	4332      	orrs	r2, r6
 c0026dc:	3d01      	subs	r5, #1
 c0026de:	430a      	orrs	r2, r1
 c0026e0:	4005      	ands	r5, r0
 c0026e2:	65a2      	str	r2, [r4, #88]	@ 0x58
 c0026e4:	4629      	mov	r1, r5
 c0026e6:	4620      	mov	r0, r4
 c0026e8:	f7ff fa52 	bl	c001b90 <ts_set_up_wots_signature>
 c0026ec:	230a      	movs	r3, #10
 c0026ee:	4628      	mov	r0, r5
 c0026f0:	4621      	mov	r1, r4
 c0026f2:	7223      	strb	r3, [r4, #8]
 c0026f4:	f7ff f8dc 	bl	c0018b0 <ts_set_wots_header_adr>
 c0026f8:	4620      	mov	r0, r4
 c0026fa:	f850 3b80 	ldr.w	r3, [r0], #128
 c0026fe:	4621      	mov	r1, r4
 c002700:	699b      	ldr	r3, [r3, #24]
 c002702:	4798      	blx	r3
 c002704:	2300      	movs	r3, #0
 c002706:	f884 302c 	strb.w	r3, [r4, #44]	@ 0x2c
 c00270a:	e79f      	b.n	c00264c <ts_update_verify+0x1c>
 c00270c:	f894 b280 	ldrb.w	fp, [r4, #640]	@ 0x280
 c002710:	f104 0509 	add.w	r5, r4, #9
 c002714:	eb04 030b 	add.w	r3, r4, fp
 c002718:	f893 a281 	ldrb.w	sl, [r3, #641]	@ 0x281
 c00271c:	f10b 0201 	add.w	r2, fp, #1
 c002720:	f1ba 0f0e 	cmp.w	sl, #14
 c002724:	f884 2280 	strb.w	r2, [r4, #640]	@ 0x280
 c002728:	dc11      	bgt.n	c00274e <ts_update_verify+0x11e>
 c00272a:	4653      	mov	r3, sl
 c00272c:	465a      	mov	r2, fp
 c00272e:	4620      	mov	r0, r4
 c002730:	f8b4 104e 	ldrh.w	r1, [r4, #78]	@ 0x4e
 c002734:	f7fe ff44 	bl	c0015c0 <ts_set_wots_f_adr>
 c002738:	6826      	ldr	r6, [r4, #0]
 c00273a:	4622      	mov	r2, r4
 c00273c:	4629      	mov	r1, r5
 c00273e:	4628      	mov	r0, r5
 c002740:	6976      	ldr	r6, [r6, #20]
 c002742:	f10a 0a01 	add.w	sl, sl, #1
 c002746:	47b0      	blx	r6
 c002748:	f1ba 0f0f 	cmp.w	sl, #15
 c00274c:	d1ed      	bne.n	c00272a <ts_update_verify+0xfa>
 c00274e:	4629      	mov	r1, r5
 c002750:	4625      	mov	r5, r4
 c002752:	f855 3b80 	ldr.w	r3, [r5], #128
 c002756:	4622      	mov	r2, r4
 c002758:	4628      	mov	r0, r5
 c00275a:	69db      	ldr	r3, [r3, #28]
 c00275c:	4798      	blx	r3
 c00275e:	2303      	movs	r3, #3
 c002760:	6822      	ldr	r2, [r4, #0]
 c002762:	f894 1280 	ldrb.w	r1, [r4, #640]	@ 0x280
 c002766:	7810      	ldrb	r0, [r2, #0]
 c002768:	eb03 0340 	add.w	r3, r3, r0, lsl #1
 c00276c:	428b      	cmp	r3, r1
 c00276e:	f47f af6d 	bne.w	c00264c <ts_update_verify+0x1c>
 c002772:	6a13      	ldr	r3, [r2, #32]
 c002774:	4629      	mov	r1, r5
 c002776:	4622      	mov	r2, r4
 c002778:	f104 0060 	add.w	r0, r4, #96	@ 0x60
 c00277c:	4798      	blx	r3
 c00277e:	230b      	movs	r3, #11
 c002780:	7223      	strb	r3, [r4, #8]
 c002782:	e763      	b.n	c00264c <ts_update_verify+0x1c>
 c002784:	2200      	movs	r2, #0
 c002786:	f894 302b 	ldrb.w	r3, [r4, #43]	@ 0x2b
 c00278a:	4620      	mov	r0, r4
 c00278c:	f503 73a0 	add.w	r3, r3, #320	@ 0x140
 c002790:	f834 1013 	ldrh.w	r1, [r4, r3, lsl #1]
 c002794:	f884 202c 	strb.w	r2, [r4, #44]	@ 0x2c
 c002798:	f8a4 104e 	strh.w	r1, [r4, #78]	@ 0x4e
 c00279c:	f7fe fe96 	bl	c0014cc <ts_set_fors_leaf_adr>
 c0027a0:	4620      	mov	r0, r4
 c0027a2:	f850 3b60 	ldr.w	r3, [r0], #96
 c0027a6:	4622      	mov	r2, r4
 c0027a8:	695b      	ldr	r3, [r3, #20]
 c0027aa:	f104 0109 	add.w	r1, r4, #9
 c0027ae:	4798      	blx	r3
 c0027b0:	2309      	movs	r3, #9
 c0027b2:	7223      	strb	r3, [r4, #8]
 c0027b4:	e74a      	b.n	c00264c <ts_update_verify+0x1c>
 c0027b6:	4622      	mov	r2, r4
 c0027b8:	9401      	str	r4, [sp, #4]
 c0027ba:	f8d4 3284 	ldr.w	r3, [r4, #644]	@ 0x284
 c0027be:	f204 25c6 	addw	r5, r4, #710	@ 0x2c6
 c0027c2:	9300      	str	r3, [sp, #0]
 c0027c4:	f852 6b09 	ldr.w	r6, [r2], #9
 c0027c8:	f8d4 3280 	ldr.w	r3, [r4, #640]	@ 0x280
 c0027cc:	4628      	mov	r0, r5
 c0027ce:	2131      	movs	r1, #49	@ 0x31
 c0027d0:	68f6      	ldr	r6, [r6, #12]
 c0027d2:	47b0      	blx	r6
 c0027d4:	4629      	mov	r1, r5
 c0027d6:	4620      	mov	r0, r4
 c0027d8:	f7ff f8e0 	bl	c00199c <ts_convert_message_hash_to_hypertree_position>
 c0027dc:	2300      	movs	r3, #0
 c0027de:	2208      	movs	r2, #8
 c0027e0:	4620      	mov	r0, r4
 c0027e2:	f884 302c 	strb.w	r3, [r4, #44]	@ 0x2c
 c0027e6:	8563      	strh	r3, [r4, #42]	@ 0x2a
 c0027e8:	7222      	strb	r2, [r4, #8]
 c0027ea:	f7fe ffeb 	bl	c0017c4 <ts_set_fors_root_adr>
 c0027ee:	4620      	mov	r0, r4
 c0027f0:	f850 3b80 	ldr.w	r3, [r0], #128
 c0027f4:	4621      	mov	r1, r4
 c0027f6:	699b      	ldr	r3, [r3, #24]
 c0027f8:	4798      	blx	r3
 c0027fa:	e727      	b.n	c00264c <ts_update_verify+0x1c>
 c0027fc:	2103      	movs	r1, #3
 c0027fe:	4620      	mov	r0, r4
 c002800:	f7ff fec2 	bl	c002588 <next_auth_path.constprop.0>
 c002804:	6823      	ldr	r3, [r4, #0]
 c002806:	f894 102c 	ldrb.w	r1, [r4, #44]	@ 0x2c
 c00280a:	789a      	ldrb	r2, [r3, #2]
 c00280c:	4291      	cmp	r1, r2
 c00280e:	f47f af1d 	bne.w	c00264c <ts_update_verify+0x1c>
 c002812:	f104 0580 	add.w	r5, r4, #128	@ 0x80
 c002816:	f104 0660 	add.w	r6, r4, #96	@ 0x60
 c00281a:	4622      	mov	r2, r4
 c00281c:	4631      	mov	r1, r6
 c00281e:	69db      	ldr	r3, [r3, #28]
 c002820:	4628      	mov	r0, r5
 c002822:	4798      	blx	r3
 c002824:	2308      	movs	r3, #8
 c002826:	7223      	strb	r3, [r4, #8]
 c002828:	f894 302b 	ldrb.w	r3, [r4, #43]	@ 0x2b
 c00282c:	6822      	ldr	r2, [r4, #0]
 c00282e:	3301      	adds	r3, #1
 c002830:	b2db      	uxtb	r3, r3
 c002832:	f884 302b 	strb.w	r3, [r4, #43]	@ 0x2b
 c002836:	7851      	ldrb	r1, [r2, #1]
 c002838:	4299      	cmp	r1, r3
 c00283a:	f47f af07 	bne.w	c00264c <ts_update_verify+0x1c>
 c00283e:	4630      	mov	r0, r6
 c002840:	2600      	movs	r6, #0
 c002842:	6a13      	ldr	r3, [r2, #32]
 c002844:	4629      	mov	r1, r5
 c002846:	4622      	mov	r2, r4
 c002848:	4798      	blx	r3
 c00284a:	f8b4 b050 	ldrh.w	fp, [r4, #80]	@ 0x50
 c00284e:	4620      	mov	r0, r4
 c002850:	4659      	mov	r1, fp
 c002852:	f884 602b 	strb.w	r6, [r4, #43]	@ 0x2b
 c002856:	f7ff f99b 	bl	c001b90 <ts_set_up_wots_signature>
 c00285a:	230a      	movs	r3, #10
 c00285c:	4658      	mov	r0, fp
 c00285e:	4621      	mov	r1, r4
 c002860:	7223      	strb	r3, [r4, #8]
 c002862:	f7ff f825 	bl	c0018b0 <ts_set_wots_header_adr>
 c002866:	6823      	ldr	r3, [r4, #0]
 c002868:	4628      	mov	r0, r5
 c00286a:	4621      	mov	r1, r4
 c00286c:	699b      	ldr	r3, [r3, #24]
 c00286e:	4798      	blx	r3
 c002870:	f884 602c 	strb.w	r6, [r4, #44]	@ 0x2c
 c002874:	e6ea      	b.n	c00264c <ts_update_verify+0x1c>
 c002876:	f884 6029 	strb.w	r6, [r4, #41]	@ 0x29
 c00287a:	2001      	movs	r0, #1
 c00287c:	b003      	add	sp, #12
 c00287e:	e8bd 8ff0 	ldmia.w	sp!, {r4, r5, r6, r7, r8, r9, sl, fp, pc}
 c002882:	b997      	cbnz	r7, c0028aa <ts_update_verify+0x27a>
 c002884:	6865      	ldr	r5, [r4, #4]
 c002886:	f104 0260 	add.w	r2, r4, #96	@ 0x60
 c00288a:	eb05 0309 	add.w	r3, r5, r9
 c00288e:	eb05 0549 	add.w	r5, r5, r9, lsl #1
 c002892:	e005      	b.n	c0028a0 <ts_update_verify+0x270>
 c002894:	f813 0b01 	ldrb.w	r0, [r3], #1
 c002898:	f812 1b01 	ldrb.w	r1, [r2], #1
 c00289c:	4288      	cmp	r0, r1
 c00289e:	d104      	bne.n	c0028aa <ts_update_verify+0x27a>
 c0028a0:	42ab      	cmp	r3, r5
 c0028a2:	d1f7      	bne.n	c002894 <ts_update_verify+0x264>
 c0028a4:	230c      	movs	r3, #12
 c0028a6:	7223      	strb	r3, [r4, #8]
 c0028a8:	e7e7      	b.n	c00287a <ts_update_verify+0x24a>
 c0028aa:	230d      	movs	r3, #13
 c0028ac:	2000      	movs	r0, #0
 c0028ae:	7223      	strb	r3, [r4, #8]
 c0028b0:	e7e4      	b.n	c00287c <ts_update_verify+0x24c>
 c0028b2:	2000      	movs	r0, #0
 c0028b4:	4770      	bx	lr
 c0028b6:	bf00      	nop

0c0028b8 <ts_verify>:
 c0028b8:	7a03      	ldrb	r3, [r0, #8]
 c0028ba:	2b0c      	cmp	r3, #12
 c0028bc:	bf03      	ittte	eq
 c0028be:	f890 0029 	ldrbeq.w	r0, [r0, #41]	@ 0x29
 c0028c2:	fab0 f080 	clzeq	r0, r0
 c0028c6:	0940      	lsreq	r0, r0, #5
 c0028c8:	2000      	movne	r0, #0
 c0028ca:	4770      	bx	lr

0c0028cc <MX_GPIO_Init>:
*/
void MX_GPIO_Init(void)
{

  /* GPIO Ports Clock Enable */
  __HAL_RCC_GPIOG_CLK_ENABLE();
 c0028cc:	4b06      	ldr	r3, [pc, #24]	@ (c0028e8 <MX_GPIO_Init+0x1c>)
{
 c0028ce:	b082      	sub	sp, #8
  __HAL_RCC_GPIOG_CLK_ENABLE();
 c0028d0:	6cda      	ldr	r2, [r3, #76]	@ 0x4c
 c0028d2:	f042 0240 	orr.w	r2, r2, #64	@ 0x40
 c0028d6:	64da      	str	r2, [r3, #76]	@ 0x4c
 c0028d8:	6cdb      	ldr	r3, [r3, #76]	@ 0x4c
 c0028da:	f003 0340 	and.w	r3, r3, #64	@ 0x40
 c0028de:	9301      	str	r3, [sp, #4]
 c0028e0:	9b01      	ldr	r3, [sp, #4]
  HAL_PWREx_EnableVddIO2();

}
 c0028e2:	b002      	add	sp, #8
  HAL_PWREx_EnableVddIO2();
 c0028e4:	f001 bb42 	b.w	c003f6c <HAL_PWREx_EnableVddIO2>
 c0028e8:	50021000 	.word	0x50021000
 c0028ec:	00000000 	.word	0x00000000

0c0028f0 <MX_GTZC_S_Init>:

/* USER CODE END 0 */

/* GTZC_S init function */
void MX_GTZC_S_Init(void)
{
 c0028f0:	b500      	push	{lr}
 c0028f2:	b09d      	sub	sp, #116	@ 0x74

  /* USER CODE BEGIN GTZC_S_Init 0 */

  /* USER CODE END GTZC_S_Init 0 */

  MPCBB_ConfigTypeDef MPCBB_NonSecureArea_Desc = {0};
 c0028f4:	2100      	movs	r1, #0
 c0028f6:	226c      	movs	r2, #108	@ 0x6c
 c0028f8:	4668      	mov	r0, sp
 c0028fa:	f003 fc21 	bl	c006140 <memset>

  /* USER CODE BEGIN GTZC_S_Init 1 */

  /* USER CODE END GTZC_S_Init 1 */
  if (HAL_GTZC_TZSC_ConfigPeriphAttributes(GTZC_PERIPH_TIM3, GTZC_TZSC_PERIPH_SEC|GTZC_TZSC_PERIPH_NPRIV) != HAL_OK)
 c0028fe:	f240 3101 	movw	r1, #769	@ 0x301
 c002902:	2001      	movs	r0, #1
 c002904:	f001 f968 	bl	c003bd8 <HAL_GTZC_TZSC_ConfigPeriphAttributes>
 c002908:	2800      	cmp	r0, #0
 c00290a:	d149      	bne.n	c0029a0 <MX_GTZC_S_Init+0xb0>
  {
    Error_Handler();
  }
  if (HAL_GTZC_TZSC_ConfigPeriphAttributes(GTZC_PERIPH_TIM4, GTZC_TZSC_PERIPH_SEC|GTZC_TZSC_PERIPH_NPRIV) != HAL_OK)
 c00290c:	f240 3101 	movw	r1, #769	@ 0x301
 c002910:	2002      	movs	r0, #2
 c002912:	f001 f961 	bl	c003bd8 <HAL_GTZC_TZSC_ConfigPeriphAttributes>
 c002916:	2800      	cmp	r0, #0
 c002918:	d14b      	bne.n	c0029b2 <MX_GTZC_S_Init+0xc2>
  {
    Error_Handler();
  }
  if (HAL_GTZC_TZSC_ConfigPeriphAttributes(GTZC_PERIPH_LPUART1, GTZC_TZSC_PERIPH_SEC|GTZC_TZSC_PERIPH_NPRIV) != HAL_OK)
 c00291a:	f240 3101 	movw	r1, #769	@ 0x301
 c00291e:	2015      	movs	r0, #21
 c002920:	f001 f95a 	bl	c003bd8 <HAL_GTZC_TZSC_ConfigPeriphAttributes>
 c002924:	2800      	cmp	r0, #0
 c002926:	d14d      	bne.n	c0029c4 <MX_GTZC_S_Init+0xd4>
  {
    Error_Handler();
  }
  MPCBB_NonSecureArea_Desc.SecureRWIllegalMode = GTZC_MPCBB_SRWILADIS_ENABLE;
 c002928:	2300      	movs	r3, #0
  MPCBB_NonSecureArea_Desc.InvertSecureState = GTZC_MPCBB_INVSECSTATE_NOT_INVERTED;
  MPCBB_NonSecureArea_Desc.AttributeConfig.MPCBB_SecConfig_array[0] =   0xFFFFFFFF;
 c00292a:	f04f 32ff 	mov.w	r2, #4294967295
  MPCBB_NonSecureArea_Desc.AttributeConfig.MPCBB_SecConfig_array[17] =   0x00000000;
  MPCBB_NonSecureArea_Desc.AttributeConfig.MPCBB_SecConfig_array[18] =   0x00000000;
  MPCBB_NonSecureArea_Desc.AttributeConfig.MPCBB_SecConfig_array[19] =   0x00000000;
  MPCBB_NonSecureArea_Desc.AttributeConfig.MPCBB_SecConfig_array[20] =   0x00000000;
  MPCBB_NonSecureArea_Desc.AttributeConfig.MPCBB_SecConfig_array[21] =   0x00000000;
  MPCBB_NonSecureArea_Desc.AttributeConfig.MPCBB_SecConfig_array[22] =   0x00000000;
 c00292e:	ed9f 7b2c 	vldr	d7, [pc, #176]	@ c0029e0 <MX_GTZC_S_Init+0xf0>
  MPCBB_NonSecureArea_Desc.AttributeConfig.MPCBB_SecConfig_array[23] =   0x00000000;
  MPCBB_NonSecureArea_Desc.AttributeConfig.MPCBB_LockConfig_array[0] =   0x00000000;
  if (HAL_GTZC_MPCBB_ConfigMem(SRAM1_BASE, &MPCBB_NonSecureArea_Desc) != HAL_OK)
 c002932:	4669      	mov	r1, sp
 c002934:	f04f 5040 	mov.w	r0, #805306368	@ 0x30000000
  MPCBB_NonSecureArea_Desc.AttributeConfig.MPCBB_SecConfig_array[22] =   0x00000000;
 c002938:	ed8d 7b18 	vstr	d7, [sp, #96]	@ 0x60
  MPCBB_NonSecureArea_Desc.InvertSecureState = GTZC_MPCBB_INVSECSTATE_NOT_INVERTED;
 c00293c:	e9cd 3300 	strd	r3, r3, [sp]
  MPCBB_NonSecureArea_Desc.AttributeConfig.MPCBB_SecConfig_array[1] =   0xFFFFFFFF;
 c002940:	e9cd 2202 	strd	r2, r2, [sp, #8]
  MPCBB_NonSecureArea_Desc.AttributeConfig.MPCBB_SecConfig_array[3] =   0xFFFFFFFF;
 c002944:	e9cd 2204 	strd	r2, r2, [sp, #16]
  MPCBB_NonSecureArea_Desc.AttributeConfig.MPCBB_SecConfig_array[5] =   0xFFFFFFFF;
 c002948:	e9cd 2206 	strd	r2, r2, [sp, #24]
  MPCBB_NonSecureArea_Desc.AttributeConfig.MPCBB_SecConfig_array[7] =   0xFFFFFFFF;
 c00294c:	e9cd 2208 	strd	r2, r2, [sp, #32]
  MPCBB_NonSecureArea_Desc.AttributeConfig.MPCBB_SecConfig_array[9] =   0xFFFFFFFF;
 c002950:	e9cd 220a 	strd	r2, r2, [sp, #40]	@ 0x28
  MPCBB_NonSecureArea_Desc.AttributeConfig.MPCBB_SecConfig_array[11] =   0xFFFFFFFF;
 c002954:	e9cd 220c 	strd	r2, r2, [sp, #48]	@ 0x30
  MPCBB_NonSecureArea_Desc.AttributeConfig.MPCBB_SecConfig_array[13] =   0x00000000;
 c002958:	e9cd 330e 	strd	r3, r3, [sp, #56]	@ 0x38
  MPCBB_NonSecureArea_Desc.AttributeConfig.MPCBB_SecConfig_array[15] =   0x00000000;
 c00295c:	e9cd 3310 	strd	r3, r3, [sp, #64]	@ 0x40
  MPCBB_NonSecureArea_Desc.AttributeConfig.MPCBB_SecConfig_array[17] =   0x00000000;
 c002960:	e9cd 3312 	strd	r3, r3, [sp, #72]	@ 0x48
  MPCBB_NonSecureArea_Desc.AttributeConfig.MPCBB_SecConfig_array[19] =   0x00000000;
 c002964:	e9cd 3314 	strd	r3, r3, [sp, #80]	@ 0x50
  MPCBB_NonSecureArea_Desc.AttributeConfig.MPCBB_SecConfig_array[21] =   0x00000000;
 c002968:	e9cd 3316 	strd	r3, r3, [sp, #88]	@ 0x58
  MPCBB_NonSecureArea_Desc.AttributeConfig.MPCBB_LockConfig_array[0] =   0x00000000;
 c00296c:	931a      	str	r3, [sp, #104]	@ 0x68
  if (HAL_GTZC_MPCBB_ConfigMem(SRAM1_BASE, &MPCBB_NonSecureArea_Desc) != HAL_OK)
 c00296e:	f001 f9af 	bl	c003cd0 <HAL_GTZC_MPCBB_ConfigMem>
 c002972:	bb90      	cbnz	r0, c0029da <MX_GTZC_S_Init+0xea>
  {
    Error_Handler();
  }
  MPCBB_NonSecureArea_Desc.AttributeConfig.MPCBB_SecConfig_array[0] =   0x00000000;
 c002974:	2300      	movs	r3, #0
  MPCBB_NonSecureArea_Desc.AttributeConfig.MPCBB_SecConfig_array[4] =   0x00000000;
  MPCBB_NonSecureArea_Desc.AttributeConfig.MPCBB_SecConfig_array[5] =   0x00000000;
  MPCBB_NonSecureArea_Desc.AttributeConfig.MPCBB_SecConfig_array[6] =   0x00000000;
  MPCBB_NonSecureArea_Desc.AttributeConfig.MPCBB_SecConfig_array[7] =   0x00000000;
  MPCBB_NonSecureArea_Desc.AttributeConfig.MPCBB_LockConfig_array[0] =   0x00000000;
  if (HAL_GTZC_MPCBB_ConfigMem(SRAM2_BASE, &MPCBB_NonSecureArea_Desc) != HAL_OK)
 c002976:	4669      	mov	r1, sp
 c002978:	481b      	ldr	r0, [pc, #108]	@ (c0029e8 <MX_GTZC_S_Init+0xf8>)
  MPCBB_NonSecureArea_Desc.AttributeConfig.MPCBB_SecConfig_array[1] =   0x00000000;
 c00297a:	e9cd 3302 	strd	r3, r3, [sp, #8]
  MPCBB_NonSecureArea_Desc.AttributeConfig.MPCBB_SecConfig_array[3] =   0x00000000;
 c00297e:	e9cd 3304 	strd	r3, r3, [sp, #16]
  MPCBB_NonSecureArea_Desc.AttributeConfig.MPCBB_SecConfig_array[5] =   0x00000000;
 c002982:	e9cd 3306 	strd	r3, r3, [sp, #24]
  MPCBB_NonSecureArea_Desc.AttributeConfig.MPCBB_SecConfig_array[7] =   0x00000000;
 c002986:	e9cd 3308 	strd	r3, r3, [sp, #32]
  MPCBB_NonSecureArea_Desc.AttributeConfig.MPCBB_LockConfig_array[0] =   0x00000000;
 c00298a:	931a      	str	r3, [sp, #104]	@ 0x68
  if (HAL_GTZC_MPCBB_ConfigMem(SRAM2_BASE, &MPCBB_NonSecureArea_Desc) != HAL_OK)
 c00298c:	f001 f9a0 	bl	c003cd0 <HAL_GTZC_MPCBB_ConfigMem>
 c002990:	bb00      	cbnz	r0, c0029d4 <MX_GTZC_S_Init+0xe4>
  {
    Error_Handler();
  }
  /* USER CODE BEGIN GTZC_S_Init 2 */
  if (HAL_GTZC_TZIC_EnableIT(GTZC_PERIPH_LPUART1) != HAL_OK)
 c002992:	2015      	movs	r0, #21
 c002994:	f001 fa06 	bl	c003da4 <HAL_GTZC_TZIC_EnableIT>
 c002998:	b9b8      	cbnz	r0, c0029ca <MX_GTZC_S_Init+0xda>
    Error_Handler();
  }

  /* USER CODE END GTZC_S_Init 2 */

}
 c00299a:	b01d      	add	sp, #116	@ 0x74
 c00299c:	f85d fb04 	ldr.w	pc, [sp], #4
    Error_Handler();
 c0029a0:	f000 f8a8 	bl	c002af4 <Error_Handler>
  if (HAL_GTZC_TZSC_ConfigPeriphAttributes(GTZC_PERIPH_TIM4, GTZC_TZSC_PERIPH_SEC|GTZC_TZSC_PERIPH_NPRIV) != HAL_OK)
 c0029a4:	f240 3101 	movw	r1, #769	@ 0x301
 c0029a8:	2002      	movs	r0, #2
 c0029aa:	f001 f915 	bl	c003bd8 <HAL_GTZC_TZSC_ConfigPeriphAttributes>
 c0029ae:	2800      	cmp	r0, #0
 c0029b0:	d0b3      	beq.n	c00291a <MX_GTZC_S_Init+0x2a>
    Error_Handler();
 c0029b2:	f000 f89f 	bl	c002af4 <Error_Handler>
  if (HAL_GTZC_TZSC_ConfigPeriphAttributes(GTZC_PERIPH_LPUART1, GTZC_TZSC_PERIPH_SEC|GTZC_TZSC_PERIPH_NPRIV) != HAL_OK)
 c0029b6:	f240 3101 	movw	r1, #769	@ 0x301
 c0029ba:	2015      	movs	r0, #21
 c0029bc:	f001 f90c 	bl	c003bd8 <HAL_GTZC_TZSC_ConfigPeriphAttributes>
 c0029c0:	2800      	cmp	r0, #0
 c0029c2:	d0b1      	beq.n	c002928 <MX_GTZC_S_Init+0x38>
    Error_Handler();
 c0029c4:	f000 f896 	bl	c002af4 <Error_Handler>
 c0029c8:	e7ae      	b.n	c002928 <MX_GTZC_S_Init+0x38>
    Error_Handler();
 c0029ca:	f000 f893 	bl	c002af4 <Error_Handler>
}
 c0029ce:	b01d      	add	sp, #116	@ 0x74
 c0029d0:	f85d fb04 	ldr.w	pc, [sp], #4
    Error_Handler();
 c0029d4:	f000 f88e 	bl	c002af4 <Error_Handler>
 c0029d8:	e7db      	b.n	c002992 <MX_GTZC_S_Init+0xa2>
    Error_Handler();
 c0029da:	f000 f88b 	bl	c002af4 <Error_Handler>
 c0029de:	e7c9      	b.n	c002974 <MX_GTZC_S_Init+0x84>
	...
 c0029e8:	30030000 	.word	0x30030000

0c0029ec <SystemClock_Config>:
/**
  * @brief System Clock Configuration
  * @retval None
  */
void SystemClock_Config(void)
{
 c0029ec:	b510      	push	{r4, lr}
 c0029ee:	b098      	sub	sp, #96	@ 0x60
  RCC_OscInitTypeDef RCC_OscInitStruct = {0};
 c0029f0:	2248      	movs	r2, #72	@ 0x48
 c0029f2:	2100      	movs	r1, #0
 c0029f4:	a806      	add	r0, sp, #24
 c0029f6:	f003 fba3 	bl	c006140 <memset>
  RCC_ClkInitTypeDef RCC_ClkInitStruct = {0};
 c0029fa:	2000      	movs	r0, #0
 c0029fc:	e9cd 0001 	strd	r0, r0, [sp, #4]
 c002a00:	e9cd 0003 	strd	r0, r0, [sp, #12]
 c002a04:	9005      	str	r0, [sp, #20]

  /** Configure the main internal regulator output voltage
  */
  if (HAL_PWREx_ControlVoltageScaling(PWR_REGULATOR_VOLTAGE_SCALE0) != HAL_OK)
 c002a06:	f001 fa71 	bl	c003eec <HAL_PWREx_ControlVoltageScaling>
 c002a0a:	b108      	cbz	r0, c002a10 <SystemClock_Config+0x24>
  \details Disables IRQ interrupts by setting the I-bit in the CPSR.
           Can only be executed in Privileged modes.
 */
__STATIC_FORCEINLINE void __disable_irq(void)
{
  __ASM volatile ("cpsid i" : : : "memory");
 c002a0c:	b672      	cpsid	i
void Error_Handler(void)
{
  /* USER CODE BEGIN Error_Handler_Debug */
  /* User can add his own implementation to report the HAL error return state */
  __disable_irq();
  while (1)
 c002a0e:	e7fe      	b.n	c002a0e <SystemClock_Config+0x22>
  RCC_OscInitStruct.HSIState = RCC_HSI_ON;
 c002a10:	f44f 7180 	mov.w	r1, #256	@ 0x100
 c002a14:	2240      	movs	r2, #64	@ 0x40
  RCC_OscInitStruct.OscillatorType = RCC_OSCILLATORTYPE_HSI;
 c002a16:	2302      	movs	r3, #2
  RCC_OscInitStruct.HSIState = RCC_HSI_ON;
 c002a18:	e9cd 1209 	strd	r1, r2, [sp, #36]	@ 0x24
  RCC_OscInitStruct.PLL.PLLM = 4;
 c002a1c:	2404      	movs	r4, #4
  RCC_OscInitStruct.PLL.PLLN = 55;
 c002a1e:	2137      	movs	r1, #55	@ 0x37
  RCC_OscInitStruct.PLL.PLLP = RCC_PLLP_DIV7;
 c002a20:	2207      	movs	r2, #7
  if (HAL_RCC_OscConfig(&RCC_OscInitStruct) != HAL_OK)
 c002a22:	a806      	add	r0, sp, #24
  RCC_OscInitStruct.PLL.PLLSource = RCC_PLLSOURCE_HSI;
 c002a24:	e9cd 3311 	strd	r3, r3, [sp, #68]	@ 0x44
  RCC_OscInitStruct.PLL.PLLR = RCC_PLLR_DIV2;
 c002a28:	e9cd 3316 	strd	r3, r3, [sp, #88]	@ 0x58
  RCC_OscInitStruct.OscillatorType = RCC_OSCILLATORTYPE_HSI;
 c002a2c:	9306      	str	r3, [sp, #24]
  RCC_OscInitStruct.PLL.PLLP = RCC_PLLP_DIV7;
 c002a2e:	e9cd 1214 	strd	r1, r2, [sp, #80]	@ 0x50
  RCC_OscInitStruct.PLL.PLLM = 4;
 c002a32:	9413      	str	r4, [sp, #76]	@ 0x4c
  if (HAL_RCC_OscConfig(&RCC_OscInitStruct) != HAL_OK)
 c002a34:	f001 fb44 	bl	c0040c0 <HAL_RCC_OscConfig>
 c002a38:	4603      	mov	r3, r0
 c002a3a:	b108      	cbz	r0, c002a40 <SystemClock_Config+0x54>
 c002a3c:	b672      	cpsid	i
  while (1)
 c002a3e:	e7fe      	b.n	c002a3e <SystemClock_Config+0x52>
  RCC_ClkInitStruct.ClockType = RCC_CLOCKTYPE_HCLK|RCC_CLOCKTYPE_SYSCLK
 c002a40:	240f      	movs	r4, #15
  RCC_ClkInitStruct.SYSCLKSource = RCC_SYSCLKSOURCE_PLLCLK;
 c002a42:	2203      	movs	r2, #3
  if (HAL_RCC_ClockConfig(&RCC_ClkInitStruct, FLASH_LATENCY_5) != HAL_OK)
 c002a44:	2105      	movs	r1, #5
 c002a46:	a801      	add	r0, sp, #4
  RCC_ClkInitStruct.APB1CLKDivider = RCC_HCLK_DIV1;
 c002a48:	e9cd 3303 	strd	r3, r3, [sp, #12]
  RCC_ClkInitStruct.SYSCLKSource = RCC_SYSCLKSOURCE_PLLCLK;
 c002a4c:	e9cd 4201 	strd	r4, r2, [sp, #4]
  RCC_ClkInitStruct.APB2CLKDivider = RCC_HCLK_DIV1;
 c002a50:	9305      	str	r3, [sp, #20]
  if (HAL_RCC_ClockConfig(&RCC_ClkInitStruct, FLASH_LATENCY_5) != HAL_OK)
 c002a52:	f001 fefb 	bl	c00484c <HAL_RCC_ClockConfig>
 c002a56:	b108      	cbz	r0, c002a5c <SystemClock_Config+0x70>
 c002a58:	b672      	cpsid	i
  while (1)
 c002a5a:	e7fe      	b.n	c002a5a <SystemClock_Config+0x6e>
}
 c002a5c:	b018      	add	sp, #96	@ 0x60
 c002a5e:	bd10      	pop	{r4, pc}

0c002a60 <main>:
  SCB->SHCSR |= SCB_SHCSR_SECUREFAULTENA_Msk;
 c002a60:	4a21      	ldr	r2, [pc, #132]	@ (c002ae8 <main+0x88>)
{
 c002a62:	b508      	push	{r3, lr}
  SCB->SHCSR |= SCB_SHCSR_SECUREFAULTENA_Msk;
 c002a64:	6a53      	ldr	r3, [r2, #36]	@ 0x24
 c002a66:	f443 2300 	orr.w	r3, r3, #524288	@ 0x80000
 c002a6a:	6253      	str	r3, [r2, #36]	@ 0x24
  HAL_Init();
 c002a6c:	f000 ff0a 	bl	c003884 <HAL_Init>
  SystemClock_Config();
 c002a70:	f7ff ffbc 	bl	c0029ec <SystemClock_Config>
  MX_GTZC_S_Init();
 c002a74:	f7ff ff3c 	bl	c0028f0 <MX_GTZC_S_Init>
  MX_GPIO_Init();
 c002a78:	f7ff ff28 	bl	c0028cc <MX_GPIO_Init>
  MX_LPUART1_UART_Init();
 c002a7c:	f000 fe18 	bl	c0036b0 <MX_LPUART1_UART_Init>
  MX_TIM3_Init();
 c002a80:	f000 fd66 	bl	c003550 <MX_TIM3_Init>
  MX_TIM4_Init();
 c002a84:	f000 fd9e 	bl	c0035c4 <MX_TIM4_Init>
  SCB_NS->VTOR = VTOR_TABLE_NS_START_ADDR;
 c002a88:	4b18      	ldr	r3, [pc, #96]	@ (c002aec <main+0x8c>)
 c002a8a:	4919      	ldr	r1, [pc, #100]	@ (c002af0 <main+0x90>)
  \details Assigns the given value to the non-secure Main Stack Pointer (MSP) when in secure state.
  \param [in]    topOfMainStack  Main Stack Pointer value to set
 */
__STATIC_FORCEINLINE void __TZ_set_MSP_NS(uint32_t topOfMainStack)
{
  __ASM volatile ("MSR msp_ns, %0" : : "r" (topOfMainStack) : );
 c002a8c:	681a      	ldr	r2, [r3, #0]
 c002a8e:	608b      	str	r3, [r1, #8]
 c002a90:	f382 8888 	msr	MSP_NS, r2
  NonSecure_ResetHandler();
 c002a94:	685c      	ldr	r4, [r3, #4]
 c002a96:	0864      	lsrs	r4, r4, #1
 c002a98:	0064      	lsls	r4, r4, #1
 c002a9a:	4620      	mov	r0, r4
 c002a9c:	4621      	mov	r1, r4
 c002a9e:	4622      	mov	r2, r4
 c002aa0:	4623      	mov	r3, r4
 c002aa2:	eeb7 0a00 	vmov.f32	s0, #112	@ 0x3f800000  1.0
 c002aa6:	eef7 0a00 	vmov.f32	s1, #112	@ 0x3f800000  1.0
 c002aaa:	eeb7 1a00 	vmov.f32	s2, #112	@ 0x3f800000  1.0
 c002aae:	eef7 1a00 	vmov.f32	s3, #112	@ 0x3f800000  1.0
 c002ab2:	eeb7 2a00 	vmov.f32	s4, #112	@ 0x3f800000  1.0
 c002ab6:	eef7 2a00 	vmov.f32	s5, #112	@ 0x3f800000  1.0
 c002aba:	eeb7 3a00 	vmov.f32	s6, #112	@ 0x3f800000  1.0
 c002abe:	eef7 3a00 	vmov.f32	s7, #112	@ 0x3f800000  1.0
 c002ac2:	eeb7 4a00 	vmov.f32	s8, #112	@ 0x3f800000  1.0
 c002ac6:	eef7 4a00 	vmov.f32	s9, #112	@ 0x3f800000  1.0
 c002aca:	eeb7 5a00 	vmov.f32	s10, #112	@ 0x3f800000  1.0
 c002ace:	eef7 5a00 	vmov.f32	s11, #112	@ 0x3f800000  1.0
 c002ad2:	eeb7 6a00 	vmov.f32	s12, #112	@ 0x3f800000  1.0
 c002ad6:	eef7 6a00 	vmov.f32	s13, #112	@ 0x3f800000  1.0
 c002ada:	eeb7 7a00 	vmov.f32	s14, #112	@ 0x3f800000  1.0
 c002ade:	eef7 7a00 	vmov.f32	s15, #112	@ 0x3f800000  1.0
 c002ae2:	f7fd fba9 	bl	c000238 <__gnu_cmse_nonsecure_call>
  while (1)
 c002ae6:	e7fe      	b.n	c002ae6 <main+0x86>
 c002ae8:	e000ed00 	.word	0xe000ed00
 c002aec:	08040000 	.word	0x08040000
 c002af0:	e002ed00 	.word	0xe002ed00

0c002af4 <Error_Handler>:
  __ASM volatile ("cpsid i" : : : "memory");
 c002af4:	b672      	cpsid	i
  while (1)
 c002af6:	e7fe      	b.n	c002af6 <Error_Handler+0x2>

0c002af8 <optrand_rng>:
	//return end_addr-i;
}
#endif

unsigned char optrand_buffer[32];
int optrand_rng( unsigned char *target, size_t num_bytes ) {
 c002af8:	b508      	push	{r3, lr}
 c002afa:	460a      	mov	r2, r1
	memcpy( target, optrand_buffer, num_bytes );
 c002afc:	4902      	ldr	r1, [pc, #8]	@ (c002b08 <optrand_rng+0x10>)
 c002afe:	f003 fb4b 	bl	c006198 <memcpy>
	return 1;
}
 c002b02:	2001      	movs	r0, #1
 c002b04:	bd08      	pop	{r3, pc}
 c002b06:	bf00      	nop
 c002b08:	300000d4 	.word	0x300000d4

0c002b0c <verify_req.part.0>:
int verify_req(pox_call_t *pox_fn, uint8_t *pox_token) {
 c002b0c:	e92d 41f0 	stmdb	sp!, {r4, r5, r6, r7, r8, lr}
 c002b10:	4607      	mov	r7, r0
 c002b12:	f6ad 0df8 	subw	sp, sp, #2296	@ 0x8f8
	sha256_initialize(&hash);
 c002b16:	a802      	add	r0, sp, #8
 c002b18:	f7fd fd48 	bl	c0005ac <sha256_initialize>
	sha256_update(&hash, &(pox_fn->counter), 4);
 c002b1c:	2204      	movs	r2, #4
 c002b1e:	a802      	add	r0, sp, #8
 c002b20:	f107 0114 	add.w	r1, r7, #20
 c002b24:	f7fd fd70 	bl	c000608 <sha256_update>
	sha256_update(&hash, &(pox_fn->addr), 4);
 c002b28:	2204      	movs	r2, #4
 c002b2a:	4639      	mov	r1, r7
 c002b2c:	a802      	add	r0, sp, #8
 c002b2e:	f7fd fd6b 	bl	c000608 <sha256_update>
	sha256_finalize(&hash, pox_fn->input, pox_fn->input_size);
 c002b32:	e9d7 1201 	ldrd	r1, r2, [r7, #4]
 c002b36:	a802      	add	r0, sp, #8
 c002b38:	f7fd ff48 	bl	c0009cc <sha256_finalize>
	ts_init_verify( &verify_ctx, hash.hash, SHA256_DIGEST_SIZE, ps, vrf_pk );
 c002b3c:	4b2c      	ldr	r3, [pc, #176]	@ (c002bf0 <verify_req.part.0+0xe4>)
	memcpy( optrand_buffer, optrand, 32 );
 c002b3e:	4c2d      	ldr	r4, [pc, #180]	@ (c002bf4 <verify_req.part.0+0xe8>)
 c002b40:	4e2d      	ldr	r6, [pc, #180]	@ (c002bf8 <verify_req.part.0+0xec>)
	ts_init_verify( &verify_ctx, hash.hash, SHA256_DIGEST_SIZE, ps, vrf_pk );
 c002b42:	9300      	str	r3, [sp, #0]
	memcpy( optrand_buffer, optrand, 32 );
 c002b44:	ce0f      	ldmia	r6!, {r0, r1, r2, r3}
 c002b46:	c40f      	stmia	r4!, {r0, r1, r2, r3}
 c002b48:	e896 000f 	ldmia.w	r6, {r0, r1, r2, r3}
 c002b4c:	e884 000f 	stmia.w	r4, {r0, r1, r2, r3}
	ts_init_verify( &verify_ctx, hash.hash, SHA256_DIGEST_SIZE, ps, vrf_pk );
 c002b50:	2220      	movs	r2, #32
 c002b52:	4b2a      	ldr	r3, [pc, #168]	@ (c002bfc <verify_req.part.0+0xf0>)
 c002b54:	a902      	add	r1, sp, #8
 c002b56:	f50d 6092 	add.w	r0, sp, #1168	@ 0x490
	unsigned numSigs = 0;
 c002b5a:	2500      	movs	r5, #0
		HAL_UART_Transmit(&hlpuart1, "SPHINCSPHINC SED\n", 17, HAL_MAX_DELAY);
 c002b5c:	f8df 80a8 	ldr.w	r8, [pc, #168]	@ c002c08 <verify_req.part.0+0xfc>
	ts_init_verify( &verify_ctx, hash.hash, SHA256_DIGEST_SIZE, ps, vrf_pk );
 c002b60:	f7ff fd52 	bl	c002608 <ts_init_verify>
		uint8_t sig[1024]={0};
 c002b64:	2100      	movs	r1, #0
 c002b66:	f44f 727f 	mov.w	r2, #1020	@ 0x3fc
 c002b6a:	a825      	add	r0, sp, #148	@ 0x94
 c002b6c:	9124      	str	r1, [sp, #144]	@ 0x90
 c002b6e:	f003 fae7 	bl	c006140 <memset>
		int rem = 17088-numSigs;
 c002b72:	f244 23c0 	movw	r3, #17088	@ 0x42c0
 c002b76:	1b5c      	subs	r4, r3, r5
		if(rem > 1024) n = 1024;
 c002b78:	f5b4 6f80 	cmp.w	r4, #1024	@ 0x400
 c002b7c:	d924      	bls.n	c002bc8 <verify_req.part.0+0xbc>
		numSigs += n;
 c002b7e:	f44f 6680 	mov.w	r6, #1024	@ 0x400
		if(rem > 1024) n = 1024;
 c002b82:	4634      	mov	r4, r6
		numSigs += n;
 c002b84:	4435      	add	r5, r6
		HAL_UART_Transmit(&hlpuart1, "SPHINCSPHINC SED\n", 17, HAL_MAX_DELAY);
 c002b86:	f04f 33ff 	mov.w	r3, #4294967295
 c002b8a:	2211      	movs	r2, #17
 c002b8c:	4641      	mov	r1, r8
 c002b8e:	481c      	ldr	r0, [pc, #112]	@ (c002c00 <verify_req.part.0+0xf4>)
 c002b90:	f003 f980 	bl	c005e94 <HAL_UART_Transmit>
		HAL_UART_Receive(&hlpuart1, sig, n, HAL_MAX_DELAY);
 c002b94:	f04f 33ff 	mov.w	r3, #4294967295
 c002b98:	4632      	mov	r2, r6
 c002b9a:	a924      	add	r1, sp, #144	@ 0x90
 c002b9c:	4818      	ldr	r0, [pc, #96]	@ (c002c00 <verify_req.part.0+0xf4>)
 c002b9e:	f002 fe17 	bl	c0057d0 <HAL_UART_Receive>
		if (1 != ts_update_verify( sig, n, &verify_ctx )){
 c002ba2:	4621      	mov	r1, r4
 c002ba4:	f50d 6292 	add.w	r2, sp, #1168	@ 0x490
 c002ba8:	a824      	add	r0, sp, #144	@ 0x90
 c002baa:	f7ff fd41 	bl	c002630 <ts_update_verify>
 c002bae:	4603      	mov	r3, r0
 c002bb0:	2b01      	cmp	r3, #1
			HAL_UART_Transmit(&hlpuart1, "Fail\n", 5, HAL_MAX_DELAY);
 c002bb2:	4914      	ldr	r1, [pc, #80]	@ (c002c04 <verify_req.part.0+0xf8>)
 c002bb4:	4812      	ldr	r0, [pc, #72]	@ (c002c00 <verify_req.part.0+0xf4>)
		if (1 != ts_update_verify( sig, n, &verify_ctx )){
 c002bb6:	d0d5      	beq.n	c002b64 <verify_req.part.0+0x58>
			HAL_UART_Transmit(&hlpuart1, "Fail\n", 5, HAL_MAX_DELAY);
 c002bb8:	f04f 33ff 	mov.w	r3, #4294967295
 c002bbc:	2205      	movs	r2, #5
 c002bbe:	f003 f969 	bl	c005e94 <HAL_UART_Transmit>
			*(uint32_t*)(pox_fn->output) = n;
 c002bc2:	68fb      	ldr	r3, [r7, #12]
 c002bc4:	601c      	str	r4, [r3, #0]
	for (;;) {
 c002bc6:	e7cd      	b.n	c002b64 <verify_req.part.0+0x58>
		if (rem == 0) {
 c002bc8:	b114      	cbz	r4, c002bd0 <verify_req.part.0+0xc4>
		numSigs += n;
 c002bca:	461d      	mov	r5, r3
		HAL_UART_Receive(&hlpuart1, sig, n, HAL_MAX_DELAY);
 c002bcc:	b2a6      	uxth	r6, r4
 c002bce:	e7da      	b.n	c002b86 <verify_req.part.0+0x7a>
	if (1 != ts_verify( &verify_ctx )) {
 c002bd0:	f50d 6092 	add.w	r0, sp, #1168	@ 0x490
 c002bd4:	f7ff fe70 	bl	c0028b8 <ts_verify>
 c002bd8:	2801      	cmp	r0, #1
		pox_fn->output[0] = 0x88;
 c002bda:	bf14      	ite	ne
 c002bdc:	2288      	movne	r2, #136	@ 0x88
	pox_fn->output[0] = 0xaa;
 c002bde:	22aa      	moveq	r2, #170	@ 0xaa
}
 c002be0:	2001      	movs	r0, #1
	pox_fn->output[0] = 0xaa;
 c002be2:	68fb      	ldr	r3, [r7, #12]
 c002be4:	701a      	strb	r2, [r3, #0]
}
 c002be6:	f60d 0df8 	addw	sp, sp, #2296	@ 0x8f8
 c002bea:	e8bd 81f0 	ldmia.w	sp!, {r4, r5, r6, r7, r8, pc}
 c002bee:	bf00      	nop
 c002bf0:	30000044 	.word	0x30000044
 c002bf4:	300000d4 	.word	0x300000d4
 c002bf8:	30000024 	.word	0x30000024
 c002bfc:	0c0063e0 	.word	0x0c0063e0
 c002c00:	300001a0 	.word	0x300001a0
 c002c04:	0c00641c 	.word	0x0c00641c
 c002c08:	0c006408 	.word	0x0c006408

0c002c0c <__acle_se_SECURE_RegisterCallback>:
  if(func != NULL)
 c002c0c:	b111      	cbz	r1, c002c14 <__acle_se_SECURE_RegisterCallback+0x8>
    switch(CallbackId)
 c002c0e:	b3c0      	cbz	r0, c002c82 <__acle_se_SECURE_RegisterCallback+0x76>
 c002c10:	2801      	cmp	r0, #1
 c002c12:	d033      	beq.n	c002c7c <__acle_se_SECURE_RegisterCallback+0x70>
}
 c002c14:	4670      	mov	r0, lr
 c002c16:	4671      	mov	r1, lr
 c002c18:	4672      	mov	r2, lr
 c002c1a:	4673      	mov	r3, lr
 c002c1c:	eeb7 0a00 	vmov.f32	s0, #112	@ 0x3f800000  1.0
 c002c20:	eef7 0a00 	vmov.f32	s1, #112	@ 0x3f800000  1.0
 c002c24:	eeb7 1a00 	vmov.f32	s2, #112	@ 0x3f800000  1.0
 c002c28:	eef7 1a00 	vmov.f32	s3, #112	@ 0x3f800000  1.0
 c002c2c:	eeb7 2a00 	vmov.f32	s4, #112	@ 0x3f800000  1.0
 c002c30:	eef7 2a00 	vmov.f32	s5, #112	@ 0x3f800000  1.0
 c002c34:	eeb7 3a00 	vmov.f32	s6, #112	@ 0x3f800000  1.0
 c002c38:	eef7 3a00 	vmov.f32	s7, #112	@ 0x3f800000  1.0
 c002c3c:	eeb7 4a00 	vmov.f32	s8, #112	@ 0x3f800000  1.0
 c002c40:	eef7 4a00 	vmov.f32	s9, #112	@ 0x3f800000  1.0
 c002c44:	eeb7 5a00 	vmov.f32	s10, #112	@ 0x3f800000  1.0
 c002c48:	eef7 5a00 	vmov.f32	s11, #112	@ 0x3f800000  1.0
 c002c4c:	eeb7 6a00 	vmov.f32	s12, #112	@ 0x3f800000  1.0
 c002c50:	eef7 6a00 	vmov.f32	s13, #112	@ 0x3f800000  1.0
 c002c54:	eeb7 7a00 	vmov.f32	s14, #112	@ 0x3f800000  1.0
 c002c58:	eef7 7a00 	vmov.f32	s15, #112	@ 0x3f800000  1.0
 c002c5c:	f38e 8c00 	msr	CPSR_fs, lr
 c002c60:	b410      	push	{r4}
 c002c62:	eef1 ca10 	vmrs	ip, fpscr
 c002c66:	f64f 7460 	movw	r4, #65376	@ 0xff60
 c002c6a:	f6c0 74ff 	movt	r4, #4095	@ 0xfff
 c002c6e:	ea0c 0c04 	and.w	ip, ip, r4
 c002c72:	eee1 ca10 	vmsr	fpscr, ip
 c002c76:	bc10      	pop	{r4}
 c002c78:	46f4      	mov	ip, lr
 c002c7a:	4774      	bxns	lr
			pSecureErrorCallback = func;
 c002c7c:	4b02      	ldr	r3, [pc, #8]	@ (c002c88 <__acle_se_SECURE_RegisterCallback+0x7c>)
 c002c7e:	6019      	str	r1, [r3, #0]
}
 c002c80:	e7c8      	b.n	c002c14 <__acle_se_SECURE_RegisterCallback+0x8>
			pSecureFaultCallback = func;
 c002c82:	4b02      	ldr	r3, [pc, #8]	@ (c002c8c <__acle_se_SECURE_RegisterCallback+0x80>)
 c002c84:	6019      	str	r1, [r3, #0]
			break;
 c002c86:	e7c5      	b.n	c002c14 <__acle_se_SECURE_RegisterCallback+0x8>
 c002c88:	300000f4 	.word	0x300000f4
 c002c8c:	300000f8 	.word	0x300000f8

0c002c90 <__acle_se_SECURE_send>:
CMSE_NS_ENTRY void SECURE_send(uint8_t* message, int size){
 c002c90:	4684      	mov	ip, r0
 c002c92:	460a      	mov	r2, r1
 c002c94:	b508      	push	{r3, lr}
	HAL_UART_Transmit(&hlpuart1, message, size, HAL_MAX_DELAY);
 c002c96:	4661      	mov	r1, ip
 c002c98:	f04f 33ff 	mov.w	r3, #4294967295
 c002c9c:	b292      	uxth	r2, r2
 c002c9e:	481c      	ldr	r0, [pc, #112]	@ (c002d10 <__acle_se_SECURE_send+0x80>)
 c002ca0:	f003 f8f8 	bl	c005e94 <HAL_UART_Transmit>
};
 c002ca4:	e8bd 4008 	ldmia.w	sp!, {r3, lr}
 c002ca8:	4670      	mov	r0, lr
 c002caa:	4671      	mov	r1, lr
 c002cac:	4672      	mov	r2, lr
 c002cae:	4673      	mov	r3, lr
 c002cb0:	eeb7 0a00 	vmov.f32	s0, #112	@ 0x3f800000  1.0
 c002cb4:	eef7 0a00 	vmov.f32	s1, #112	@ 0x3f800000  1.0
 c002cb8:	eeb7 1a00 	vmov.f32	s2, #112	@ 0x3f800000  1.0
 c002cbc:	eef7 1a00 	vmov.f32	s3, #112	@ 0x3f800000  1.0
 c002cc0:	eeb7 2a00 	vmov.f32	s4, #112	@ 0x3f800000  1.0
 c002cc4:	eef7 2a00 	vmov.f32	s5, #112	@ 0x3f800000  1.0
 c002cc8:	eeb7 3a00 	vmov.f32	s6, #112	@ 0x3f800000  1.0
 c002ccc:	eef7 3a00 	vmov.f32	s7, #112	@ 0x3f800000  1.0
 c002cd0:	eeb7 4a00 	vmov.f32	s8, #112	@ 0x3f800000  1.0
 c002cd4:	eef7 4a00 	vmov.f32	s9, #112	@ 0x3f800000  1.0
 c002cd8:	eeb7 5a00 	vmov.f32	s10, #112	@ 0x3f800000  1.0
 c002cdc:	eef7 5a00 	vmov.f32	s11, #112	@ 0x3f800000  1.0
 c002ce0:	eeb7 6a00 	vmov.f32	s12, #112	@ 0x3f800000  1.0
 c002ce4:	eef7 6a00 	vmov.f32	s13, #112	@ 0x3f800000  1.0
 c002ce8:	eeb7 7a00 	vmov.f32	s14, #112	@ 0x3f800000  1.0
 c002cec:	eef7 7a00 	vmov.f32	s15, #112	@ 0x3f800000  1.0
 c002cf0:	f38e 8c00 	msr	CPSR_fs, lr
 c002cf4:	b410      	push	{r4}
 c002cf6:	eef1 ca10 	vmrs	ip, fpscr
 c002cfa:	f64f 7460 	movw	r4, #65376	@ 0xff60
 c002cfe:	f6c0 74ff 	movt	r4, #4095	@ 0xfff
 c002d02:	ea0c 0c04 	and.w	ip, ip, r4
 c002d06:	eee1 ca10 	vmsr	fpscr, ip
 c002d0a:	bc10      	pop	{r4}
 c002d0c:	46f4      	mov	ip, lr
 c002d0e:	4774      	bxns	lr
 c002d10:	300001a0 	.word	0x300001a0

0c002d14 <__acle_se_SECURE_recv>:
CMSE_NS_ENTRY void SECURE_recv(uint8_t* message, int size){
 c002d14:	4684      	mov	ip, r0
 c002d16:	460a      	mov	r2, r1
 c002d18:	b508      	push	{r3, lr}
	HAL_UART_Receive(&hlpuart1, message, size, HAL_MAX_DELAY);
 c002d1a:	4661      	mov	r1, ip
 c002d1c:	f04f 33ff 	mov.w	r3, #4294967295
 c002d20:	b292      	uxth	r2, r2
 c002d22:	481c      	ldr	r0, [pc, #112]	@ (c002d94 <__acle_se_SECURE_recv+0x80>)
 c002d24:	f002 fd54 	bl	c0057d0 <HAL_UART_Receive>
};
 c002d28:	e8bd 4008 	ldmia.w	sp!, {r3, lr}
 c002d2c:	4670      	mov	r0, lr
 c002d2e:	4671      	mov	r1, lr
 c002d30:	4672      	mov	r2, lr
 c002d32:	4673      	mov	r3, lr
 c002d34:	eeb7 0a00 	vmov.f32	s0, #112	@ 0x3f800000  1.0
 c002d38:	eef7 0a00 	vmov.f32	s1, #112	@ 0x3f800000  1.0
 c002d3c:	eeb7 1a00 	vmov.f32	s2, #112	@ 0x3f800000  1.0
 c002d40:	eef7 1a00 	vmov.f32	s3, #112	@ 0x3f800000  1.0
 c002d44:	eeb7 2a00 	vmov.f32	s4, #112	@ 0x3f800000  1.0
 c002d48:	eef7 2a00 	vmov.f32	s5, #112	@ 0x3f800000  1.0
 c002d4c:	eeb7 3a00 	vmov.f32	s6, #112	@ 0x3f800000  1.0
 c002d50:	eef7 3a00 	vmov.f32	s7, #112	@ 0x3f800000  1.0
 c002d54:	eeb7 4a00 	vmov.f32	s8, #112	@ 0x3f800000  1.0
 c002d58:	eef7 4a00 	vmov.f32	s9, #112	@ 0x3f800000  1.0
 c002d5c:	eeb7 5a00 	vmov.f32	s10, #112	@ 0x3f800000  1.0
 c002d60:	eef7 5a00 	vmov.f32	s11, #112	@ 0x3f800000  1.0
 c002d64:	eeb7 6a00 	vmov.f32	s12, #112	@ 0x3f800000  1.0
 c002d68:	eef7 6a00 	vmov.f32	s13, #112	@ 0x3f800000  1.0
 c002d6c:	eeb7 7a00 	vmov.f32	s14, #112	@ 0x3f800000  1.0
 c002d70:	eef7 7a00 	vmov.f32	s15, #112	@ 0x3f800000  1.0
 c002d74:	f38e 8c00 	msr	CPSR_fs, lr
 c002d78:	b410      	push	{r4}
 c002d7a:	eef1 ca10 	vmrs	ip, fpscr
 c002d7e:	f64f 7460 	movw	r4, #65376	@ 0xff60
 c002d82:	f6c0 74ff 	movt	r4, #4095	@ 0xfff
 c002d86:	ea0c 0c04 	and.w	ip, ip, r4
 c002d8a:	eee1 ca10 	vmsr	fpscr, ip
 c002d8e:	bc10      	pop	{r4}
 c002d90:	46f4      	mov	ip, lr
 c002d92:	4774      	bxns	lr
 c002d94:	300001a0 	.word	0x300001a0

0c002d98 <__acle_se_SECURE_avg>:
	return (a+b)/2;
 c002d98:	4408      	add	r0, r1
 c002d9a:	eb00 70d0 	add.w	r0, r0, r0, lsr #31
};
 c002d9e:	4671      	mov	r1, lr
 c002da0:	4672      	mov	r2, lr
 c002da2:	4673      	mov	r3, lr
 c002da4:	eeb7 0a00 	vmov.f32	s0, #112	@ 0x3f800000  1.0
 c002da8:	eef7 0a00 	vmov.f32	s1, #112	@ 0x3f800000  1.0
 c002dac:	eeb7 1a00 	vmov.f32	s2, #112	@ 0x3f800000  1.0
 c002db0:	eef7 1a00 	vmov.f32	s3, #112	@ 0x3f800000  1.0
 c002db4:	eeb7 2a00 	vmov.f32	s4, #112	@ 0x3f800000  1.0
 c002db8:	eef7 2a00 	vmov.f32	s5, #112	@ 0x3f800000  1.0
 c002dbc:	eeb7 3a00 	vmov.f32	s6, #112	@ 0x3f800000  1.0
 c002dc0:	eef7 3a00 	vmov.f32	s7, #112	@ 0x3f800000  1.0
 c002dc4:	eeb7 4a00 	vmov.f32	s8, #112	@ 0x3f800000  1.0
 c002dc8:	eef7 4a00 	vmov.f32	s9, #112	@ 0x3f800000  1.0
 c002dcc:	eeb7 5a00 	vmov.f32	s10, #112	@ 0x3f800000  1.0
 c002dd0:	eef7 5a00 	vmov.f32	s11, #112	@ 0x3f800000  1.0
 c002dd4:	eeb7 6a00 	vmov.f32	s12, #112	@ 0x3f800000  1.0
 c002dd8:	eef7 6a00 	vmov.f32	s13, #112	@ 0x3f800000  1.0
 c002ddc:	eeb7 7a00 	vmov.f32	s14, #112	@ 0x3f800000  1.0
 c002de0:	1040      	asrs	r0, r0, #1
 c002de2:	eef7 7a00 	vmov.f32	s15, #112	@ 0x3f800000  1.0
 c002de6:	f38e 8c00 	msr	CPSR_fs, lr
 c002dea:	b410      	push	{r4}
 c002dec:	eef1 ca10 	vmrs	ip, fpscr
 c002df0:	f64f 7460 	movw	r4, #65376	@ 0xff60
 c002df4:	f6c0 74ff 	movt	r4, #4095	@ 0xfff
 c002df8:	ea0c 0c04 	and.w	ip, ip, r4
 c002dfc:	eee1 ca10 	vmsr	fpscr, ip
 c002e00:	bc10      	pop	{r4}
 c002e02:	46f4      	mov	ip, lr
 c002e04:	4774      	bxns	lr
 c002e06:	bf00      	nop

0c002e08 <__acle_se_SECURE_setState>:
	if(stateChecked != 1 || exec != 1) return;
 c002e08:	4b29      	ldr	r3, [pc, #164]	@ (c002eb0 <__acle_se_SECURE_setState+0xa8>)
 c002e0a:	781b      	ldrb	r3, [r3, #0]
 c002e0c:	2b01      	cmp	r3, #1
 c002e0e:	d103      	bne.n	c002e18 <__acle_se_SECURE_setState+0x10>
 c002e10:	4b28      	ldr	r3, [pc, #160]	@ (c002eb4 <__acle_se_SECURE_setState+0xac>)
 c002e12:	781b      	ldrb	r3, [r3, #0]
 c002e14:	2b01      	cmp	r3, #1
 c002e16:	d033      	beq.n	c002e80 <__acle_se_SECURE_setState+0x78>
 c002e18:	4670      	mov	r0, lr
 c002e1a:	4671      	mov	r1, lr
 c002e1c:	4672      	mov	r2, lr
 c002e1e:	4673      	mov	r3, lr
 c002e20:	eeb7 0a00 	vmov.f32	s0, #112	@ 0x3f800000  1.0
 c002e24:	eef7 0a00 	vmov.f32	s1, #112	@ 0x3f800000  1.0
 c002e28:	eeb7 1a00 	vmov.f32	s2, #112	@ 0x3f800000  1.0
 c002e2c:	eef7 1a00 	vmov.f32	s3, #112	@ 0x3f800000  1.0
 c002e30:	eeb7 2a00 	vmov.f32	s4, #112	@ 0x3f800000  1.0
 c002e34:	eef7 2a00 	vmov.f32	s5, #112	@ 0x3f800000  1.0
 c002e38:	eeb7 3a00 	vmov.f32	s6, #112	@ 0x3f800000  1.0
 c002e3c:	eef7 3a00 	vmov.f32	s7, #112	@ 0x3f800000  1.0
 c002e40:	eeb7 4a00 	vmov.f32	s8, #112	@ 0x3f800000  1.0
 c002e44:	eef7 4a00 	vmov.f32	s9, #112	@ 0x3f800000  1.0
 c002e48:	eeb7 5a00 	vmov.f32	s10, #112	@ 0x3f800000  1.0
 c002e4c:	eef7 5a00 	vmov.f32	s11, #112	@ 0x3f800000  1.0
 c002e50:	eeb7 6a00 	vmov.f32	s12, #112	@ 0x3f800000  1.0
 c002e54:	eef7 6a00 	vmov.f32	s13, #112	@ 0x3f800000  1.0
 c002e58:	eeb7 7a00 	vmov.f32	s14, #112	@ 0x3f800000  1.0
 c002e5c:	eef7 7a00 	vmov.f32	s15, #112	@ 0x3f800000  1.0
 c002e60:	f38e 8c00 	msr	CPSR_fs, lr
 c002e64:	b410      	push	{r4}
 c002e66:	eef1 ca10 	vmrs	ip, fpscr
 c002e6a:	f64f 7460 	movw	r4, #65376	@ 0xff60
 c002e6e:	f6c0 74ff 	movt	r4, #4095	@ 0xfff
 c002e72:	ea0c 0c04 	and.w	ip, ip, r4
 c002e76:	eee1 ca10 	vmsr	fpscr, ip
 c002e7a:	bc10      	pop	{r4}
 c002e7c:	46f4      	mov	ip, lr
 c002e7e:	4774      	bxns	lr
CMSE_NS_ENTRY void SECURE_setState(uint8_t *state, int state_size) {
 c002e80:	b530      	push	{r4, r5, lr}
 c002e82:	4604      	mov	r4, r0
 c002e84:	460d      	mov	r5, r1
 c002e86:	b0a3      	sub	sp, #140	@ 0x8c
		sha256_initialize(&hash);
 c002e88:	4668      	mov	r0, sp
 c002e8a:	f7fd fb8f 	bl	c0005ac <sha256_initialize>
		sha256_finalize(&hash, state, state_size);
 c002e8e:	4621      	mov	r1, r4
		memcpy(secure_state, hash.hash, 32);
 c002e90:	466c      	mov	r4, sp
		sha256_finalize(&hash, state, state_size);
 c002e92:	462a      	mov	r2, r5
 c002e94:	4668      	mov	r0, sp
 c002e96:	f7fd fd99 	bl	c0009cc <sha256_finalize>
		memcpy(secure_state, hash.hash, 32);
 c002e9a:	cc0f      	ldmia	r4!, {r0, r1, r2, r3}
 c002e9c:	4d06      	ldr	r5, [pc, #24]	@ (c002eb8 <__acle_se_SECURE_setState+0xb0>)
 c002e9e:	c50f      	stmia	r5!, {r0, r1, r2, r3}
 c002ea0:	e894 000f 	ldmia.w	r4, {r0, r1, r2, r3}
 c002ea4:	e885 000f 	stmia.w	r5, {r0, r1, r2, r3}
}
 c002ea8:	b023      	add	sp, #140	@ 0x8c
 c002eaa:	e8bd 4030 	ldmia.w	sp!, {r4, r5, lr}
 c002eae:	e7b3      	b.n	c002e18 <__acle_se_SECURE_setState+0x10>
 c002eb0:	300000d0 	.word	0x300000d0
 c002eb4:	300000d2 	.word	0x300000d2
 c002eb8:	30000004 	.word	0x30000004

0c002ebc <__acle_se_SECURE_checkState>:
CMSE_NS_ENTRY void SECURE_checkState(uint8_t *state, int state_size) {
 c002ebc:	b530      	push	{r4, r5, lr}
 c002ebe:	460d      	mov	r5, r1
 c002ec0:	4604      	mov	r4, r0
 c002ec2:	b0a3      	sub	sp, #140	@ 0x8c
	sha256_initialize(&hash);
 c002ec4:	4668      	mov	r0, sp
 c002ec6:	f7fd fb71 	bl	c0005ac <sha256_initialize>
	sha256_finalize(&hash, state, state_size);
 c002eca:	462a      	mov	r2, r5
 c002ecc:	4621      	mov	r1, r4
 c002ece:	4668      	mov	r0, sp
 c002ed0:	f7fd fd7c 	bl	c0009cc <sha256_finalize>
	uint8_t cmp = (uint8_t) memcmp(secure_state, hash.hash, 32);
 c002ed4:	4669      	mov	r1, sp
 c002ed6:	2220      	movs	r2, #32
 c002ed8:	4821      	ldr	r0, [pc, #132]	@ (c002f60 <__acle_se_SECURE_checkState+0xa4>)
 c002eda:	f003 f921 	bl	c006120 <memcmp>
	stateChecked = (cmp == 0);
 c002ede:	b2c0      	uxtb	r0, r0
 c002ee0:	fab0 f080 	clz	r0, r0
	stateUsed = 1;
 c002ee4:	2101      	movs	r1, #1
	stateChecked = (cmp == 0);
 c002ee6:	4b1f      	ldr	r3, [pc, #124]	@ (c002f64 <__acle_se_SECURE_checkState+0xa8>)
	stateUsed = 1;
 c002ee8:	4a1f      	ldr	r2, [pc, #124]	@ (c002f68 <__acle_se_SECURE_checkState+0xac>)
	stateChecked = (cmp == 0);
 c002eea:	0940      	lsrs	r0, r0, #5
	stateUsed = 1;
 c002eec:	7011      	strb	r1, [r2, #0]
	stateChecked = (cmp == 0);
 c002eee:	7018      	strb	r0, [r3, #0]
}
 c002ef0:	b023      	add	sp, #140	@ 0x8c
 c002ef2:	eeb7 0a00 	vmov.f32	s0, #112	@ 0x3f800000  1.0
 c002ef6:	e8bd 4030 	ldmia.w	sp!, {r4, r5, lr}
 c002efa:	4670      	mov	r0, lr
 c002efc:	4671      	mov	r1, lr
 c002efe:	4672      	mov	r2, lr
 c002f00:	4673      	mov	r3, lr
 c002f02:	eef7 0a00 	vmov.f32	s1, #112	@ 0x3f800000  1.0
 c002f06:	eeb7 1a00 	vmov.f32	s2, #112	@ 0x3f800000  1.0
 c002f0a:	eef7 1a00 	vmov.f32	s3, #112	@ 0x3f800000  1.0
 c002f0e:	eeb7 2a00 	vmov.f32	s4, #112	@ 0x3f800000  1.0
 c002f12:	eef7 2a00 	vmov.f32	s5, #112	@ 0x3f800000  1.0
 c002f16:	eeb7 3a00 	vmov.f32	s6, #112	@ 0x3f800000  1.0
 c002f1a:	eef7 3a00 	vmov.f32	s7, #112	@ 0x3f800000  1.0
 c002f1e:	eeb7 4a00 	vmov.f32	s8, #112	@ 0x3f800000  1.0
 c002f22:	eef7 4a00 	vmov.f32	s9, #112	@ 0x3f800000  1.0
 c002f26:	eeb7 5a00 	vmov.f32	s10, #112	@ 0x3f800000  1.0
 c002f2a:	eef7 5a00 	vmov.f32	s11, #112	@ 0x3f800000  1.0
 c002f2e:	eeb7 6a00 	vmov.f32	s12, #112	@ 0x3f800000  1.0
 c002f32:	eef7 6a00 	vmov.f32	s13, #112	@ 0x3f800000  1.0
 c002f36:	eeb7 7a00 	vmov.f32	s14, #112	@ 0x3f800000  1.0
 c002f3a:	eef7 7a00 	vmov.f32	s15, #112	@ 0x3f800000  1.0
 c002f3e:	f38e 8c00 	msr	CPSR_fs, lr
 c002f42:	b410      	push	{r4}
 c002f44:	eef1 ca10 	vmrs	ip, fpscr
 c002f48:	f64f 7460 	movw	r4, #65376	@ 0xff60
 c002f4c:	f6c0 74ff 	movt	r4, #4095	@ 0xfff
 c002f50:	ea0c 0c04 	and.w	ip, ip, r4
 c002f54:	eee1 ca10 	vmsr	fpscr, ip
 c002f58:	bc10      	pop	{r4}
 c002f5a:	46f4      	mov	ip, lr
 c002f5c:	4774      	bxns	lr
 c002f5e:	bf00      	nop
 c002f60:	30000004 	.word	0x30000004
 c002f64:	300000d0 	.word	0x300000d0
 c002f68:	300000d1 	.word	0x300000d1

0c002f6c <__acle_se_SECURE_pox>:

CMSE_NS_ENTRY void SECURE_pox(pox_call_t *pox_fn, uint8_t *pox_token) {
 c002f6c:	e92d 47f0 	stmdb	sp!, {r4, r5, r6, r7, r8, r9, sl, lr}
	return (my_counter < pox_fn->counter) && verify_req(pox_fn, pox_token);
 c002f70:	4c7b      	ldr	r4, [pc, #492]	@ (c003160 <__acle_se_SECURE_pox+0x1f4>)
 c002f72:	6942      	ldr	r2, [r0, #20]
 c002f74:	6823      	ldr	r3, [r4, #0]
CMSE_NS_ENTRY void SECURE_pox(pox_call_t *pox_fn, uint8_t *pox_token) {
 c002f76:	f5ad 6d16 	sub.w	sp, sp, #2400	@ 0x960
	return (my_counter < pox_fn->counter) && verify_req(pox_fn, pox_token);
 c002f7a:	429a      	cmp	r2, r3
 c002f7c:	d837      	bhi.n	c002fee <__acle_se_SECURE_pox+0x82>
	#ifdef BENCHMARK_STACK
	uint32_t *out = (uint32_t*) (pox_fn->output);
	out[0] = stack_used();
	//out[0] = stack_pointer;
	#endif
}
 c002f7e:	f50d 6d16 	add.w	sp, sp, #2400	@ 0x960
 c002f82:	eeb7 0a00 	vmov.f32	s0, #112	@ 0x3f800000  1.0
 c002f86:	e8bd 47f0 	ldmia.w	sp!, {r4, r5, r6, r7, r8, r9, sl, lr}
 c002f8a:	4670      	mov	r0, lr
 c002f8c:	4671      	mov	r1, lr
 c002f8e:	4672      	mov	r2, lr
 c002f90:	4673      	mov	r3, lr
 c002f92:	eef7 0a00 	vmov.f32	s1, #112	@ 0x3f800000  1.0
 c002f96:	eeb7 1a00 	vmov.f32	s2, #112	@ 0x3f800000  1.0
 c002f9a:	eef7 1a00 	vmov.f32	s3, #112	@ 0x3f800000  1.0
 c002f9e:	eeb7 2a00 	vmov.f32	s4, #112	@ 0x3f800000  1.0
 c002fa2:	eef7 2a00 	vmov.f32	s5, #112	@ 0x3f800000  1.0
 c002fa6:	eeb7 3a00 	vmov.f32	s6, #112	@ 0x3f800000  1.0
 c002faa:	eef7 3a00 	vmov.f32	s7, #112	@ 0x3f800000  1.0
 c002fae:	eeb7 4a00 	vmov.f32	s8, #112	@ 0x3f800000  1.0
 c002fb2:	eef7 4a00 	vmov.f32	s9, #112	@ 0x3f800000  1.0
 c002fb6:	eeb7 5a00 	vmov.f32	s10, #112	@ 0x3f800000  1.0
 c002fba:	eef7 5a00 	vmov.f32	s11, #112	@ 0x3f800000  1.0
 c002fbe:	eeb7 6a00 	vmov.f32	s12, #112	@ 0x3f800000  1.0
 c002fc2:	eef7 6a00 	vmov.f32	s13, #112	@ 0x3f800000  1.0
 c002fc6:	eeb7 7a00 	vmov.f32	s14, #112	@ 0x3f800000  1.0
 c002fca:	eef7 7a00 	vmov.f32	s15, #112	@ 0x3f800000  1.0
 c002fce:	f38e 8c00 	msr	CPSR_fs, lr
 c002fd2:	b410      	push	{r4}
 c002fd4:	eef1 ca10 	vmrs	ip, fpscr
 c002fd8:	f64f 7460 	movw	r4, #65376	@ 0xff60
 c002fdc:	f6c0 74ff 	movt	r4, #4095	@ 0xfff
 c002fe0:	ea0c 0c04 	and.w	ip, ip, r4
 c002fe4:	eee1 ca10 	vmsr	fpscr, ip
 c002fe8:	bc10      	pop	{r4}
 c002fea:	46f4      	mov	ip, lr
 c002fec:	4774      	bxns	lr
 c002fee:	4606      	mov	r6, r0
 c002ff0:	460d      	mov	r5, r1
	if(pox_fn->counter < my_counter) return 0;
 c002ff2:	f7ff fd8b 	bl	c002b0c <verify_req.part.0>
	return (my_counter < pox_fn->counter) && verify_req(pox_fn, pox_token);
 c002ff6:	2800      	cmp	r0, #0
 c002ff8:	d0c1      	beq.n	c002f7e <__acle_se_SECURE_pox+0x12>
	my_counter = pox_fn->counter;
 c002ffa:	46b2      	mov	sl, r6
	exec = 1; stateUsed = 0; stateChecked = 0;
 c002ffc:	2201      	movs	r2, #1
 c002ffe:	2300      	movs	r3, #0
 c003000:	4f58      	ldr	r7, [pc, #352]	@ (c003164 <__acle_se_SECURE_pox+0x1f8>)
 c003002:	f8df 8188 	ldr.w	r8, [pc, #392]	@ c00318c <__acle_se_SECURE_pox+0x220>
 c003006:	703a      	strb	r2, [r7, #0]
 c003008:	f8df 9184 	ldr.w	r9, [pc, #388]	@ c003190 <__acle_se_SECURE_pox+0x224>
	my_counter = pox_fn->counter;
 c00300c:	f85a 2f14 	ldr.w	r2, [sl, #20]!
	sha256_initialize(&hash);
 c003010:	a802      	add	r0, sp, #8
	exec = 1; stateUsed = 0; stateChecked = 0;
 c003012:	f888 3000 	strb.w	r3, [r8]
 c003016:	f889 3000 	strb.w	r3, [r9]
	my_counter = pox_fn->counter;
 c00301a:	6022      	str	r2, [r4, #0]
	sha256_initialize(&hash);
 c00301c:	f7fd fac6 	bl	c0005ac <sha256_initialize>
	sha256_update(&hash, &(pox_fn->counter), 4);
 c003020:	4651      	mov	r1, sl
 c003022:	a802      	add	r0, sp, #8
 c003024:	2204      	movs	r2, #4
 c003026:	f7fd faef 	bl	c000608 <sha256_update>
	sha256_update(&hash, &(pox_fn->addr), 4);
 c00302a:	4631      	mov	r1, r6
 c00302c:	a802      	add	r0, sp, #8
 c00302e:	2204      	movs	r2, #4
 c003030:	f7fd faea 	bl	c000608 <sha256_update>
	sha256_update(&hash, pox_fn->input, pox_fn->input_size);
 c003034:	e9d6 1201 	ldrd	r1, r2, [r6, #4]
 c003038:	a802      	add	r0, sp, #8
 c00303a:	f7fd fae5 	bl	c000608 <sha256_update>
	sha256_update(&hash, mem, mem_len);
 c00303e:	f44f 2280 	mov.w	r2, #262144	@ 0x40000
 c003042:	4949      	ldr	r1, [pc, #292]	@ (c003168 <__acle_se_SECURE_pox+0x1fc>)
 c003044:	a802      	add	r0, sp, #8
 c003046:	f7fd fadf 	bl	c000608 <sha256_update>
 c00304a:	b672      	cpsid	i
	fn();
 c00304c:	6834      	ldr	r4, [r6, #0]
 c00304e:	0864      	lsrs	r4, r4, #1
 c003050:	0064      	lsls	r4, r4, #1
 c003052:	4620      	mov	r0, r4
 c003054:	4621      	mov	r1, r4
 c003056:	4622      	mov	r2, r4
 c003058:	4623      	mov	r3, r4
 c00305a:	eeb7 0a00 	vmov.f32	s0, #112	@ 0x3f800000  1.0
 c00305e:	eef7 0a00 	vmov.f32	s1, #112	@ 0x3f800000  1.0
 c003062:	eeb7 1a00 	vmov.f32	s2, #112	@ 0x3f800000  1.0
 c003066:	eef7 1a00 	vmov.f32	s3, #112	@ 0x3f800000  1.0
 c00306a:	eeb7 2a00 	vmov.f32	s4, #112	@ 0x3f800000  1.0
 c00306e:	eef7 2a00 	vmov.f32	s5, #112	@ 0x3f800000  1.0
 c003072:	eeb7 3a00 	vmov.f32	s6, #112	@ 0x3f800000  1.0
 c003076:	eef7 3a00 	vmov.f32	s7, #112	@ 0x3f800000  1.0
 c00307a:	eeb7 4a00 	vmov.f32	s8, #112	@ 0x3f800000  1.0
 c00307e:	eef7 4a00 	vmov.f32	s9, #112	@ 0x3f800000  1.0
 c003082:	eeb7 5a00 	vmov.f32	s10, #112	@ 0x3f800000  1.0
 c003086:	eef7 5a00 	vmov.f32	s11, #112	@ 0x3f800000  1.0
 c00308a:	eeb7 6a00 	vmov.f32	s12, #112	@ 0x3f800000  1.0
 c00308e:	eef7 6a00 	vmov.f32	s13, #112	@ 0x3f800000  1.0
 c003092:	eeb7 7a00 	vmov.f32	s14, #112	@ 0x3f800000  1.0
 c003096:	eef7 7a00 	vmov.f32	s15, #112	@ 0x3f800000  1.0
 c00309a:	f7fd f8cd 	bl	c000238 <__gnu_cmse_nonsecure_call>
	if(exec && stateUsed && !stateChecked) {
 c00309e:	783b      	ldrb	r3, [r7, #0]
 c0030a0:	b133      	cbz	r3, c0030b0 <__acle_se_SECURE_pox+0x144>
 c0030a2:	f898 3000 	ldrb.w	r3, [r8]
 c0030a6:	b11b      	cbz	r3, c0030b0 <__acle_se_SECURE_pox+0x144>
 c0030a8:	f899 3000 	ldrb.w	r3, [r9]
 c0030ac:	2b00      	cmp	r3, #0
 c0030ae:	d04f      	beq.n	c003150 <__acle_se_SECURE_pox+0x1e4>
	sha256_finalize(&hash, pox_fn->output, pox_fn->output_size);
 c0030b0:	e9d6 1203 	ldrd	r1, r2, [r6, #12]
 c0030b4:	a802      	add	r0, sp, #8
 c0030b6:	f7fd fc89 	bl	c0009cc <sha256_finalize>
	ts_init_verify( &verify_ctx, hash.hash, SHA256_DIGEST_SIZE, ps, vrf_pk );
 c0030ba:	4b2c      	ldr	r3, [pc, #176]	@ (c00316c <__acle_se_SECURE_pox+0x200>)
 c0030bc:	4c2c      	ldr	r4, [pc, #176]	@ (c003170 <__acle_se_SECURE_pox+0x204>)
 c0030be:	9300      	str	r3, [sp, #0]
 c0030c0:	2220      	movs	r2, #32
 c0030c2:	6823      	ldr	r3, [r4, #0]
 c0030c4:	a902      	add	r1, sp, #8
 c0030c6:	f50d 609f 	add.w	r0, sp, #1272	@ 0x4f8
 c0030ca:	f7ff fa9d 	bl	c002608 <ts_init_verify>
	ts_init_sign( &ctx, hash.hash, SHA256_DIGEST_SIZE, ps, prv_sk, optrand_rng );
 c0030ce:	4a29      	ldr	r2, [pc, #164]	@ (c003174 <__acle_se_SECURE_pox+0x208>)
 c0030d0:	6823      	ldr	r3, [r4, #0]
 c0030d2:	9201      	str	r2, [sp, #4]
 c0030d4:	4a28      	ldr	r2, [pc, #160]	@ (c003178 <__acle_se_SECURE_pox+0x20c>)
 c0030d6:	a902      	add	r1, sp, #8
 c0030d8:	9200      	str	r2, [sp, #0]
 c0030da:	a824      	add	r0, sp, #144	@ 0x90
 c0030dc:	2220      	movs	r2, #32
 c0030de:	f7fe fd11 	bl	c001b04 <ts_init_sign>
			HAL_UART_Transmit(&hlpuart1, "Fail2\n", 6, HAL_MAX_DELAY);
 c0030e2:	f8df a0b0 	ldr.w	sl, [pc, #176]	@ c003194 <__acle_se_SECURE_pox+0x228>
 c0030e6:	4e25      	ldr	r6, [pc, #148]	@ (c00317c <__acle_se_SECURE_pox+0x210>)
		unsigned n = ts_sign( pox_token, sizeof pox_token, &ctx );
 c0030e8:	2104      	movs	r1, #4
 c0030ea:	aa24      	add	r2, sp, #144	@ 0x90
 c0030ec:	4628      	mov	r0, r5
 c0030ee:	f7fe febb 	bl	c001e68 <ts_sign>
 c0030f2:	4604      	mov	r4, r0
		if (1 != ts_update_verify( pox_token, n, &verify_ctx )){
 c0030f4:	f50d 629f 	add.w	r2, sp, #1272	@ 0x4f8
 c0030f8:	4628      	mov	r0, r5
 c0030fa:	4621      	mov	r1, r4
 c0030fc:	f7ff fa98 	bl	c002630 <ts_update_verify>
 c003100:	2801      	cmp	r0, #1
 c003102:	d006      	beq.n	c003112 <__acle_se_SECURE_pox+0x1a6>
			HAL_UART_Transmit(&hlpuart1, "Fail2\n", 6, HAL_MAX_DELAY);
 c003104:	f04f 33ff 	mov.w	r3, #4294967295
 c003108:	2206      	movs	r2, #6
 c00310a:	4651      	mov	r1, sl
 c00310c:	4630      	mov	r0, r6
 c00310e:	f002 fec1 	bl	c005e94 <HAL_UART_Transmit>
		if (n == 0) break;
 c003112:	2c00      	cmp	r4, #0
 c003114:	d1e8      	bne.n	c0030e8 <__acle_se_SECURE_pox+0x17c>
	if (1 != ts_verify( &verify_ctx )) {
 c003116:	f50d 609f 	add.w	r0, sp, #1272	@ 0x4f8
 c00311a:	f7ff fbcd 	bl	c0028b8 <ts_verify>
 c00311e:	2801      	cmp	r0, #1
		HAL_UART_Transmit(&hlpuart1, "Fail3\n", 6, HAL_MAX_DELAY);
 c003120:	bf14      	ite	ne
 c003122:	4917      	ldrne	r1, [pc, #92]	@ (c003180 <__acle_se_SECURE_pox+0x214>)
		HAL_UART_Transmit(&hlpuart1, "YEAHH\n", 6, HAL_MAX_DELAY);
 c003124:	4917      	ldreq	r1, [pc, #92]	@ (c003184 <__acle_se_SECURE_pox+0x218>)
		HAL_UART_Transmit(&hlpuart1, "Fail3\n", 6, HAL_MAX_DELAY);
 c003126:	f04f 33ff 	mov.w	r3, #4294967295
 c00312a:	2206      	movs	r2, #6
		HAL_UART_Transmit(&hlpuart1, "YEAHH\n", 6, HAL_MAX_DELAY);
 c00312c:	4813      	ldr	r0, [pc, #76]	@ (c00317c <__acle_se_SECURE_pox+0x210>)
 c00312e:	f002 feb1 	bl	c005e94 <HAL_UART_Transmit>
	exec = 0; stateUsed = 0; stateChecked = 0;
 c003132:	2300      	movs	r3, #0
 c003134:	703b      	strb	r3, [r7, #0]
 c003136:	f888 3000 	strb.w	r3, [r8]
 c00313a:	f889 3000 	strb.w	r3, [r9]
  __ASM volatile ("cpsie i" : : : "memory");
 c00313e:	b662      	cpsie	i
	HAL_UART_Transmit(&hlpuart1, "Success\n", 8, HAL_MAX_DELAY);
 c003140:	f04f 33ff 	mov.w	r3, #4294967295
 c003144:	2208      	movs	r2, #8
 c003146:	4910      	ldr	r1, [pc, #64]	@ (c003188 <__acle_se_SECURE_pox+0x21c>)
 c003148:	480c      	ldr	r0, [pc, #48]	@ (c00317c <__acle_se_SECURE_pox+0x210>)
 c00314a:	f002 fea3 	bl	c005e94 <HAL_UART_Transmit>
 c00314e:	e716      	b.n	c002f7e <__acle_se_SECURE_pox+0x12>
	exec = 0; stateUsed = 0; stateChecked = 0;
 c003150:	703b      	strb	r3, [r7, #0]
 c003152:	f888 3000 	strb.w	r3, [r8]
 c003156:	f889 3000 	strb.w	r3, [r9]
 c00315a:	b662      	cpsie	i
		return;
 c00315c:	e70f      	b.n	c002f7e <__acle_se_SECURE_pox+0x12>
 c00315e:	bf00      	nop
 c003160:	300000cc 	.word	0x300000cc
 c003164:	300000d2 	.word	0x300000d2
 c003168:	08040000 	.word	0x08040000
 c00316c:	30000044 	.word	0x30000044
 c003170:	30000000 	.word	0x30000000
 c003174:	0c002af9 	.word	0x0c002af9
 c003178:	30000064 	.word	0x30000064
 c00317c:	300001a0 	.word	0x300001a0
 c003180:	0c00642c 	.word	0x0c00642c
 c003184:	0c006434 	.word	0x0c006434
 c003188:	0c00643c 	.word	0x0c00643c
 c00318c:	300000d1 	.word	0x300000d1
 c003190:	300000d0 	.word	0x300000d0
 c003194:	0c006424 	.word	0x0c006424

0c003198 <HAL_MspInit>:

  /* System interrupt init*/

  /* Peripheral interrupt init */
  /* GTZC_IRQn interrupt configuration */
  HAL_NVIC_SetPriority(GTZC_IRQn, 0, 0);
 c003198:	2200      	movs	r2, #0
  __HAL_RCC_SYSCFG_CLK_ENABLE();
 c00319a:	4b2d      	ldr	r3, [pc, #180]	@ (c003250 <HAL_MspInit+0xb8>)
{
 c00319c:	b500      	push	{lr}
  __HAL_RCC_SYSCFG_CLK_ENABLE();
 c00319e:	6e19      	ldr	r1, [r3, #96]	@ 0x60
{
 c0031a0:	b085      	sub	sp, #20
  __HAL_RCC_SYSCFG_CLK_ENABLE();
 c0031a2:	f041 0101 	orr.w	r1, r1, #1
 c0031a6:	6619      	str	r1, [r3, #96]	@ 0x60
 c0031a8:	6e19      	ldr	r1, [r3, #96]	@ 0x60
  HAL_NVIC_SetPriority(GTZC_IRQn, 0, 0);
 c0031aa:	2008      	movs	r0, #8
  __HAL_RCC_SYSCFG_CLK_ENABLE();
 c0031ac:	f001 0101 	and.w	r1, r1, #1
 c0031b0:	9101      	str	r1, [sp, #4]
 c0031b2:	9901      	ldr	r1, [sp, #4]
  __HAL_RCC_PWR_CLK_ENABLE();
 c0031b4:	6d99      	ldr	r1, [r3, #88]	@ 0x58
 c0031b6:	f041 5180 	orr.w	r1, r1, #268435456	@ 0x10000000
 c0031ba:	6599      	str	r1, [r3, #88]	@ 0x58
 c0031bc:	6d99      	ldr	r1, [r3, #88]	@ 0x58
 c0031be:	f001 5180 	and.w	r1, r1, #268435456	@ 0x10000000
 c0031c2:	9102      	str	r1, [sp, #8]
 c0031c4:	9902      	ldr	r1, [sp, #8]
  __HAL_RCC_GTZC_CLK_ENABLE();
 c0031c6:	6c99      	ldr	r1, [r3, #72]	@ 0x48
 c0031c8:	f441 0180 	orr.w	r1, r1, #4194304	@ 0x400000
 c0031cc:	6499      	str	r1, [r3, #72]	@ 0x48
 c0031ce:	6c9b      	ldr	r3, [r3, #72]	@ 0x48
  HAL_NVIC_SetPriority(GTZC_IRQn, 0, 0);
 c0031d0:	4611      	mov	r1, r2
  __HAL_RCC_GTZC_CLK_ENABLE();
 c0031d2:	f403 0380 	and.w	r3, r3, #4194304	@ 0x400000
 c0031d6:	9303      	str	r3, [sp, #12]
 c0031d8:	9b03      	ldr	r3, [sp, #12]
  HAL_NVIC_SetPriority(GTZC_IRQn, 0, 0);
 c0031da:	f000 fb89 	bl	c0038f0 <HAL_NVIC_SetPriority>
  /* GTZC_IRQn interrupt configuration */
  HAL_NVIC_EnableIRQ(GTZC_IRQn);
 c0031de:	2008      	movs	r0, #8
 c0031e0:	f000 fbc2 	bl	c003968 <HAL_NVIC_EnableIRQ>

  /** Disable the internal Pull-Up in Dead Battery pins of UCPD peripheral
  */
  HAL_PWREx_DisableUCPDDeadBattery();
 c0031e4:	f000 feca 	bl	c003f7c <HAL_PWREx_DisableUCPDDeadBattery>

  /** PWR Non-Privilege/Non-Secure Items Configurations
  */
  HAL_PWR_ConfigAttributes(PWR_WKUP1, PWR_NSEC |PWR_NPRIV);
 c0031e8:	f44f 7140 	mov.w	r1, #768	@ 0x300
 c0031ec:	2001      	movs	r0, #1
 c0031ee:	f000 fe49 	bl	c003e84 <HAL_PWR_ConfigAttributes>
  HAL_PWR_ConfigAttributes(PWR_WKUP2, PWR_NSEC |PWR_NPRIV);
 c0031f2:	f44f 7140 	mov.w	r1, #768	@ 0x300
 c0031f6:	2002      	movs	r0, #2
 c0031f8:	f000 fe44 	bl	c003e84 <HAL_PWR_ConfigAttributes>
  HAL_PWR_ConfigAttributes(PWR_WKUP3, PWR_NSEC |PWR_NPRIV);
 c0031fc:	f44f 7140 	mov.w	r1, #768	@ 0x300
 c003200:	2004      	movs	r0, #4
 c003202:	f000 fe3f 	bl	c003e84 <HAL_PWR_ConfigAttributes>
  HAL_PWR_ConfigAttributes(PWR_WKUP4, PWR_NSEC |PWR_NPRIV);
 c003206:	f44f 7140 	mov.w	r1, #768	@ 0x300
 c00320a:	2008      	movs	r0, #8
 c00320c:	f000 fe3a 	bl	c003e84 <HAL_PWR_ConfigAttributes>
  HAL_PWR_ConfigAttributes(PWR_WKUP5, PWR_NSEC |PWR_NPRIV);
 c003210:	f44f 7140 	mov.w	r1, #768	@ 0x300
 c003214:	2010      	movs	r0, #16
 c003216:	f000 fe35 	bl	c003e84 <HAL_PWR_ConfigAttributes>
  HAL_PWR_ConfigAttributes(PWR_VDM, PWR_NSEC |PWR_NPRIV);
 c00321a:	f44f 7140 	mov.w	r1, #768	@ 0x300
 c00321e:	f44f 7000 	mov.w	r0, #512	@ 0x200
 c003222:	f000 fe2f 	bl	c003e84 <HAL_PWR_ConfigAttributes>
  HAL_PWR_ConfigAttributes(PWR_APC, PWR_NSEC |PWR_NPRIV);
 c003226:	f44f 7140 	mov.w	r1, #768	@ 0x300
 c00322a:	f44f 6000 	mov.w	r0, #2048	@ 0x800
 c00322e:	f000 fe29 	bl	c003e84 <HAL_PWR_ConfigAttributes>
  HAL_PWR_ConfigAttributes(PWR_LPM, PWR_NSEC |PWR_NPRIV);
 c003232:	f44f 7140 	mov.w	r1, #768	@ 0x300
 c003236:	f44f 7080 	mov.w	r0, #256	@ 0x100
 c00323a:	f000 fe23 	bl	c003e84 <HAL_PWR_ConfigAttributes>
  HAL_PWR_ConfigAttributes(PWR_VB, PWR_NSEC |PWR_NPRIV);
 c00323e:	f44f 7140 	mov.w	r1, #768	@ 0x300
 c003242:	f44f 6080 	mov.w	r0, #1024	@ 0x400

  /* USER CODE BEGIN MspInit 1 */

  /* USER CODE END MspInit 1 */
}
 c003246:	b005      	add	sp, #20
 c003248:	f85d eb04 	ldr.w	lr, [sp], #4
  HAL_PWR_ConfigAttributes(PWR_VB, PWR_NSEC |PWR_NPRIV);
 c00324c:	f000 be1a 	b.w	c003e84 <HAL_PWR_ConfigAttributes>
 c003250:	50021000 	.word	0x50021000

0c003254 <NMI_Handler>:
{
  /* USER CODE BEGIN NonMaskableInt_IRQn 0 */

  /* USER CODE END NonMaskableInt_IRQn 0 */
  /* USER CODE BEGIN NonMaskableInt_IRQn 1 */
  while (1)
 c003254:	e7fe      	b.n	c003254 <NMI_Handler>
 c003256:	bf00      	nop

0c003258 <HardFault_Handler>:
void HardFault_Handler(void)
{
  /* USER CODE BEGIN HardFault_IRQn 0 */

  /* USER CODE END HardFault_IRQn 0 */
  while (1)
 c003258:	e7fe      	b.n	c003258 <HardFault_Handler>
 c00325a:	bf00      	nop

0c00325c <MemManage_Handler>:
void MemManage_Handler(void)
{
  /* USER CODE BEGIN MemoryManagement_IRQn 0 */

  /* USER CODE END MemoryManagement_IRQn 0 */
  while (1)
 c00325c:	e7fe      	b.n	c00325c <MemManage_Handler>
 c00325e:	bf00      	nop

0c003260 <BusFault_Handler>:
void BusFault_Handler(void)
{
  /* USER CODE BEGIN BusFault_IRQn 0 */

  /* USER CODE END BusFault_IRQn 0 */
  while (1)
 c003260:	e7fe      	b.n	c003260 <BusFault_Handler>
 c003262:	bf00      	nop

0c003264 <UsageFault_Handler>:
void UsageFault_Handler(void)
{
  /* USER CODE BEGIN UsageFault_IRQn 0 */

  /* USER CODE END UsageFault_IRQn 0 */
  while (1)
 c003264:	e7fe      	b.n	c003264 <UsageFault_Handler>
 c003266:	bf00      	nop

0c003268 <SecureFault_Handler>:
void SecureFault_Handler(void)
{
  /* USER CODE BEGIN SecureFault_IRQn 0 */

  /* USER CODE END SecureFault_IRQn 0 */
  while (1)
 c003268:	e7fe      	b.n	c003268 <SecureFault_Handler>
 c00326a:	bf00      	nop

0c00326c <SVC_Handler>:

  /* USER CODE END SVCall_IRQn 0 */
  /* USER CODE BEGIN SVCall_IRQn 1 */

  /* USER CODE END SVCall_IRQn 1 */
}
 c00326c:	4770      	bx	lr
 c00326e:	bf00      	nop

0c003270 <DebugMon_Handler>:

/**
  * @brief This function handles Debug monitor.
  */
void DebugMon_Handler(void)
 c003270:	4770      	bx	lr
 c003272:	bf00      	nop

0c003274 <PendSV_Handler>:
}

/**
  * @brief This function handles Pendable request for system service.
  */
void PendSV_Handler(void)
 c003274:	4770      	bx	lr
 c003276:	bf00      	nop

0c003278 <SysTick_Handler>:
void SysTick_Handler(void)
{
  /* USER CODE BEGIN SysTick_IRQn 0 */

  /* USER CODE END SysTick_IRQn 0 */
  HAL_IncTick();
 c003278:	f000 bb16 	b.w	c0038a8 <HAL_IncTick>

0c00327c <GTZC_IRQHandler>:
void GTZC_IRQHandler(void)
{
  /* USER CODE BEGIN GTZC_IRQn 0 */

  /* USER CODE END GTZC_IRQn 0 */
  HAL_GTZC_IRQHandler();
 c00327c:	f000 bdba 	b.w	c003df4 <HAL_GTZC_IRQHandler>

0c003280 <TIM3_IRQHandler>:
void TIM3_IRQHandler(void)
{
  /* USER CODE BEGIN TIM3_IRQn 0 */

  /* USER CODE END TIM3_IRQn 0 */
  HAL_TIM_IRQHandler(&htim3);
 c003280:	4801      	ldr	r0, [pc, #4]	@ (c003288 <TIM3_IRQHandler+0x8>)
 c003282:	f002 b997 	b.w	c0055b4 <HAL_TIM_IRQHandler>
 c003286:	bf00      	nop
 c003288:	30000150 	.word	0x30000150

0c00328c <TIM4_IRQHandler>:
void TIM4_IRQHandler(void)
{
  /* USER CODE BEGIN TIM4_IRQn 0 */

  /* USER CODE END TIM4_IRQn 0 */
  HAL_TIM_IRQHandler(&htim4);
 c00328c:	4801      	ldr	r0, [pc, #4]	@ (c003294 <TIM4_IRQHandler+0x8>)
 c00328e:	f002 b991 	b.w	c0055b4 <HAL_TIM_IRQHandler>
 c003292:	bf00      	nop
 c003294:	30000100 	.word	0x30000100

0c003298 <SystemInit>:
{

#if defined (__SAUREGION_PRESENT) && (__SAUREGION_PRESENT == 1U)

  #if defined (SAU_INIT_REGION0) && (SAU_INIT_REGION0 == 1U)
    SAU_INIT_REGION(0);
 c003298:	2200      	movs	r2, #0
  #endif

  #if defined (SAU_INIT_REGION1) && (SAU_INIT_REGION1 == 1U)
    SAU_INIT_REGION(1);
 c00329a:	2101      	movs	r1, #1
  #endif

  #if defined (SAU_INIT_REGION2) && (SAU_INIT_REGION2 == 1U)
    SAU_INIT_REGION(2);
 c00329c:	f04f 0c02 	mov.w	ip, #2
  * @brief  Setup the microcontroller system.
  * @retval None
  */

void SystemInit(void)
{
 c0032a0:	e92d 47f0 	stmdb	sp!, {r4, r5, r6, r7, r8, r9, sl, lr}
  #endif

  #if defined (SAU_INIT_REGION3) && (SAU_INIT_REGION3 == 1U)
    SAU_INIT_REGION(3);
 c0032a4:	f04f 4680 	mov.w	r6, #1073741824	@ 0x40000000
 c0032a8:	2703      	movs	r7, #3
  #endif

  #if defined (SAU_INIT_REGION4) && (SAU_INIT_REGION4 == 1U)
    SAU_INIT_REGION(4);
 c0032aa:	f04f 40c0 	mov.w	r0, #1610612736	@ 0x60000000
 c0032ae:	2504      	movs	r5, #4
  #endif

  #if defined (SAU_INIT_REGION5) && (SAU_INIT_REGION5 == 1U)
    SAU_INIT_REGION(5);
 c0032b0:	2405      	movs	r4, #5
    SAU_INIT_REGION(0);
 c0032b2:	4b30      	ldr	r3, [pc, #192]	@ (c003374 <SystemInit+0xdc>)
 c0032b4:	f8df a0d8 	ldr.w	sl, [pc, #216]	@ c003390 <SystemInit+0xf8>
 c0032b8:	f8df 90d8 	ldr.w	r9, [pc, #216]	@ c003394 <SystemInit+0xfc>
    SAU_INIT_REGION(1);
 c0032bc:	f8df 80d8 	ldr.w	r8, [pc, #216]	@ c003398 <SystemInit+0x100>
 c0032c0:	f8df e0d8 	ldr.w	lr, [pc, #216]	@ c00339c <SystemInit+0x104>
    SAU_INIT_REGION(0);
 c0032c4:	f8c3 20d8 	str.w	r2, [r3, #216]	@ 0xd8
 c0032c8:	f8c3 a0dc 	str.w	sl, [r3, #220]	@ 0xdc
 c0032cc:	f8c3 90e0 	str.w	r9, [r3, #224]	@ 0xe0
    SAU_INIT_REGION(1);
 c0032d0:	f8c3 10d8 	str.w	r1, [r3, #216]	@ 0xd8
 c0032d4:	f8c3 80dc 	str.w	r8, [r3, #220]	@ 0xdc
 c0032d8:	f8c3 e0e0 	str.w	lr, [r3, #224]	@ 0xe0
    SAU_INIT_REGION(2);
 c0032dc:	f8c3 c0d8 	str.w	ip, [r3, #216]	@ 0xd8
 c0032e0:	f8df c0bc 	ldr.w	ip, [pc, #188]	@ c0033a0 <SystemInit+0x108>
 c0032e4:	f8c3 c0dc 	str.w	ip, [r3, #220]	@ 0xdc
 c0032e8:	f50c 3c1f 	add.w	ip, ip, #162816	@ 0x27c00
 c0032ec:	f20c 3ce1 	addw	ip, ip, #993	@ 0x3e1
 c0032f0:	f8c3 c0e0 	str.w	ip, [r3, #224]	@ 0xe0
    SAU_INIT_REGION(3);
 c0032f4:	f8c3 70d8 	str.w	r7, [r3, #216]	@ 0xd8
 c0032f8:	f8c3 60dc 	str.w	r6, [r3, #220]	@ 0xdc
 c0032fc:	4e1e      	ldr	r6, [pc, #120]	@ (c003378 <SystemInit+0xe0>)
 c0032fe:	f8c3 60e0 	str.w	r6, [r3, #224]	@ 0xe0
    SAU_INIT_REGION(4);
 c003302:	f8c3 50d8 	str.w	r5, [r3, #216]	@ 0xd8
 c003306:	f8c3 00dc 	str.w	r0, [r3, #220]	@ 0xdc
 c00330a:	481c      	ldr	r0, [pc, #112]	@ (c00337c <SystemInit+0xe4>)
 c00330c:	f8c3 00e0 	str.w	r0, [r3, #224]	@ 0xe0
    SAU_INIT_REGION(5);
 c003310:	481b      	ldr	r0, [pc, #108]	@ (c003380 <SystemInit+0xe8>)
 c003312:	f8c3 40d8 	str.w	r4, [r3, #216]	@ 0xd8
 c003316:	f8c3 00dc 	str.w	r0, [r3, #220]	@ 0xdc
 c00331a:	f500 30c7 	add.w	r0, r0, #101888	@ 0x18e00
 c00331e:	f200 10e1 	addw	r0, r0, #481	@ 0x1e1
 c003322:	f8c3 00e0 	str.w	r0, [r3, #224]	@ 0xe0
  /* repeat this for all possible SAU regions */

#endif /* defined (__SAUREGION_PRESENT) && (__SAUREGION_PRESENT == 1U) */

  #if defined (SAU_INIT_CTRL) && (SAU_INIT_CTRL == 1U)
    SAU->CTRL = ((SAU_INIT_CTRL_ENABLE << SAU_CTRL_ENABLE_Pos) & SAU_CTRL_ENABLE_Msk) |
 c003326:	f8c3 10d0 	str.w	r1, [r3, #208]	@ 0xd0
  #endif /* defined (SCB_CSR_AIRCR_INIT) && (SCB_CSR_AIRCR_INIT == 1U) */

  #if defined (__FPU_USED) && (__FPU_USED == 1U) && \
      defined (TZ_FPU_NS_USAGE) && (TZ_FPU_NS_USAGE == 1U)

    SCB->NSACR = (SCB->NSACR & ~(SCB_NSACR_CP10_Msk | SCB_NSACR_CP11_Msk)) |
 c00332a:	f8d3 108c 	ldr.w	r1, [r3, #140]	@ 0x8c
                   ((SCB_NSACR_CP10_11_VAL << SCB_NSACR_CP10_Pos) & (SCB_NSACR_CP10_Msk | SCB_NSACR_CP11_Msk));

    FPU->FPCCR = (FPU->FPCCR & ~(FPU_FPCCR_TS_Msk | FPU_FPCCR_CLRONRETS_Msk | FPU_FPCCR_CLRONRET_Msk)) |
 c00332e:	4c15      	ldr	r4, [pc, #84]	@ (c003384 <SystemInit+0xec>)
    SCB->NSACR = (SCB->NSACR & ~(SCB_NSACR_CP10_Msk | SCB_NSACR_CP11_Msk)) |
 c003330:	f441 6140 	orr.w	r1, r1, #3072	@ 0xc00
 c003334:	f8c3 108c 	str.w	r1, [r3, #140]	@ 0x8c
    FPU->FPCCR = (FPU->FPCCR & ~(FPU_FPCCR_TS_Msk | FPU_FPCCR_CLRONRETS_Msk | FPU_FPCCR_CLRONRET_Msk)) |
 c003338:	6b61      	ldr	r1, [r4, #52]	@ 0x34
                   ((FPU_FPCCR_CLRONRETS_VAL << FPU_FPCCR_CLRONRETS_Pos) & FPU_FPCCR_CLRONRETS_Msk) |
                   ((FPU_FPCCR_CLRONRET_VAL  << FPU_FPCCR_CLRONRET_Pos ) & FPU_FPCCR_CLRONRET_Msk );
  #endif

  #if defined (NVIC_INIT_ITNS0) && (NVIC_INIT_ITNS0 == 1U)
    NVIC->ITNS[0] = NVIC_INIT_ITNS0_VAL;
 c00333a:	4813      	ldr	r0, [pc, #76]	@ (c003388 <SystemInit+0xf0>)
                   ((FPU_FPCCR_TS_VAL        << FPU_FPCCR_TS_Pos       ) & FPU_FPCCR_TS_Msk       ) |
 c00333c:	f021 51e0 	bic.w	r1, r1, #469762048	@ 0x1c000000
                   ((FPU_FPCCR_CLRONRETS_VAL << FPU_FPCCR_CLRONRETS_Pos) & FPU_FPCCR_CLRONRETS_Msk) |
 c003340:	f041 5180 	orr.w	r1, r1, #268435456	@ 0x10000000
    FPU->FPCCR = (FPU->FPCCR & ~(FPU_FPCCR_TS_Msk | FPU_FPCCR_CLRONRETS_Msk | FPU_FPCCR_CLRONRET_Msk)) |
 c003344:	6361      	str	r1, [r4, #52]	@ 0x34
    NVIC->ITNS[0] = NVIC_INIT_ITNS0_VAL;
 c003346:	f8c0 2280 	str.w	r2, [r0, #640]	@ 0x280
  #endif

  #if defined (NVIC_INIT_ITNS1) && (NVIC_INIT_ITNS1 == 1U)
    NVIC->ITNS[1] = NVIC_INIT_ITNS1_VAL;
 c00334a:	f8c0 2284 	str.w	r2, [r0, #644]	@ 0x284
  #endif

  #if defined (NVIC_INIT_ITNS2) && (NVIC_INIT_ITNS2 == 1U)
    NVIC->ITNS[2] = NVIC_INIT_ITNS2_VAL;
 c00334e:	f8c0 2288 	str.w	r2, [r0, #648]	@ 0x288
  #endif

  #if defined (NVIC_INIT_ITNS3) && (NVIC_INIT_ITNS3 == 1U)
    NVIC->ITNS[3] = NVIC_INIT_ITNS3_VAL;
 c003352:	f8c0 228c 	str.w	r2, [r0, #652]	@ 0x28c
  SCB->VTOR = VECT_TAB_BASE_ADDRESS | VECT_TAB_OFFSET;
#endif

  /* FPU settings ------------------------------------------------------------*/
#if (__FPU_PRESENT == 1) && (__FPU_USED == 1)
  SCB->CPACR |= ((3UL << 20U)|(3UL << 22U));  /* set CP10 and CP11 Full Access */
 c003356:	f8d3 2088 	ldr.w	r2, [r3, #136]	@ 0x88

  SCB_NS->CPACR |= ((3UL << 20U)|(3UL << 22U));  /* set CP10 and CP11 Full Access */
 c00335a:	490c      	ldr	r1, [pc, #48]	@ (c00338c <SystemInit+0xf4>)
  SCB->CPACR |= ((3UL << 20U)|(3UL << 22U));  /* set CP10 and CP11 Full Access */
 c00335c:	f442 0270 	orr.w	r2, r2, #15728640	@ 0xf00000
 c003360:	f8c3 2088 	str.w	r2, [r3, #136]	@ 0x88
  SCB_NS->CPACR |= ((3UL << 20U)|(3UL << 22U));  /* set CP10 and CP11 Full Access */
 c003364:	f8d1 3088 	ldr.w	r3, [r1, #136]	@ 0x88
 c003368:	f443 0370 	orr.w	r3, r3, #15728640	@ 0xf00000
 c00336c:	f8c1 3088 	str.w	r3, [r1, #136]	@ 0x88
#endif
}
 c003370:	e8bd 87f0 	ldmia.w	sp!, {r4, r5, r6, r7, r8, r9, sl, pc}
 c003374:	e000ed00 	.word	0xe000ed00
 c003378:	4fffffe1 	.word	0x4fffffe1
 c00337c:	9fffffe1 	.word	0x9fffffe1
 c003380:	0bf90000 	.word	0x0bf90000
 c003384:	e000ef00 	.word	0xe000ef00
 c003388:	e000e100 	.word	0xe000e100
 c00338c:	e002ed00 	.word	0xe002ed00
 c003390:	0c03e000 	.word	0x0c03e000
 c003394:	0c03ffe3 	.word	0x0c03ffe3
 c003398:	08040000 	.word	0x08040000
 c00339c:	0807ffe1 	.word	0x0807ffe1
 c0033a0:	20018000 	.word	0x20018000

0c0033a4 <SystemCoreClockUpdate>:
void SystemCoreClockUpdate(void)
{
  uint32_t tmp, msirange, pllvco, pllsource, pllm, pllr;

  /* Get MSI Range frequency--------------------------------------------------*/
  if((RCC->CR & RCC_CR_MSIRGSEL) == 0U)
 c0033a4:	4b23      	ldr	r3, [pc, #140]	@ (c003434 <SystemCoreClockUpdate+0x90>)
  }
  /*MSI frequency range in HZ*/
  msirange = MSIRangeTable[msirange];

  /* Get SYSCLK source -------------------------------------------------------*/
  switch (RCC->CFGR & RCC_CFGR_SWS)
 c0033a6:	4923      	ldr	r1, [pc, #140]	@ (c003434 <SystemCoreClockUpdate+0x90>)
  if((RCC->CR & RCC_CR_MSIRGSEL) == 0U)
 c0033a8:	681a      	ldr	r2, [r3, #0]
  msirange = MSIRangeTable[msirange];
 c0033aa:	4823      	ldr	r0, [pc, #140]	@ (c003438 <SystemCoreClockUpdate+0x94>)
  if((RCC->CR & RCC_CR_MSIRGSEL) == 0U)
 c0033ac:	0712      	lsls	r2, r2, #28
    msirange = (RCC->CSR & RCC_CSR_MSISRANGE) >> 8U;
 c0033ae:	bf54      	ite	pl
 c0033b0:	f8d3 3094 	ldrpl.w	r3, [r3, #148]	@ 0x94
    msirange = (RCC->CR & RCC_CR_MSIRANGE) >> 4U;
 c0033b4:	681b      	ldrmi	r3, [r3, #0]
  switch (RCC->CFGR & RCC_CFGR_SWS)
 c0033b6:	688a      	ldr	r2, [r1, #8]
    msirange = (RCC->CSR & RCC_CSR_MSISRANGE) >> 8U;
 c0033b8:	bf58      	it	pl
 c0033ba:	f3c3 2303 	ubfxpl	r3, r3, #8, #4
  switch (RCC->CFGR & RCC_CFGR_SWS)
 c0033be:	f002 020c 	and.w	r2, r2, #12
    msirange = (RCC->CR & RCC_CR_MSIRANGE) >> 4U;
 c0033c2:	bf48      	it	mi
 c0033c4:	f3c3 1303 	ubfxmi	r3, r3, #4, #4
  switch (RCC->CFGR & RCC_CFGR_SWS)
 c0033c8:	2a08      	cmp	r2, #8
  msirange = MSIRangeTable[msirange];
 c0033ca:	f850 3023 	ldr.w	r3, [r0, r3, lsl #2]
  switch (RCC->CFGR & RCC_CFGR_SWS)
 c0033ce:	d00f      	beq.n	c0033f0 <SystemCoreClockUpdate+0x4c>
 c0033d0:	2a0c      	cmp	r2, #12
 c0033d2:	d00f      	beq.n	c0033f4 <SystemCoreClockUpdate+0x50>
 c0033d4:	4919      	ldr	r1, [pc, #100]	@ (c00343c <SystemCoreClockUpdate+0x98>)
 c0033d6:	2a04      	cmp	r2, #4
 c0033d8:	bf08      	it	eq
 c0033da:	460b      	moveq	r3, r1
      SystemCoreClock = msirange;
      break;
  }
  /* Compute HCLK clock frequency --------------------------------------------*/
  /* Get HCLK prescaler */
  tmp = AHBPrescTable[((RCC->CFGR & RCC_CFGR_HPRE) >> 4U)];
 c0033dc:	4a15      	ldr	r2, [pc, #84]	@ (c003434 <SystemCoreClockUpdate+0x90>)
 c0033de:	4818      	ldr	r0, [pc, #96]	@ (c003440 <SystemCoreClockUpdate+0x9c>)
 c0033e0:	6892      	ldr	r2, [r2, #8]
  /* HCLK clock frequency */
  SystemCoreClock >>= tmp;
 c0033e2:	4918      	ldr	r1, [pc, #96]	@ (c003444 <SystemCoreClockUpdate+0xa0>)
  tmp = AHBPrescTable[((RCC->CFGR & RCC_CFGR_HPRE) >> 4U)];
 c0033e4:	f3c2 1203 	ubfx	r2, r2, #4, #4
 c0033e8:	5c82      	ldrb	r2, [r0, r2]
  SystemCoreClock >>= tmp;
 c0033ea:	40d3      	lsrs	r3, r2
 c0033ec:	600b      	str	r3, [r1, #0]
}
 c0033ee:	4770      	bx	lr
  switch (RCC->CFGR & RCC_CFGR_SWS)
 c0033f0:	4b12      	ldr	r3, [pc, #72]	@ (c00343c <SystemCoreClockUpdate+0x98>)
 c0033f2:	e7f3      	b.n	c0033dc <SystemCoreClockUpdate+0x38>
      pllsource = (RCC->PLLCFGR & RCC_PLLCFGR_PLLSRC);
 c0033f4:	68c8      	ldr	r0, [r1, #12]
      pllm = ((RCC->PLLCFGR & RCC_PLLCFGR_PLLM) >> 4U) + 1U ;
 c0033f6:	68ca      	ldr	r2, [r1, #12]
      pllsource = (RCC->PLLCFGR & RCC_PLLCFGR_PLLSRC);
 c0033f8:	f000 0103 	and.w	r1, r0, #3
 c0033fc:	3902      	subs	r1, #2
 c0033fe:	2901      	cmp	r1, #1
          pllvco = (HSE_VALUE / pllm);
 c003400:	bf98      	it	ls
 c003402:	490e      	ldrls	r1, [pc, #56]	@ (c00343c <SystemCoreClockUpdate+0x98>)
      pllm = ((RCC->PLLCFGR & RCC_PLLCFGR_PLLM) >> 4U) + 1U ;
 c003404:	f3c2 1203 	ubfx	r2, r2, #4, #4
 c003408:	f102 0201 	add.w	r2, r2, #1
          pllvco = (msirange / pllm);
 c00340c:	bf8c      	ite	hi
 c00340e:	fbb3 f1f2 	udivhi	r1, r3, r2
          pllvco = (HSE_VALUE / pllm);
 c003412:	fbb1 f1f2 	udivls	r1, r1, r2
      pllvco = pllvco * ((RCC->PLLCFGR & RCC_PLLCFGR_PLLN) >> 8U);
 c003416:	4a07      	ldr	r2, [pc, #28]	@ (c003434 <SystemCoreClockUpdate+0x90>)
 c003418:	68d3      	ldr	r3, [r2, #12]
      pllr = (((RCC->PLLCFGR & RCC_PLLCFGR_PLLR) >> 25U) + 1U) * 2U;
 c00341a:	68d2      	ldr	r2, [r2, #12]
      pllvco = pllvco * ((RCC->PLLCFGR & RCC_PLLCFGR_PLLN) >> 8U);
 c00341c:	f3c3 2306 	ubfx	r3, r3, #8, #7
 c003420:	fb01 f303 	mul.w	r3, r1, r3
      pllr = (((RCC->PLLCFGR & RCC_PLLCFGR_PLLR) >> 25U) + 1U) * 2U;
 c003424:	f3c2 6241 	ubfx	r2, r2, #25, #2
 c003428:	3201      	adds	r2, #1
 c00342a:	0052      	lsls	r2, r2, #1
      SystemCoreClock = pllvco/pllr;
 c00342c:	fbb3 f3f2 	udiv	r3, r3, r2
      break;
 c003430:	e7d4      	b.n	c0033dc <SystemCoreClockUpdate+0x38>
 c003432:	bf00      	nop
 c003434:	50021000 	.word	0x50021000
 c003438:	0c006448 	.word	0x0c006448
 c00343c:	00f42400 	.word	0x00f42400
 c003440:	0c006490 	.word	0x0c006490
 c003444:	300000a4 	.word	0x300000a4

0c003448 <__acle_se_SECURE_SystemCoreClockUpdate>:
  if((RCC->CR & RCC_CR_MSIRGSEL) == 0U)
 c003448:	4b3c      	ldr	r3, [pc, #240]	@ (c00353c <__acle_se_SECURE_SystemCoreClockUpdate+0xf4>)
  switch (RCC->CFGR & RCC_CFGR_SWS)
 c00344a:	493c      	ldr	r1, [pc, #240]	@ (c00353c <__acle_se_SECURE_SystemCoreClockUpdate+0xf4>)
  if((RCC->CR & RCC_CR_MSIRGSEL) == 0U)
 c00344c:	681a      	ldr	r2, [r3, #0]
  msirange = MSIRangeTable[msirange];
 c00344e:	483c      	ldr	r0, [pc, #240]	@ (c003540 <__acle_se_SECURE_SystemCoreClockUpdate+0xf8>)
  if((RCC->CR & RCC_CR_MSIRGSEL) == 0U)
 c003450:	0712      	lsls	r2, r2, #28
    msirange = (RCC->CSR & RCC_CSR_MSISRANGE) >> 8U;
 c003452:	bf54      	ite	pl
 c003454:	f8d3 2094 	ldrpl.w	r2, [r3, #148]	@ 0x94
    msirange = (RCC->CR & RCC_CR_MSIRANGE) >> 4U;
 c003458:	681a      	ldrmi	r2, [r3, #0]
  switch (RCC->CFGR & RCC_CFGR_SWS)
 c00345a:	688b      	ldr	r3, [r1, #8]
    msirange = (RCC->CSR & RCC_CSR_MSISRANGE) >> 8U;
 c00345c:	bf58      	it	pl
 c00345e:	f3c2 2203 	ubfxpl	r2, r2, #8, #4
  switch (RCC->CFGR & RCC_CFGR_SWS)
 c003462:	f003 030c 	and.w	r3, r3, #12
    msirange = (RCC->CR & RCC_CR_MSIRANGE) >> 4U;
 c003466:	bf48      	it	mi
 c003468:	f3c2 1203 	ubfxmi	r2, r2, #4, #4
  switch (RCC->CFGR & RCC_CFGR_SWS)
 c00346c:	2b08      	cmp	r3, #8
  msirange = MSIRangeTable[msirange];
 c00346e:	f850 0022 	ldr.w	r0, [r0, r2, lsl #2]
  switch (RCC->CFGR & RCC_CFGR_SWS)
 c003472:	d041      	beq.n	c0034f8 <__acle_se_SECURE_SystemCoreClockUpdate+0xb0>
 c003474:	2b0c      	cmp	r3, #12
 c003476:	d041      	beq.n	c0034fc <__acle_se_SECURE_SystemCoreClockUpdate+0xb4>
 c003478:	4a32      	ldr	r2, [pc, #200]	@ (c003544 <__acle_se_SECURE_SystemCoreClockUpdate+0xfc>)
 c00347a:	2b04      	cmp	r3, #4
 c00347c:	bf08      	it	eq
 c00347e:	4610      	moveq	r0, r2
  tmp = AHBPrescTable[((RCC->CFGR & RCC_CFGR_HPRE) >> 4U)];
 c003480:	4b2e      	ldr	r3, [pc, #184]	@ (c00353c <__acle_se_SECURE_SystemCoreClockUpdate+0xf4>)
 c003482:	4931      	ldr	r1, [pc, #196]	@ (c003548 <__acle_se_SECURE_SystemCoreClockUpdate+0x100>)
 c003484:	689b      	ldr	r3, [r3, #8]
  SystemCoreClock >>= tmp;
 c003486:	4a31      	ldr	r2, [pc, #196]	@ (c00354c <__acle_se_SECURE_SystemCoreClockUpdate+0x104>)
  tmp = AHBPrescTable[((RCC->CFGR & RCC_CFGR_HPRE) >> 4U)];
 c003488:	f3c3 1303 	ubfx	r3, r3, #4, #4
 c00348c:	5ccb      	ldrb	r3, [r1, r3]
CMSE_NS_ENTRY uint32_t SECURE_SystemCoreClockUpdate(void)
{
  SystemCoreClockUpdate();
  
  return SystemCoreClock;
}
 c00348e:	eeb7 0a00 	vmov.f32	s0, #112	@ 0x3f800000  1.0
  SystemCoreClock >>= tmp;
 c003492:	40d8      	lsrs	r0, r3
}
 c003494:	4671      	mov	r1, lr
 c003496:	4673      	mov	r3, lr
 c003498:	eef7 0a00 	vmov.f32	s1, #112	@ 0x3f800000  1.0
 c00349c:	eeb7 1a00 	vmov.f32	s2, #112	@ 0x3f800000  1.0
 c0034a0:	eef7 1a00 	vmov.f32	s3, #112	@ 0x3f800000  1.0
 c0034a4:	eeb7 2a00 	vmov.f32	s4, #112	@ 0x3f800000  1.0
 c0034a8:	eef7 2a00 	vmov.f32	s5, #112	@ 0x3f800000  1.0
 c0034ac:	eeb7 3a00 	vmov.f32	s6, #112	@ 0x3f800000  1.0
 c0034b0:	eef7 3a00 	vmov.f32	s7, #112	@ 0x3f800000  1.0
 c0034b4:	eeb7 4a00 	vmov.f32	s8, #112	@ 0x3f800000  1.0
 c0034b8:	eef7 4a00 	vmov.f32	s9, #112	@ 0x3f800000  1.0
 c0034bc:	eeb7 5a00 	vmov.f32	s10, #112	@ 0x3f800000  1.0
 c0034c0:	eef7 5a00 	vmov.f32	s11, #112	@ 0x3f800000  1.0
 c0034c4:	eeb7 6a00 	vmov.f32	s12, #112	@ 0x3f800000  1.0
 c0034c8:	eef7 6a00 	vmov.f32	s13, #112	@ 0x3f800000  1.0
 c0034cc:	eeb7 7a00 	vmov.f32	s14, #112	@ 0x3f800000  1.0
  SystemCoreClock >>= tmp;
 c0034d0:	6010      	str	r0, [r2, #0]
}
 c0034d2:	eef7 7a00 	vmov.f32	s15, #112	@ 0x3f800000  1.0
 c0034d6:	4672      	mov	r2, lr
 c0034d8:	f38e 8c00 	msr	CPSR_fs, lr
 c0034dc:	b410      	push	{r4}
 c0034de:	eef1 ca10 	vmrs	ip, fpscr
 c0034e2:	f64f 7460 	movw	r4, #65376	@ 0xff60
 c0034e6:	f6c0 74ff 	movt	r4, #4095	@ 0xfff
 c0034ea:	ea0c 0c04 	and.w	ip, ip, r4
 c0034ee:	eee1 ca10 	vmsr	fpscr, ip
 c0034f2:	bc10      	pop	{r4}
 c0034f4:	46f4      	mov	ip, lr
 c0034f6:	4774      	bxns	lr
  switch (RCC->CFGR & RCC_CFGR_SWS)
 c0034f8:	4812      	ldr	r0, [pc, #72]	@ (c003544 <__acle_se_SECURE_SystemCoreClockUpdate+0xfc>)
 c0034fa:	e7c1      	b.n	c003480 <__acle_se_SECURE_SystemCoreClockUpdate+0x38>
      pllsource = (RCC->PLLCFGR & RCC_PLLCFGR_PLLSRC);
 c0034fc:	68ca      	ldr	r2, [r1, #12]
      pllm = ((RCC->PLLCFGR & RCC_PLLCFGR_PLLM) >> 4U) + 1U ;
 c0034fe:	68cb      	ldr	r3, [r1, #12]
      pllsource = (RCC->PLLCFGR & RCC_PLLCFGR_PLLSRC);
 c003500:	f002 0203 	and.w	r2, r2, #3
 c003504:	3a02      	subs	r2, #2
 c003506:	2a01      	cmp	r2, #1
          pllvco = (HSE_VALUE / pllm);
 c003508:	bf98      	it	ls
 c00350a:	4a0e      	ldrls	r2, [pc, #56]	@ (c003544 <__acle_se_SECURE_SystemCoreClockUpdate+0xfc>)
      pllm = ((RCC->PLLCFGR & RCC_PLLCFGR_PLLM) >> 4U) + 1U ;
 c00350c:	f3c3 1303 	ubfx	r3, r3, #4, #4
 c003510:	f103 0301 	add.w	r3, r3, #1
          pllvco = (msirange / pllm);
 c003514:	bf8c      	ite	hi
 c003516:	fbb0 f2f3 	udivhi	r2, r0, r3
          pllvco = (HSE_VALUE / pllm);
 c00351a:	fbb2 f2f3 	udivls	r2, r2, r3
      pllvco = pllvco * ((RCC->PLLCFGR & RCC_PLLCFGR_PLLN) >> 8U);
 c00351e:	4b07      	ldr	r3, [pc, #28]	@ (c00353c <__acle_se_SECURE_SystemCoreClockUpdate+0xf4>)
 c003520:	68d8      	ldr	r0, [r3, #12]
      pllr = (((RCC->PLLCFGR & RCC_PLLCFGR_PLLR) >> 25U) + 1U) * 2U;
 c003522:	68db      	ldr	r3, [r3, #12]
      pllvco = pllvco * ((RCC->PLLCFGR & RCC_PLLCFGR_PLLN) >> 8U);
 c003524:	f3c0 2006 	ubfx	r0, r0, #8, #7
 c003528:	fb02 f000 	mul.w	r0, r2, r0
      pllr = (((RCC->PLLCFGR & RCC_PLLCFGR_PLLR) >> 25U) + 1U) * 2U;
 c00352c:	f3c3 6341 	ubfx	r3, r3, #25, #2
 c003530:	3301      	adds	r3, #1
 c003532:	005b      	lsls	r3, r3, #1
      SystemCoreClock = pllvco/pllr;
 c003534:	fbb0 f0f3 	udiv	r0, r0, r3
      break;
 c003538:	e7a2      	b.n	c003480 <__acle_se_SECURE_SystemCoreClockUpdate+0x38>
 c00353a:	bf00      	nop
 c00353c:	50021000 	.word	0x50021000
 c003540:	0c006448 	.word	0x0c006448
 c003544:	00f42400 	.word	0x00f42400
 c003548:	0c006490 	.word	0x0c006490
 c00354c:	300000a4 	.word	0x300000a4

0c003550 <MX_TIM3_Init>:

  /* USER CODE BEGIN TIM3_Init 0 */

  /* USER CODE END TIM3_Init 0 */

  TIM_ClockConfigTypeDef sClockSourceConfig = {0};
 c003550:	2300      	movs	r3, #0

  /* USER CODE BEGIN TIM3_Init 1 */

  /* USER CODE END TIM3_Init 1 */
  htim3.Instance = TIM3;
  htim3.Init.Prescaler = 0;
 c003552:	f64f 72ff 	movw	r2, #65535	@ 0xffff
{
 c003556:	b500      	push	{lr}
  htim3.Instance = TIM3;
 c003558:	4818      	ldr	r0, [pc, #96]	@ (c0035bc <MX_TIM3_Init+0x6c>)
 c00355a:	4919      	ldr	r1, [pc, #100]	@ (c0035c0 <MX_TIM3_Init+0x70>)
{
 c00355c:	b089      	sub	sp, #36	@ 0x24
  htim3.Init.Prescaler = 0;
 c00355e:	e9c0 3301 	strd	r3, r3, [r0, #4]
  TIM_ClockConfigTypeDef sClockSourceConfig = {0};
 c003562:	e9cd 3305 	strd	r3, r3, [sp, #20]
  TIM_MasterConfigTypeDef sMasterConfig = {0};
 c003566:	e9cd 3302 	strd	r3, r3, [sp, #8]
  htim3.Instance = TIM3;
 c00356a:	6001      	str	r1, [r0, #0]
  htim3.Init.Prescaler = 0;
 c00356c:	60c2      	str	r2, [r0, #12]
  TIM_ClockConfigTypeDef sClockSourceConfig = {0};
 c00356e:	9304      	str	r3, [sp, #16]
  TIM_MasterConfigTypeDef sMasterConfig = {0};
 c003570:	9301      	str	r3, [sp, #4]
  htim3.Init.Prescaler = 0;
 c003572:	6103      	str	r3, [r0, #16]
  htim3.Init.CounterMode = TIM_COUNTERMODE_UP;
  htim3.Init.Period = 65535;
  htim3.Init.ClockDivision = TIM_CLOCKDIVISION_DIV1;
  htim3.Init.AutoReloadPreload = TIM_AUTORELOAD_PRELOAD_DISABLE;
 c003574:	6183      	str	r3, [r0, #24]
  TIM_ClockConfigTypeDef sClockSourceConfig = {0};
 c003576:	9307      	str	r3, [sp, #28]
  if (HAL_TIM_Base_Init(&htim3) != HAL_OK)
 c003578:	f001 fed6 	bl	c005328 <HAL_TIM_Base_Init>
 c00357c:	b990      	cbnz	r0, c0035a4 <MX_TIM3_Init+0x54>
  {
    Error_Handler();
  }
  sClockSourceConfig.ClockSource = TIM_CLOCKSOURCE_INTERNAL;
 c00357e:	f44f 5380 	mov.w	r3, #4096	@ 0x1000
  if (HAL_TIM_ConfigClockSource(&htim3, &sClockSourceConfig) != HAL_OK)
 c003582:	480e      	ldr	r0, [pc, #56]	@ (c0035bc <MX_TIM3_Init+0x6c>)
 c003584:	a904      	add	r1, sp, #16
  sClockSourceConfig.ClockSource = TIM_CLOCKSOURCE_INTERNAL;
 c003586:	9304      	str	r3, [sp, #16]
  if (HAL_TIM_ConfigClockSource(&htim3, &sClockSourceConfig) != HAL_OK)
 c003588:	f001 ff5c 	bl	c005444 <HAL_TIM_ConfigClockSource>
 c00358c:	b990      	cbnz	r0, c0035b4 <MX_TIM3_Init+0x64>
  {
    Error_Handler();
  }
  sMasterConfig.MasterOutputTrigger = TIM_TRGO_RESET;
 c00358e:	2300      	movs	r3, #0
  sMasterConfig.MasterSlaveMode = TIM_MASTERSLAVEMODE_DISABLE;
  if (HAL_TIMEx_MasterConfigSynchronization(&htim3, &sMasterConfig) != HAL_OK)
 c003590:	480a      	ldr	r0, [pc, #40]	@ (c0035bc <MX_TIM3_Init+0x6c>)
 c003592:	a901      	add	r1, sp, #4
  sMasterConfig.MasterOutputTrigger = TIM_TRGO_RESET;
 c003594:	9301      	str	r3, [sp, #4]
  sMasterConfig.MasterSlaveMode = TIM_MASTERSLAVEMODE_DISABLE;
 c003596:	9303      	str	r3, [sp, #12]
  if (HAL_TIMEx_MasterConfigSynchronization(&htim3, &sMasterConfig) != HAL_OK)
 c003598:	f002 f8c4 	bl	c005724 <HAL_TIMEx_MasterConfigSynchronization>
 c00359c:	b928      	cbnz	r0, c0035aa <MX_TIM3_Init+0x5a>
  }
  /* USER CODE BEGIN TIM3_Init 2 */

  /* USER CODE END TIM3_Init 2 */

}
 c00359e:	b009      	add	sp, #36	@ 0x24
 c0035a0:	f85d fb04 	ldr.w	pc, [sp], #4
    Error_Handler();
 c0035a4:	f7ff faa6 	bl	c002af4 <Error_Handler>
 c0035a8:	e7e9      	b.n	c00357e <MX_TIM3_Init+0x2e>
    Error_Handler();
 c0035aa:	f7ff faa3 	bl	c002af4 <Error_Handler>
}
 c0035ae:	b009      	add	sp, #36	@ 0x24
 c0035b0:	f85d fb04 	ldr.w	pc, [sp], #4
    Error_Handler();
 c0035b4:	f7ff fa9e 	bl	c002af4 <Error_Handler>
 c0035b8:	e7e9      	b.n	c00358e <MX_TIM3_Init+0x3e>
 c0035ba:	bf00      	nop
 c0035bc:	30000150 	.word	0x30000150
 c0035c0:	50000400 	.word	0x50000400

0c0035c4 <MX_TIM4_Init>:

  /* USER CODE BEGIN TIM4_Init 0 */

  /* USER CODE END TIM4_Init 0 */

  TIM_ClockConfigTypeDef sClockSourceConfig = {0};
 c0035c4:	2300      	movs	r3, #0

  /* USER CODE BEGIN TIM4_Init 1 */

  /* USER CODE END TIM4_Init 1 */
  htim4.Instance = TIM4;
  htim4.Init.Prescaler = 0;
 c0035c6:	f64f 72ff 	movw	r2, #65535	@ 0xffff
{
 c0035ca:	b500      	push	{lr}
  htim4.Instance = TIM4;
 c0035cc:	4818      	ldr	r0, [pc, #96]	@ (c003630 <MX_TIM4_Init+0x6c>)
 c0035ce:	4919      	ldr	r1, [pc, #100]	@ (c003634 <MX_TIM4_Init+0x70>)
{
 c0035d0:	b089      	sub	sp, #36	@ 0x24
  htim4.Init.Prescaler = 0;
 c0035d2:	e9c0 3301 	strd	r3, r3, [r0, #4]
  TIM_ClockConfigTypeDef sClockSourceConfig = {0};
 c0035d6:	e9cd 3305 	strd	r3, r3, [sp, #20]
  TIM_MasterConfigTypeDef sMasterConfig = {0};
 c0035da:	e9cd 3302 	strd	r3, r3, [sp, #8]
  htim4.Instance = TIM4;
 c0035de:	6001      	str	r1, [r0, #0]
  htim4.Init.Prescaler = 0;
 c0035e0:	60c2      	str	r2, [r0, #12]
  TIM_ClockConfigTypeDef sClockSourceConfig = {0};
 c0035e2:	9304      	str	r3, [sp, #16]
  TIM_MasterConfigTypeDef sMasterConfig = {0};
 c0035e4:	9301      	str	r3, [sp, #4]
  htim4.Init.Prescaler = 0;
 c0035e6:	6103      	str	r3, [r0, #16]
  htim4.Init.CounterMode = TIM_COUNTERMODE_UP;
  htim4.Init.Period = 65535;
  htim4.Init.ClockDivision = TIM_CLOCKDIVISION_DIV1;
  htim4.Init.AutoReloadPreload = TIM_AUTORELOAD_PRELOAD_DISABLE;
 c0035e8:	6183      	str	r3, [r0, #24]
  TIM_ClockConfigTypeDef sClockSourceConfig = {0};
 c0035ea:	9307      	str	r3, [sp, #28]
  if (HAL_TIM_Base_Init(&htim4) != HAL_OK)
 c0035ec:	f001 fe9c 	bl	c005328 <HAL_TIM_Base_Init>
 c0035f0:	b990      	cbnz	r0, c003618 <MX_TIM4_Init+0x54>
  {
    Error_Handler();
  }
  sClockSourceConfig.ClockSource = TIM_CLOCKSOURCE_INTERNAL;
 c0035f2:	f44f 5380 	mov.w	r3, #4096	@ 0x1000
  if (HAL_TIM_ConfigClockSource(&htim4, &sClockSourceConfig) != HAL_OK)
 c0035f6:	480e      	ldr	r0, [pc, #56]	@ (c003630 <MX_TIM4_Init+0x6c>)
 c0035f8:	a904      	add	r1, sp, #16
  sClockSourceConfig.ClockSource = TIM_CLOCKSOURCE_INTERNAL;
 c0035fa:	9304      	str	r3, [sp, #16]
  if (HAL_TIM_ConfigClockSource(&htim4, &sClockSourceConfig) != HAL_OK)
 c0035fc:	f001 ff22 	bl	c005444 <HAL_TIM_ConfigClockSource>
 c003600:	b990      	cbnz	r0, c003628 <MX_TIM4_Init+0x64>
  {
    Error_Handler();
  }
  sMasterConfig.MasterOutputTrigger = TIM_TRGO_RESET;
 c003602:	2300      	movs	r3, #0
  sMasterConfig.MasterSlaveMode = TIM_MASTERSLAVEMODE_DISABLE;
  if (HAL_TIMEx_MasterConfigSynchronization(&htim4, &sMasterConfig) != HAL_OK)
 c003604:	480a      	ldr	r0, [pc, #40]	@ (c003630 <MX_TIM4_Init+0x6c>)
 c003606:	a901      	add	r1, sp, #4
  sMasterConfig.MasterOutputTrigger = TIM_TRGO_RESET;
 c003608:	9301      	str	r3, [sp, #4]
  sMasterConfig.MasterSlaveMode = TIM_MASTERSLAVEMODE_DISABLE;
 c00360a:	9303      	str	r3, [sp, #12]
  if (HAL_TIMEx_MasterConfigSynchronization(&htim4, &sMasterConfig) != HAL_OK)
 c00360c:	f002 f88a 	bl	c005724 <HAL_TIMEx_MasterConfigSynchronization>
 c003610:	b928      	cbnz	r0, c00361e <MX_TIM4_Init+0x5a>
  }
  /* USER CODE BEGIN TIM4_Init 2 */

  /* USER CODE END TIM4_Init 2 */

}
 c003612:	b009      	add	sp, #36	@ 0x24
 c003614:	f85d fb04 	ldr.w	pc, [sp], #4
    Error_Handler();
 c003618:	f7ff fa6c 	bl	c002af4 <Error_Handler>
 c00361c:	e7e9      	b.n	c0035f2 <MX_TIM4_Init+0x2e>
    Error_Handler();
 c00361e:	f7ff fa69 	bl	c002af4 <Error_Handler>
}
 c003622:	b009      	add	sp, #36	@ 0x24
 c003624:	f85d fb04 	ldr.w	pc, [sp], #4
    Error_Handler();
 c003628:	f7ff fa64 	bl	c002af4 <Error_Handler>
 c00362c:	e7e9      	b.n	c003602 <MX_TIM4_Init+0x3e>
 c00362e:	bf00      	nop
 c003630:	30000100 	.word	0x30000100
 c003634:	50000800 	.word	0x50000800

0c003638 <HAL_TIM_Base_MspInit>:

void HAL_TIM_Base_MspInit(TIM_HandleTypeDef* tim_baseHandle)
{
 c003638:	b500      	push	{lr}

  if(tim_baseHandle->Instance==TIM3)
 c00363a:	4a1a      	ldr	r2, [pc, #104]	@ (c0036a4 <HAL_TIM_Base_MspInit+0x6c>)
 c00363c:	6803      	ldr	r3, [r0, #0]
{
 c00363e:	b083      	sub	sp, #12
  if(tim_baseHandle->Instance==TIM3)
 c003640:	4293      	cmp	r3, r2
 c003642:	d005      	beq.n	c003650 <HAL_TIM_Base_MspInit+0x18>
    HAL_NVIC_EnableIRQ(TIM3_IRQn);
  /* USER CODE BEGIN TIM3_MspInit 1 */

  /* USER CODE END TIM3_MspInit 1 */
  }
  else if(tim_baseHandle->Instance==TIM4)
 c003644:	4a18      	ldr	r2, [pc, #96]	@ (c0036a8 <HAL_TIM_Base_MspInit+0x70>)
 c003646:	4293      	cmp	r3, r2
 c003648:	d017      	beq.n	c00367a <HAL_TIM_Base_MspInit+0x42>
    HAL_NVIC_EnableIRQ(TIM4_IRQn);
  /* USER CODE BEGIN TIM4_MspInit 1 */

  /* USER CODE END TIM4_MspInit 1 */
  }
}
 c00364a:	b003      	add	sp, #12
 c00364c:	f85d fb04 	ldr.w	pc, [sp], #4
    HAL_NVIC_SetPriority(TIM3_IRQn, 0, 0);
 c003650:	2200      	movs	r2, #0
    __HAL_RCC_TIM3_CLK_ENABLE();
 c003652:	4b16      	ldr	r3, [pc, #88]	@ (c0036ac <HAL_TIM_Base_MspInit+0x74>)
    HAL_NVIC_SetPriority(TIM3_IRQn, 0, 0);
 c003654:	202e      	movs	r0, #46	@ 0x2e
    __HAL_RCC_TIM3_CLK_ENABLE();
 c003656:	6d99      	ldr	r1, [r3, #88]	@ 0x58
 c003658:	f041 0102 	orr.w	r1, r1, #2
 c00365c:	6599      	str	r1, [r3, #88]	@ 0x58
 c00365e:	6d9b      	ldr	r3, [r3, #88]	@ 0x58
    HAL_NVIC_SetPriority(TIM3_IRQn, 0, 0);
 c003660:	4611      	mov	r1, r2
    __HAL_RCC_TIM3_CLK_ENABLE();
 c003662:	f003 0302 	and.w	r3, r3, #2
 c003666:	9300      	str	r3, [sp, #0]
 c003668:	9b00      	ldr	r3, [sp, #0]
    HAL_NVIC_SetPriority(TIM3_IRQn, 0, 0);
 c00366a:	f000 f941 	bl	c0038f0 <HAL_NVIC_SetPriority>
    HAL_NVIC_EnableIRQ(TIM3_IRQn);
 c00366e:	202e      	movs	r0, #46	@ 0x2e
}
 c003670:	b003      	add	sp, #12
 c003672:	f85d eb04 	ldr.w	lr, [sp], #4
    HAL_NVIC_EnableIRQ(TIM4_IRQn);
 c003676:	f000 b977 	b.w	c003968 <HAL_NVIC_EnableIRQ>
    HAL_NVIC_SetPriority(TIM4_IRQn, 0, 0);
 c00367a:	2200      	movs	r2, #0
    __HAL_RCC_TIM4_CLK_ENABLE();
 c00367c:	4b0b      	ldr	r3, [pc, #44]	@ (c0036ac <HAL_TIM_Base_MspInit+0x74>)
    HAL_NVIC_SetPriority(TIM4_IRQn, 0, 0);
 c00367e:	202f      	movs	r0, #47	@ 0x2f
    __HAL_RCC_TIM4_CLK_ENABLE();
 c003680:	6d99      	ldr	r1, [r3, #88]	@ 0x58
 c003682:	f041 0104 	orr.w	r1, r1, #4
 c003686:	6599      	str	r1, [r3, #88]	@ 0x58
 c003688:	6d9b      	ldr	r3, [r3, #88]	@ 0x58
    HAL_NVIC_SetPriority(TIM4_IRQn, 0, 0);
 c00368a:	4611      	mov	r1, r2
    __HAL_RCC_TIM4_CLK_ENABLE();
 c00368c:	f003 0304 	and.w	r3, r3, #4
 c003690:	9301      	str	r3, [sp, #4]
 c003692:	9b01      	ldr	r3, [sp, #4]
    HAL_NVIC_SetPriority(TIM4_IRQn, 0, 0);
 c003694:	f000 f92c 	bl	c0038f0 <HAL_NVIC_SetPriority>
    HAL_NVIC_EnableIRQ(TIM4_IRQn);
 c003698:	202f      	movs	r0, #47	@ 0x2f
}
 c00369a:	b003      	add	sp, #12
 c00369c:	f85d eb04 	ldr.w	lr, [sp], #4
    HAL_NVIC_EnableIRQ(TIM4_IRQn);
 c0036a0:	f000 b962 	b.w	c003968 <HAL_NVIC_EnableIRQ>
 c0036a4:	50000400 	.word	0x50000400
 c0036a8:	50000800 	.word	0x50000800
 c0036ac:	50021000 	.word	0x50021000

0c0036b0 <MX_LPUART1_UART_Init>:
UART_HandleTypeDef hlpuart1;

/* LPUART1 init function */

void MX_LPUART1_UART_Init(void)
{
 c0036b0:	b508      	push	{r3, lr}

  /* USER CODE BEGIN LPUART1_Init 1 */

  /* USER CODE END LPUART1_Init 1 */
  hlpuart1.Instance = LPUART1;
  hlpuart1.Init.BaudRate = 921600;
 c0036b2:	f44f 2161 	mov.w	r1, #921600	@ 0xe1000
  hlpuart1.Init.WordLength = UART_WORDLENGTH_8B;
 c0036b6:	2300      	movs	r3, #0
  hlpuart1.Init.StopBits = UART_STOPBITS_1;
  hlpuart1.Init.Parity = UART_PARITY_NONE;
  hlpuart1.Init.Mode = UART_MODE_TX_RX;
 c0036b8:	220c      	movs	r2, #12
  hlpuart1.Init.HwFlowCtl = UART_HWCONTROL_NONE;
  hlpuart1.Init.OneBitSampling = UART_ONE_BIT_SAMPLE_DISABLE;
 c0036ba:	ed9f 7b1f 	vldr	d7, [pc, #124]	@ c003738 <MX_LPUART1_UART_Init+0x88>
  hlpuart1.Instance = LPUART1;
 c0036be:	4820      	ldr	r0, [pc, #128]	@ (c003740 <MX_LPUART1_UART_Init+0x90>)
  hlpuart1.Init.WordLength = UART_WORDLENGTH_8B;
 c0036c0:	e9c0 1301 	strd	r1, r3, [r0, #4]
  hlpuart1.Init.Parity = UART_PARITY_NONE;
 c0036c4:	e9c0 3303 	strd	r3, r3, [r0, #12]
  hlpuart1.Init.Mode = UART_MODE_TX_RX;
 c0036c8:	e9c0 2305 	strd	r2, r3, [r0, #20]
  hlpuart1.Init.ClockPrescaler = UART_PRESCALER_DIV1;
  hlpuart1.AdvancedInit.AdvFeatureInit = UART_ADVFEATURE_NO_INIT;
 c0036cc:	6283      	str	r3, [r0, #40]	@ 0x28
  hlpuart1.FifoMode = UART_FIFOMODE_DISABLE;
 c0036ce:	6643      	str	r3, [r0, #100]	@ 0x64
  hlpuart1.Instance = LPUART1;
 c0036d0:	4b1c      	ldr	r3, [pc, #112]	@ (c003744 <MX_LPUART1_UART_Init+0x94>)
  hlpuart1.Init.OneBitSampling = UART_ONE_BIT_SAMPLE_DISABLE;
 c0036d2:	ed80 7b08 	vstr	d7, [r0, #32]
  hlpuart1.Instance = LPUART1;
 c0036d6:	6003      	str	r3, [r0, #0]
  if (HAL_UART_Init(&hlpuart1) != HAL_OK)
 c0036d8:	f002 fb52 	bl	c005d80 <HAL_UART_Init>
 c0036dc:	b970      	cbnz	r0, c0036fc <MX_LPUART1_UART_Init+0x4c>
  {
    Error_Handler();
  }
  if (HAL_UARTEx_SetTxFifoThreshold(&hlpuart1, UART_TXFIFO_THRESHOLD_1_8) != HAL_OK)
 c0036de:	2100      	movs	r1, #0
 c0036e0:	4817      	ldr	r0, [pc, #92]	@ (c003740 <MX_LPUART1_UART_Init+0x90>)
 c0036e2:	f002 fc99 	bl	c006018 <HAL_UARTEx_SetTxFifoThreshold>
 c0036e6:	b988      	cbnz	r0, c00370c <MX_LPUART1_UART_Init+0x5c>
  {
    Error_Handler();
  }
  if (HAL_UARTEx_SetRxFifoThreshold(&hlpuart1, UART_RXFIFO_THRESHOLD_1_8) != HAL_OK)
 c0036e8:	2100      	movs	r1, #0
 c0036ea:	4815      	ldr	r0, [pc, #84]	@ (c003740 <MX_LPUART1_UART_Init+0x90>)
 c0036ec:	f002 fcd6 	bl	c00609c <HAL_UARTEx_SetRxFifoThreshold>
 c0036f0:	b9a0      	cbnz	r0, c00371c <MX_LPUART1_UART_Init+0x6c>
  {
    Error_Handler();
  }
  if (HAL_UARTEx_DisableFifoMode(&hlpuart1) != HAL_OK)
 c0036f2:	4813      	ldr	r0, [pc, #76]	@ (c003740 <MX_LPUART1_UART_Init+0x90>)
 c0036f4:	f002 fc72 	bl	c005fdc <HAL_UARTEx_DisableFifoMode>
 c0036f8:	b9b8      	cbnz	r0, c00372a <MX_LPUART1_UART_Init+0x7a>
  }
  /* USER CODE BEGIN LPUART1_Init 2 */

  /* USER CODE END LPUART1_Init 2 */

}
 c0036fa:	bd08      	pop	{r3, pc}
    Error_Handler();
 c0036fc:	f7ff f9fa 	bl	c002af4 <Error_Handler>
  if (HAL_UARTEx_SetTxFifoThreshold(&hlpuart1, UART_TXFIFO_THRESHOLD_1_8) != HAL_OK)
 c003700:	2100      	movs	r1, #0
 c003702:	480f      	ldr	r0, [pc, #60]	@ (c003740 <MX_LPUART1_UART_Init+0x90>)
 c003704:	f002 fc88 	bl	c006018 <HAL_UARTEx_SetTxFifoThreshold>
 c003708:	2800      	cmp	r0, #0
 c00370a:	d0ed      	beq.n	c0036e8 <MX_LPUART1_UART_Init+0x38>
    Error_Handler();
 c00370c:	f7ff f9f2 	bl	c002af4 <Error_Handler>
  if (HAL_UARTEx_SetRxFifoThreshold(&hlpuart1, UART_RXFIFO_THRESHOLD_1_8) != HAL_OK)
 c003710:	2100      	movs	r1, #0
 c003712:	480b      	ldr	r0, [pc, #44]	@ (c003740 <MX_LPUART1_UART_Init+0x90>)
 c003714:	f002 fcc2 	bl	c00609c <HAL_UARTEx_SetRxFifoThreshold>
 c003718:	2800      	cmp	r0, #0
 c00371a:	d0ea      	beq.n	c0036f2 <MX_LPUART1_UART_Init+0x42>
    Error_Handler();
 c00371c:	f7ff f9ea 	bl	c002af4 <Error_Handler>
  if (HAL_UARTEx_DisableFifoMode(&hlpuart1) != HAL_OK)
 c003720:	4807      	ldr	r0, [pc, #28]	@ (c003740 <MX_LPUART1_UART_Init+0x90>)
 c003722:	f002 fc5b 	bl	c005fdc <HAL_UARTEx_DisableFifoMode>
 c003726:	2800      	cmp	r0, #0
 c003728:	d0e7      	beq.n	c0036fa <MX_LPUART1_UART_Init+0x4a>
}
 c00372a:	e8bd 4008 	ldmia.w	sp!, {r3, lr}
    Error_Handler();
 c00372e:	f7ff b9e1 	b.w	c002af4 <Error_Handler>
 c003732:	bf00      	nop
 c003734:	f3af 8000 	nop.w
	...
 c003740:	300001a0 	.word	0x300001a0
 c003744:	50008000 	.word	0x50008000

0c003748 <HAL_UART_MspInit>:

void HAL_UART_MspInit(UART_HandleTypeDef* uartHandle)
{
 c003748:	b510      	push	{r4, lr}

  GPIO_InitTypeDef GPIO_InitStruct = {0};
 c00374a:	2100      	movs	r1, #0
{
 c00374c:	4604      	mov	r4, r0
 c00374e:	b0ac      	sub	sp, #176	@ 0xb0
  RCC_PeriphCLKInitTypeDef PeriphClkInit = {0};
 c003750:	2294      	movs	r2, #148	@ 0x94
 c003752:	a807      	add	r0, sp, #28
  GPIO_InitTypeDef GPIO_InitStruct = {0};
 c003754:	e9cd 1102 	strd	r1, r1, [sp, #8]
 c003758:	e9cd 1104 	strd	r1, r1, [sp, #16]
 c00375c:	9106      	str	r1, [sp, #24]
  RCC_PeriphCLKInitTypeDef PeriphClkInit = {0};
 c00375e:	f002 fcef 	bl	c006140 <memset>
  if(uartHandle->Instance==LPUART1)
 c003762:	4b1d      	ldr	r3, [pc, #116]	@ (c0037d8 <HAL_UART_MspInit+0x90>)
 c003764:	6822      	ldr	r2, [r4, #0]
 c003766:	429a      	cmp	r2, r3
 c003768:	d001      	beq.n	c00376e <HAL_UART_MspInit+0x26>

  /* USER CODE BEGIN LPUART1_MspInit 1 */

  /* USER CODE END LPUART1_MspInit 1 */
  }
}
 c00376a:	b02c      	add	sp, #176	@ 0xb0
 c00376c:	bd10      	pop	{r4, pc}
    PeriphClkInit.PeriphClockSelection = RCC_PERIPHCLK_LPUART1;
 c00376e:	2320      	movs	r3, #32
    if (HAL_RCCEx_PeriphCLKConfig(&PeriphClkInit) != HAL_OK)
 c003770:	a807      	add	r0, sp, #28
    PeriphClkInit.PeriphClockSelection = RCC_PERIPHCLK_LPUART1;
 c003772:	9307      	str	r3, [sp, #28]
    if (HAL_RCCEx_PeriphCLKConfig(&PeriphClkInit) != HAL_OK)
 c003774:	f001 fb50 	bl	c004e18 <HAL_RCCEx_PeriphCLKConfig>
 c003778:	bb20      	cbnz	r0, c0037c4 <HAL_UART_MspInit+0x7c>
    __HAL_RCC_LPUART1_CLK_ENABLE();
 c00377a:	4b18      	ldr	r3, [pc, #96]	@ (c0037dc <HAL_UART_MspInit+0x94>)
 c00377c:	6dda      	ldr	r2, [r3, #92]	@ 0x5c
 c00377e:	f042 0201 	orr.w	r2, r2, #1
 c003782:	65da      	str	r2, [r3, #92]	@ 0x5c
 c003784:	6dda      	ldr	r2, [r3, #92]	@ 0x5c
 c003786:	f002 0201 	and.w	r2, r2, #1
 c00378a:	9200      	str	r2, [sp, #0]
 c00378c:	9a00      	ldr	r2, [sp, #0]
    __HAL_RCC_GPIOG_CLK_ENABLE();
 c00378e:	6cda      	ldr	r2, [r3, #76]	@ 0x4c
 c003790:	f042 0240 	orr.w	r2, r2, #64	@ 0x40
 c003794:	64da      	str	r2, [r3, #76]	@ 0x4c
 c003796:	6cdb      	ldr	r3, [r3, #76]	@ 0x4c
 c003798:	f003 0340 	and.w	r3, r3, #64	@ 0x40
 c00379c:	9301      	str	r3, [sp, #4]
 c00379e:	9b01      	ldr	r3, [sp, #4]
    HAL_PWREx_EnableVddIO2();
 c0037a0:	f000 fbe4 	bl	c003f6c <HAL_PWREx_EnableVddIO2>
    GPIO_InitStruct.Alternate = GPIO_AF8_LPUART1;
 c0037a4:	2008      	movs	r0, #8
    GPIO_InitStruct.Pin = GPIO_PIN_7|GPIO_PIN_8;
 c0037a6:	ed9f 7b0a 	vldr	d7, [pc, #40]	@ c0037d0 <HAL_UART_MspInit+0x88>
 c0037aa:	2200      	movs	r2, #0
 c0037ac:	2300      	movs	r3, #0
    GPIO_InitStruct.Alternate = GPIO_AF8_LPUART1;
 c0037ae:	9006      	str	r0, [sp, #24]
    HAL_GPIO_Init(GPIOG, &GPIO_InitStruct);
 c0037b0:	a902      	add	r1, sp, #8
 c0037b2:	480b      	ldr	r0, [pc, #44]	@ (c0037e0 <HAL_UART_MspInit+0x98>)
    GPIO_InitStruct.Pin = GPIO_PIN_7|GPIO_PIN_8;
 c0037b4:	ed8d 7b02 	vstr	d7, [sp, #8]
 c0037b8:	e9cd 2304 	strd	r2, r3, [sp, #16]
    HAL_GPIO_Init(GPIOG, &GPIO_InitStruct);
 c0037bc:	f000 f8fc 	bl	c0039b8 <HAL_GPIO_Init>
}
 c0037c0:	b02c      	add	sp, #176	@ 0xb0
 c0037c2:	bd10      	pop	{r4, pc}
      Error_Handler();
 c0037c4:	f7ff f996 	bl	c002af4 <Error_Handler>
 c0037c8:	e7d7      	b.n	c00377a <HAL_UART_MspInit+0x32>
 c0037ca:	bf00      	nop
 c0037cc:	f3af 8000 	nop.w
 c0037d0:	00000180 	.word	0x00000180
 c0037d4:	00000002 	.word	0x00000002
 c0037d8:	50008000 	.word	0x50008000
 c0037dc:	50021000 	.word	0x50021000
 c0037e0:	52021800 	.word	0x52021800

0c0037e4 <Reset_Handler>:

    .section	.text.Reset_Handler
	.weak	Reset_Handler
	.type	Reset_Handler, %function
Reset_Handler:
  ldr   sp, =_estack    /* set stack pointer */
 c0037e4:	f8df d034 	ldr.w	sp, [pc, #52]	@ c00381c <LoopForever+0x2>

/* Call the clock system initialization function.*/
  bl  SystemInit
 c0037e8:	f7ff fd56 	bl	c003298 <SystemInit>

/* Copy the data segment initializers from flash to SRAM */
  movs	r1, #0
 c0037ec:	2100      	movs	r1, #0
  b	LoopCopyDataInit
 c0037ee:	e003      	b.n	c0037f8 <LoopCopyDataInit>

0c0037f0 <CopyDataInit>:

CopyDataInit:
	ldr	r3, =_sidata
 c0037f0:	4b0b      	ldr	r3, [pc, #44]	@ (c003820 <LoopForever+0x6>)
	ldr	r3, [r3, r1]
 c0037f2:	585b      	ldr	r3, [r3, r1]
	str	r3, [r0, r1]
 c0037f4:	5043      	str	r3, [r0, r1]
	adds	r1, r1, #4
 c0037f6:	3104      	adds	r1, #4

0c0037f8 <LoopCopyDataInit>:

LoopCopyDataInit:
	ldr	r0, =_sdata
 c0037f8:	480a      	ldr	r0, [pc, #40]	@ (c003824 <LoopForever+0xa>)
	ldr	r3, =_edata
 c0037fa:	4b0b      	ldr	r3, [pc, #44]	@ (c003828 <LoopForever+0xe>)
	adds	r2, r0, r1
 c0037fc:	1842      	adds	r2, r0, r1
	cmp	r2, r3
 c0037fe:	429a      	cmp	r2, r3
	bcc	CopyDataInit
 c003800:	d3f6      	bcc.n	c0037f0 <CopyDataInit>
	ldr	r2, =_sbss
 c003802:	4a0a      	ldr	r2, [pc, #40]	@ (c00382c <LoopForever+0x12>)
	b	LoopFillZerobss
 c003804:	e002      	b.n	c00380c <LoopFillZerobss>

0c003806 <FillZerobss>:
/* Zero fill the bss segment. */
FillZerobss:
	movs	r3, #0
 c003806:	2300      	movs	r3, #0
	str	r3, [r2], #4
 c003808:	f842 3b04 	str.w	r3, [r2], #4

0c00380c <LoopFillZerobss>:

LoopFillZerobss:
	ldr	r3, = _ebss
 c00380c:	4b08      	ldr	r3, [pc, #32]	@ (c003830 <LoopForever+0x16>)
	cmp	r2, r3
 c00380e:	429a      	cmp	r2, r3
	bcc	FillZerobss
 c003810:	d3f9      	bcc.n	c003806 <FillZerobss>

/* Call static constructors */
  bl __libc_init_array
 c003812:	f002 fc9d 	bl	c006150 <__libc_init_array>
/* Call the application's entry point.*/
	bl	main
 c003816:	f7ff f923 	bl	c002a60 <main>

0c00381a <LoopForever>:

LoopForever:
    b LoopForever
 c00381a:	e7fe      	b.n	c00381a <LoopForever>
  ldr   sp, =_estack    /* set stack pointer */
 c00381c:	30010000 	.word	0x30010000
	ldr	r3, =_sidata
 c003820:	0c0064d8 	.word	0x0c0064d8
	ldr	r0, =_sdata
 c003824:	30000000 	.word	0x30000000
	ldr	r3, =_edata
 c003828:	300000b0 	.word	0x300000b0
	ldr	r2, =_sbss
 c00382c:	300000b0 	.word	0x300000b0
	ldr	r3, = _ebss
 c003830:	30000234 	.word	0x30000234

0c003834 <ADC1_2_IRQHandler>:
 * @retval : None
*/
    .section	.text.Default_Handler,"ax",%progbits
Default_Handler:
Infinite_Loop:
	b	Infinite_Loop
 c003834:	e7fe      	b.n	c003834 <ADC1_2_IRQHandler>
	...

0c003838 <HAL_InitTick>:
  *       implementation  in user file.
  * @param TickPriority  Tick interrupt priority.
  * @retval HAL status
  */
__weak HAL_StatusTypeDef HAL_InitTick(uint32_t TickPriority)
{
 c003838:	b538      	push	{r3, r4, r5, lr}
  HAL_StatusTypeDef  status = HAL_OK;

  /* Check uwTickFreq for MisraC 2012 (even if uwTickFreq is a enum type that doesn't take the value zero)*/
  if ((uint32_t)uwTickFreq != 0U)
 c00383a:	4b0f      	ldr	r3, [pc, #60]	@ (c003878 <HAL_InitTick+0x40>)
 c00383c:	781b      	ldrb	r3, [r3, #0]
 c00383e:	b90b      	cbnz	r3, c003844 <HAL_InitTick+0xc>
        status = HAL_ERROR;
      }
    }
    else
    {
      status = HAL_ERROR;
 c003840:	2001      	movs	r0, #1
    status = HAL_ERROR;
  }

  /* Return function status */
  return status;
}
 c003842:	bd38      	pop	{r3, r4, r5, pc}
    if (HAL_SYSTICK_Config(SystemCoreClock / (1000U / (uint32_t)uwTickFreq)) == 0U)
 c003844:	f44f 727a 	mov.w	r2, #1000	@ 0x3e8
 c003848:	fbb2 f3f3 	udiv	r3, r2, r3
 c00384c:	490b      	ldr	r1, [pc, #44]	@ (c00387c <HAL_InitTick+0x44>)
 c00384e:	4605      	mov	r5, r0
 c003850:	6808      	ldr	r0, [r1, #0]
 c003852:	fbb0 f0f3 	udiv	r0, r0, r3
 c003856:	f000 f895 	bl	c003984 <HAL_SYSTICK_Config>
 c00385a:	4604      	mov	r4, r0
 c00385c:	2800      	cmp	r0, #0
 c00385e:	d1ef      	bne.n	c003840 <HAL_InitTick+0x8>
      if (TickPriority < (1UL << __NVIC_PRIO_BITS))
 c003860:	2d07      	cmp	r5, #7
 c003862:	d8ed      	bhi.n	c003840 <HAL_InitTick+0x8>
        HAL_NVIC_SetPriority(SysTick_IRQn, TickPriority, 0U);
 c003864:	4602      	mov	r2, r0
 c003866:	4629      	mov	r1, r5
 c003868:	f04f 30ff 	mov.w	r0, #4294967295
 c00386c:	f000 f840 	bl	c0038f0 <HAL_NVIC_SetPriority>
        uwTickPrio = TickPriority;
 c003870:	4b03      	ldr	r3, [pc, #12]	@ (c003880 <HAL_InitTick+0x48>)
 c003872:	4620      	mov	r0, r4
 c003874:	601d      	str	r5, [r3, #0]
}
 c003876:	bd38      	pop	{r3, r4, r5, pc}
 c003878:	300000a8 	.word	0x300000a8
 c00387c:	300000a4 	.word	0x300000a4
 c003880:	300000ac 	.word	0x300000ac

0c003884 <HAL_Init>:
  HAL_NVIC_SetPriorityGrouping(NVIC_PRIORITYGROUP_3);
 c003884:	2004      	movs	r0, #4
{
 c003886:	b510      	push	{r4, lr}
  HAL_NVIC_SetPriorityGrouping(NVIC_PRIORITYGROUP_3);
 c003888:	f000 f820 	bl	c0038cc <HAL_NVIC_SetPriorityGrouping>
  SystemCoreClockUpdate();
 c00388c:	f7ff fd8a 	bl	c0033a4 <SystemCoreClockUpdate>
  if (HAL_InitTick(TICK_INT_PRIORITY) != HAL_OK)
 c003890:	2007      	movs	r0, #7
 c003892:	f7ff ffd1 	bl	c003838 <HAL_InitTick>
 c003896:	b110      	cbz	r0, c00389e <HAL_Init+0x1a>
    status = HAL_ERROR;
 c003898:	2401      	movs	r4, #1
}
 c00389a:	4620      	mov	r0, r4
 c00389c:	bd10      	pop	{r4, pc}
 c00389e:	4604      	mov	r4, r0
    HAL_MspInit();
 c0038a0:	f7ff fc7a 	bl	c003198 <HAL_MspInit>
}
 c0038a4:	4620      	mov	r0, r4
 c0038a6:	bd10      	pop	{r4, pc}

0c0038a8 <HAL_IncTick>:
  *      implementations in user file.
  * @retval None
  */
__weak void HAL_IncTick(void)
{
  uwTick += (uint32_t)uwTickFreq;
 c0038a8:	4a03      	ldr	r2, [pc, #12]	@ (c0038b8 <HAL_IncTick+0x10>)
 c0038aa:	4b04      	ldr	r3, [pc, #16]	@ (c0038bc <HAL_IncTick+0x14>)
 c0038ac:	6811      	ldr	r1, [r2, #0]
 c0038ae:	781b      	ldrb	r3, [r3, #0]
 c0038b0:	440b      	add	r3, r1
 c0038b2:	6013      	str	r3, [r2, #0]
}
 c0038b4:	4770      	bx	lr
 c0038b6:	bf00      	nop
 c0038b8:	30000230 	.word	0x30000230
 c0038bc:	300000a8 	.word	0x300000a8

0c0038c0 <HAL_GetTick>:
  *       implementations in user file.
  * @retval tick value
  */
__weak uint32_t HAL_GetTick(void)
{
  return uwTick;
 c0038c0:	4b01      	ldr	r3, [pc, #4]	@ (c0038c8 <HAL_GetTick+0x8>)
 c0038c2:	6818      	ldr	r0, [r3, #0]
}
 c0038c4:	4770      	bx	lr
 c0038c6:	bf00      	nop
 c0038c8:	30000230 	.word	0x30000230

0c0038cc <HAL_NVIC_SetPriorityGrouping>:
{
  uint32_t reg_value;
  uint32_t PriorityGroupTmp = (PriorityGroup & (uint32_t)0x07UL);             /* only values 0..7 are used          */

  reg_value  =  SCB->AIRCR;                                                   /* read old register configuration    */
  reg_value &= ~((uint32_t)(SCB_AIRCR_VECTKEY_Msk | SCB_AIRCR_PRIGROUP_Msk)); /* clear bits to change               */
 c0038cc:	f64f 0cff 	movw	ip, #63743	@ 0xf8ff
  reg_value  =  SCB->AIRCR;                                                   /* read old register configuration    */
 c0038d0:	4906      	ldr	r1, [pc, #24]	@ (c0038ec <HAL_NVIC_SetPriorityGrouping+0x20>)
  reg_value  =  (reg_value                                   |
                ((uint32_t)0x5FAUL << SCB_AIRCR_VECTKEY_Pos) |
                (PriorityGroupTmp << SCB_AIRCR_PRIGROUP_Pos)  );              /* Insert write key and priority group */
 c0038d2:	0203      	lsls	r3, r0, #8
  reg_value  =  SCB->AIRCR;                                                   /* read old register configuration    */
 c0038d4:	68ca      	ldr	r2, [r1, #12]
                (PriorityGroupTmp << SCB_AIRCR_PRIGROUP_Pos)  );              /* Insert write key and priority group */
 c0038d6:	f403 63e0 	and.w	r3, r3, #1792	@ 0x700
  reg_value &= ~((uint32_t)(SCB_AIRCR_VECTKEY_Msk | SCB_AIRCR_PRIGROUP_Msk)); /* clear bits to change               */
 c0038da:	ea02 020c 	and.w	r2, r2, ip
                ((uint32_t)0x5FAUL << SCB_AIRCR_VECTKEY_Pos) |
 c0038de:	4313      	orrs	r3, r2
  reg_value  =  (reg_value                                   |
 c0038e0:	f043 63bf 	orr.w	r3, r3, #100139008	@ 0x5f80000
 c0038e4:	f443 3300 	orr.w	r3, r3, #131072	@ 0x20000
  SCB->AIRCR =  reg_value;
 c0038e8:	60cb      	str	r3, [r1, #12]
  /* Check the parameters */
  assert_param(IS_NVIC_PRIORITY_GROUP(PriorityGroup));

  /* Set the PRIGROUP[10:8] bits according to the PriorityGroup parameter value */
  NVIC_SetPriorityGrouping(PriorityGroup);
}
 c0038ea:	4770      	bx	lr
 c0038ec:	e000ed00 	.word	0xe000ed00

0c0038f0 <HAL_NVIC_SetPriority>:
  \details Reads the priority grouping field from the NVIC Interrupt Controller.
  \return                Priority grouping field (SCB->AIRCR [10:8] PRIGROUP field).
 */
__STATIC_INLINE uint32_t __NVIC_GetPriorityGrouping(void)
{
  return ((uint32_t)((SCB->AIRCR & SCB_AIRCR_PRIGROUP_Msk) >> SCB_AIRCR_PRIGROUP_Pos));
 c0038f0:	4b1b      	ldr	r3, [pc, #108]	@ (c003960 <HAL_NVIC_SetPriority+0x70>)
  *         This parameter can be a value between 0 and 7
  *         A lower priority value indicates a higher priority.
  * @retval None
  */
void HAL_NVIC_SetPriority(IRQn_Type IRQn, uint32_t PreemptPriority, uint32_t SubPriority)
{
 c0038f2:	b500      	push	{lr}
 c0038f4:	68db      	ldr	r3, [r3, #12]
 c0038f6:	f3c3 2302 	ubfx	r3, r3, #8, #3
{
  uint32_t PriorityGroupTmp = (PriorityGroup & (uint32_t)0x07UL);   /* only values 0..7 are used          */
  uint32_t PreemptPriorityBits;
  uint32_t SubPriorityBits;

  PreemptPriorityBits = ((7UL - PriorityGroupTmp) > (uint32_t)(__NVIC_PRIO_BITS)) ? (uint32_t)(__NVIC_PRIO_BITS) : (uint32_t)(7UL - PriorityGroupTmp);
 c0038fa:	f1c3 0e07 	rsb	lr, r3, #7
 c0038fe:	f1be 0f03 	cmp.w	lr, #3
  SubPriorityBits     = ((PriorityGroupTmp + (uint32_t)(__NVIC_PRIO_BITS)) < (uint32_t)7UL) ? (uint32_t)0UL : (uint32_t)((PriorityGroupTmp - 7UL) + (uint32_t)(__NVIC_PRIO_BITS));
 c003902:	f103 0c03 	add.w	ip, r3, #3
  PreemptPriorityBits = ((7UL - PriorityGroupTmp) > (uint32_t)(__NVIC_PRIO_BITS)) ? (uint32_t)(__NVIC_PRIO_BITS) : (uint32_t)(7UL - PriorityGroupTmp);
 c003906:	bf28      	it	cs
 c003908:	f04f 0e03 	movcs.w	lr, #3
  SubPriorityBits     = ((PriorityGroupTmp + (uint32_t)(__NVIC_PRIO_BITS)) < (uint32_t)7UL) ? (uint32_t)0UL : (uint32_t)((PriorityGroupTmp - 7UL) + (uint32_t)(__NVIC_PRIO_BITS));
 c00390c:	f1bc 0f06 	cmp.w	ip, #6
 c003910:	d91c      	bls.n	c00394c <HAL_NVIC_SetPriority+0x5c>
 c003912:	f1a3 0c04 	sub.w	ip, r3, #4

  return (
           ((PreemptPriority & (uint32_t)((1UL << (PreemptPriorityBits)) - 1UL)) << SubPriorityBits) |
           ((SubPriority     & (uint32_t)((1UL << (SubPriorityBits    )) - 1UL)))
 c003916:	f04f 33ff 	mov.w	r3, #4294967295
 c00391a:	fa03 f30c 	lsl.w	r3, r3, ip
 c00391e:	ea22 0203 	bic.w	r2, r2, r3
           ((PreemptPriority & (uint32_t)((1UL << (PreemptPriorityBits)) - 1UL)) << SubPriorityBits) |
 c003922:	f04f 33ff 	mov.w	r3, #4294967295
 c003926:	fa03 f30e 	lsl.w	r3, r3, lr
 c00392a:	ea21 0303 	bic.w	r3, r1, r3
 c00392e:	fa03 f30c 	lsl.w	r3, r3, ip
 c003932:	4313      	orrs	r3, r2
    NVIC->IPR[((uint32_t)IRQn)]               = (uint8_t)((priority << (8U - __NVIC_PRIO_BITS)) & (uint32_t)0xFFUL);
 c003934:	015b      	lsls	r3, r3, #5
  if ((int32_t)(IRQn) >= 0)
 c003936:	2800      	cmp	r0, #0
    NVIC->IPR[((uint32_t)IRQn)]               = (uint8_t)((priority << (8U - __NVIC_PRIO_BITS)) & (uint32_t)0xFFUL);
 c003938:	b2db      	uxtb	r3, r3
  if ((int32_t)(IRQn) >= 0)
 c00393a:	db0a      	blt.n	c003952 <HAL_NVIC_SetPriority+0x62>
    NVIC->IPR[((uint32_t)IRQn)]               = (uint8_t)((priority << (8U - __NVIC_PRIO_BITS)) & (uint32_t)0xFFUL);
 c00393c:	f100 4060 	add.w	r0, r0, #3758096384	@ 0xe0000000
 c003940:	f500 4061 	add.w	r0, r0, #57600	@ 0xe100
 c003944:	f880 3300 	strb.w	r3, [r0, #768]	@ 0x300
  assert_param(IS_NVIC_PREEMPTION_PRIORITY(PreemptPriority));

  prioritygroup = NVIC_GetPriorityGrouping();

  NVIC_SetPriority(IRQn, NVIC_EncodePriority(prioritygroup, PreemptPriority, SubPriority));
}
 c003948:	f85d fb04 	ldr.w	pc, [sp], #4
 c00394c:	2200      	movs	r2, #0
  SubPriorityBits     = ((PriorityGroupTmp + (uint32_t)(__NVIC_PRIO_BITS)) < (uint32_t)7UL) ? (uint32_t)0UL : (uint32_t)((PriorityGroupTmp - 7UL) + (uint32_t)(__NVIC_PRIO_BITS));
 c00394e:	4694      	mov	ip, r2
 c003950:	e7e7      	b.n	c003922 <HAL_NVIC_SetPriority+0x32>
    SCB->SHPR[(((uint32_t)IRQn) & 0xFUL)-4UL] = (uint8_t)((priority << (8U - __NVIC_PRIO_BITS)) & (uint32_t)0xFFUL);
 c003952:	4a04      	ldr	r2, [pc, #16]	@ (c003964 <HAL_NVIC_SetPriority+0x74>)
 c003954:	f000 000f 	and.w	r0, r0, #15
 c003958:	4402      	add	r2, r0
 c00395a:	7613      	strb	r3, [r2, #24]
 c00395c:	f85d fb04 	ldr.w	pc, [sp], #4
 c003960:	e000ed00 	.word	0xe000ed00
 c003964:	e000ecfc 	.word	0xe000ecfc

0c003968 <HAL_NVIC_EnableIRQ>:
  if ((int32_t)(IRQn) >= 0)
 c003968:	2800      	cmp	r0, #0
 c00396a:	db07      	blt.n	c00397c <HAL_NVIC_EnableIRQ+0x14>
    NVIC->ISER[(((uint32_t)IRQn) >> 5UL)] = (uint32_t)(1UL << (((uint32_t)IRQn) & 0x1FUL));
 c00396c:	2301      	movs	r3, #1
 c00396e:	f000 011f 	and.w	r1, r0, #31
 c003972:	4a03      	ldr	r2, [pc, #12]	@ (c003980 <HAL_NVIC_EnableIRQ+0x18>)
 c003974:	0940      	lsrs	r0, r0, #5
 c003976:	408b      	lsls	r3, r1
 c003978:	f842 3020 	str.w	r3, [r2, r0, lsl #2]
  /* Check the parameters */
  assert_param(IS_NVIC_DEVICE_IRQ(IRQn));

  /* Enable interrupt */
  NVIC_EnableIRQ(IRQn);
}
 c00397c:	4770      	bx	lr
 c00397e:	bf00      	nop
 c003980:	e000e100 	.word	0xe000e100

0c003984 <HAL_SYSTICK_Config>:
           function <b>SysTick_Config</b> is not included. In this case, the file <b><i>device</i>.h</b>
           must contain a vendor-specific implementation of this function.
 */
__STATIC_INLINE uint32_t SysTick_Config(uint32_t ticks)
{
  if ((ticks - 1UL) > SysTick_LOAD_RELOAD_Msk)
 c003984:	3801      	subs	r0, #1
 c003986:	f1b0 7f80 	cmp.w	r0, #16777216	@ 0x1000000
 c00398a:	d301      	bcc.n	c003990 <HAL_SYSTICK_Config+0xc>
  {
    return (1UL);                                                   /* Reload value impossible */
 c00398c:	2001      	movs	r0, #1
  *                  - 1  Function failed.
  */
uint32_t HAL_SYSTICK_Config(uint32_t TicksNumb)
{
  return SysTick_Config(TicksNumb);
}
 c00398e:	4770      	bx	lr
  }

  SysTick->LOAD  = (uint32_t)(ticks - 1UL);                         /* set reload register */
 c003990:	f04f 23e0 	mov.w	r3, #3758153728	@ 0xe000e000
    SCB->SHPR[(((uint32_t)IRQn) & 0xFUL)-4UL] = (uint8_t)((priority << (8U - __NVIC_PRIO_BITS)) & (uint32_t)0xFFUL);
 c003994:	f04f 0ce0 	mov.w	ip, #224	@ 0xe0
  NVIC_SetPriority (SysTick_IRQn, (1UL << __NVIC_PRIO_BITS) - 1UL); /* set Priority for Systick Interrupt */
  SysTick->VAL   = 0UL;                                             /* Load the SysTick Counter Value */
 c003998:	2200      	movs	r2, #0
  SysTick->CTRL  = SysTick_CTRL_CLKSOURCE_Msk |
 c00399a:	2107      	movs	r1, #7
{
 c00399c:	b410      	push	{r4}
    SCB->SHPR[(((uint32_t)IRQn) & 0xFUL)-4UL] = (uint8_t)((priority << (8U - __NVIC_PRIO_BITS)) & (uint32_t)0xFFUL);
 c00399e:	4c05      	ldr	r4, [pc, #20]	@ (c0039b4 <HAL_SYSTICK_Config+0x30>)
  SysTick->LOAD  = (uint32_t)(ticks - 1UL);                         /* set reload register */
 c0039a0:	6158      	str	r0, [r3, #20]
    SCB->SHPR[(((uint32_t)IRQn) & 0xFUL)-4UL] = (uint8_t)((priority << (8U - __NVIC_PRIO_BITS)) & (uint32_t)0xFFUL);
 c0039a2:	f884 c023 	strb.w	ip, [r4, #35]	@ 0x23
                   SysTick_CTRL_TICKINT_Msk   |
                   SysTick_CTRL_ENABLE_Msk;                         /* Enable SysTick IRQ and SysTick Timer */
  return (0UL);                                                     /* Function successful */
 c0039a6:	4610      	mov	r0, r2
  SysTick->VAL   = 0UL;                                             /* Load the SysTick Counter Value */
 c0039a8:	619a      	str	r2, [r3, #24]
}
 c0039aa:	f85d 4b04 	ldr.w	r4, [sp], #4
  SysTick->CTRL  = SysTick_CTRL_CLKSOURCE_Msk |
 c0039ae:	6119      	str	r1, [r3, #16]
 c0039b0:	4770      	bx	lr
 c0039b2:	bf00      	nop
 c0039b4:	e000ed00 	.word	0xe000ed00

0c0039b8 <HAL_GPIO_Init>:
  * @param  GPIO_Init pointer to a GPIO_InitTypeDef structure that contains
  *         the configuration information for the specified GPIO peripheral.
  * @retval None
  */
void HAL_GPIO_Init(GPIO_TypeDef  *GPIOx, GPIO_InitTypeDef *GPIO_Init)
{
 c0039b8:	e92d 4ff0 	stmdb	sp!, {r4, r5, r6, r7, r8, r9, sl, fp, lr}
  assert_param(IS_GPIO_PIN(GPIO_Init->Pin));
  assert_param(IS_GPIO_MODE(GPIO_Init->Mode));
  assert_param(IS_GPIO_PULL(GPIO_Init->Pull));

  /* Configure the port pins */
  while (((GPIO_Init->Pin) >> position) != 0U)
 c0039bc:	680c      	ldr	r4, [r1, #0]
 c0039be:	2c00      	cmp	r4, #0
 c0039c0:	f000 808d 	beq.w	c003ade <HAL_GPIO_Init+0x126>
  uint32_t position = 0U;
 c0039c4:	2200      	movs	r2, #0
  {
    /* Get current io position */
    iocurrent = (GPIO_Init->Pin) & (1UL << position);
 c0039c6:	f04f 0901 	mov.w	r9, #1
 c0039ca:	fa09 f502 	lsl.w	r5, r9, r2

    if(iocurrent != 0U)
 c0039ce:	ea15 0a04 	ands.w	sl, r5, r4
 c0039d2:	d07f      	beq.n	c003ad4 <HAL_GPIO_Init+0x11c>
        GPIOx->OTYPER = temp;
      }

      /* Activate the Pull-up or Pull down resistor for the current IO */
      temp = GPIOx->PUPDR;
      temp &= ~(GPIO_PUPDR_PUPD0 << (position * 2U));
 c0039d4:	2603      	movs	r6, #3
      if((GPIO_Init->Mode == GPIO_MODE_OUTPUT_PP) || (GPIO_Init->Mode == GPIO_MODE_AF_PP) ||
 c0039d6:	684b      	ldr	r3, [r1, #4]
      temp |= ((GPIO_Init->Pull) << (position * 2U));
 c0039d8:	688f      	ldr	r7, [r1, #8]
      if((GPIO_Init->Mode == GPIO_MODE_OUTPUT_PP) || (GPIO_Init->Mode == GPIO_MODE_AF_PP) ||
 c0039da:	f023 0e10 	bic.w	lr, r3, #16
 c0039de:	ea4f 0c42 	mov.w	ip, r2, lsl #1
 c0039e2:	f10e 3bff 	add.w	fp, lr, #4294967295
      temp |= ((GPIO_Init->Pull) << (position * 2U));
 c0039e6:	fa07 f80c 	lsl.w	r8, r7, ip
      if((GPIO_Init->Mode == GPIO_MODE_OUTPUT_PP) || (GPIO_Init->Mode == GPIO_MODE_AF_PP) ||
 c0039ea:	f1bb 0f01 	cmp.w	fp, #1
      temp &= ~(GPIO_PUPDR_PUPD0 << (position * 2U));
 c0039ee:	fa06 f70c 	lsl.w	r7, r6, ip
 c0039f2:	ea6f 0707 	mvn.w	r7, r7
      if((GPIO_Init->Mode == GPIO_MODE_OUTPUT_PP) || (GPIO_Init->Mode == GPIO_MODE_AF_PP) ||
 c0039f6:	d974      	bls.n	c003ae2 <HAL_GPIO_Init+0x12a>
      temp = GPIOx->PUPDR;
 c0039f8:	68c5      	ldr	r5, [r0, #12]
      temp &= ~(GPIO_PUPDR_PUPD0 << (position * 2U));
 c0039fa:	403d      	ands	r5, r7
      temp |= ((GPIO_Init->Pull) << (position * 2U));
 c0039fc:	ea45 0508 	orr.w	r5, r5, r8
      GPIOx->PUPDR = temp;
 c003a00:	60c5      	str	r5, [r0, #12]
        temp |= ((GPIO_Init->Alternate) << ((position & 0x07U) * 4U));
        GPIOx->AFR[position >> 3U] = temp;
      }

      /* Configure IO Direction mode (Input, Output, Alternate or Analog) */
      temp = GPIOx->MODER;
 c003a02:	6805      	ldr	r5, [r0, #0]
      temp &= ~(GPIO_MODER_MODE0 << (position * 2U));
 c003a04:	402f      	ands	r7, r5
      temp |= ((GPIO_Init->Mode & GPIO_MODE) << (position * 2U));
 c003a06:	ea03 0506 	and.w	r5, r3, r6
 c003a0a:	fa05 f50c 	lsl.w	r5, r5, ip
 c003a0e:	433d      	orrs	r5, r7
      GPIOx->MODER = temp;

      /*--------------------- EXTI Mode Configuration ------------------------*/
      /* Configure the External Interrupt or event for the current IO */
      if((GPIO_Init->Mode & EXTI_MODE) == EXTI_MODE)
 c003a10:	00df      	lsls	r7, r3, #3
      GPIOx->MODER = temp;
 c003a12:	6005      	str	r5, [r0, #0]
      if((GPIO_Init->Mode & EXTI_MODE) == EXTI_MODE)
 c003a14:	d55e      	bpl.n	c003ad4 <HAL_GPIO_Init+0x11c>
      {
        temp = EXTI->EXTICR[position >> 2U];
        temp &= ~((0x0FU) << (8U * (position & 0x03U)));
 c003a16:	260f      	movs	r6, #15
 c003a18:	f022 0503 	bic.w	r5, r2, #3
 c003a1c:	f002 0c03 	and.w	ip, r2, #3
 c003a20:	f105 45a0 	add.w	r5, r5, #1342177280	@ 0x50000000
 c003a24:	ea4f 0ccc 	mov.w	ip, ip, lsl #3
 c003a28:	fa06 fe0c 	lsl.w	lr, r6, ip
 c003a2c:	f505 353d 	add.w	r5, r5, #193536	@ 0x2f400
        temp |= (GPIO_GET_INDEX(GPIOx) << (8U * (position & 0x03U)));
 c003a30:	4e62      	ldr	r6, [pc, #392]	@ (c003bbc <HAL_GPIO_Init+0x204>)
        temp = EXTI->EXTICR[position >> 2U];
 c003a32:	6e2f      	ldr	r7, [r5, #96]	@ 0x60
        temp |= (GPIO_GET_INDEX(GPIOx) << (8U * (position & 0x03U)));
 c003a34:	42b0      	cmp	r0, r6
        temp &= ~((0x0FU) << (8U * (position & 0x03U)));
 c003a36:	ea27 070e 	bic.w	r7, r7, lr
        temp |= (GPIO_GET_INDEX(GPIOx) << (8U * (position & 0x03U)));
 c003a3a:	d023      	beq.n	c003a84 <HAL_GPIO_Init+0xcc>
 c003a3c:	f506 6680 	add.w	r6, r6, #1024	@ 0x400
 c003a40:	42b0      	cmp	r0, r6
 c003a42:	f000 80a0 	beq.w	c003b86 <HAL_GPIO_Init+0x1ce>
 c003a46:	4e5e      	ldr	r6, [pc, #376]	@ (c003bc0 <HAL_GPIO_Init+0x208>)
 c003a48:	42b0      	cmp	r0, r6
 c003a4a:	f000 80a1 	beq.w	c003b90 <HAL_GPIO_Init+0x1d8>
 c003a4e:	f8df e178 	ldr.w	lr, [pc, #376]	@ c003bc8 <HAL_GPIO_Init+0x210>
 c003a52:	4570      	cmp	r0, lr
 c003a54:	f000 8091 	beq.w	c003b7a <HAL_GPIO_Init+0x1c2>
 c003a58:	f8df e170 	ldr.w	lr, [pc, #368]	@ c003bcc <HAL_GPIO_Init+0x214>
 c003a5c:	4570      	cmp	r0, lr
 c003a5e:	f000 809e 	beq.w	c003b9e <HAL_GPIO_Init+0x1e6>
 c003a62:	f8df e16c 	ldr.w	lr, [pc, #364]	@ c003bd0 <HAL_GPIO_Init+0x218>
 c003a66:	4570      	cmp	r0, lr
 c003a68:	f000 80a0 	beq.w	c003bac <HAL_GPIO_Init+0x1f4>
 c003a6c:	f8df e164 	ldr.w	lr, [pc, #356]	@ c003bd4 <HAL_GPIO_Init+0x21c>
 c003a70:	4570      	cmp	r0, lr
 c003a72:	bf0c      	ite	eq
 c003a74:	f04f 0e06 	moveq.w	lr, #6
 c003a78:	f04f 0e07 	movne.w	lr, #7
 c003a7c:	fa0e fc0c 	lsl.w	ip, lr, ip
 c003a80:	ea47 070c 	orr.w	r7, r7, ip
        EXTI->EXTICR[position >> 2U] = temp;
 c003a84:	662f      	str	r7, [r5, #96]	@ 0x60

        /* Clear EXTI line configuration */
        temp = EXTI->IMR1;
        temp &= ~(iocurrent);
 c003a86:	ea6f 070a 	mvn.w	r7, sl
        temp = EXTI->IMR1;
 c003a8a:	4d4e      	ldr	r5, [pc, #312]	@ (c003bc4 <HAL_GPIO_Init+0x20c>)
        if((GPIO_Init->Mode & GPIO_MODE_IT) == GPIO_MODE_IT)
 c003a8c:	03de      	lsls	r6, r3, #15
        temp = EXTI->IMR1;
 c003a8e:	f8d5 5080 	ldr.w	r5, [r5, #128]	@ 0x80
        {
          temp |= iocurrent;
        }
        EXTI->IMR1 = temp;
 c003a92:	4e4c      	ldr	r6, [pc, #304]	@ (c003bc4 <HAL_GPIO_Init+0x20c>)
        temp &= ~(iocurrent);
 c003a94:	bf54      	ite	pl
 c003a96:	403d      	andpl	r5, r7
          temp |= iocurrent;
 c003a98:	ea4a 0505 	orrmi.w	r5, sl, r5
        EXTI->IMR1 = temp;
 c003a9c:	f8c6 5080 	str.w	r5, [r6, #128]	@ 0x80

        temp = EXTI->EMR1;
 c003aa0:	f8d6 5084 	ldr.w	r5, [r6, #132]	@ 0x84
        temp &= ~(iocurrent);
        if((GPIO_Init->Mode & GPIO_MODE_EVT) == GPIO_MODE_EVT)
 c003aa4:	039e      	lsls	r6, r3, #14
        {
          temp |= iocurrent;
        }
        EXTI->EMR1 = temp;
 c003aa6:	4e47      	ldr	r6, [pc, #284]	@ (c003bc4 <HAL_GPIO_Init+0x20c>)
        temp &= ~(iocurrent);
 c003aa8:	bf54      	ite	pl
 c003aaa:	403d      	andpl	r5, r7
          temp |= iocurrent;
 c003aac:	ea4a 0505 	orrmi.w	r5, sl, r5
        EXTI->EMR1 = temp;
 c003ab0:	f8c6 5084 	str.w	r5, [r6, #132]	@ 0x84

        /* Clear Rising Falling edge configuration */
        temp = EXTI->RTSR1;
 c003ab4:	6835      	ldr	r5, [r6, #0]
        temp &= ~(iocurrent);
        if((GPIO_Init->Mode & RISING_EDGE) == RISING_EDGE)
 c003ab6:	02de      	lsls	r6, r3, #11
        {
          temp |= iocurrent;
        }
        EXTI->RTSR1 = temp;
 c003ab8:	4e42      	ldr	r6, [pc, #264]	@ (c003bc4 <HAL_GPIO_Init+0x20c>)
        temp &= ~(iocurrent);
 c003aba:	bf54      	ite	pl
 c003abc:	403d      	andpl	r5, r7
          temp |= iocurrent;
 c003abe:	ea4a 0505 	orrmi.w	r5, sl, r5
        EXTI->RTSR1 = temp;
 c003ac2:	6035      	str	r5, [r6, #0]

        temp = EXTI->FTSR1;
 c003ac4:	6875      	ldr	r5, [r6, #4]
        temp &= ~(iocurrent);
        if((GPIO_Init->Mode & FALLING_EDGE) == FALLING_EDGE)
 c003ac6:	029b      	lsls	r3, r3, #10
        {
          temp |= iocurrent;
        }
        EXTI->FTSR1 = temp;
 c003ac8:	4b3e      	ldr	r3, [pc, #248]	@ (c003bc4 <HAL_GPIO_Init+0x20c>)
        temp &= ~(iocurrent);
 c003aca:	bf54      	ite	pl
 c003acc:	403d      	andpl	r5, r7
          temp |= iocurrent;
 c003ace:	ea4a 0505 	orrmi.w	r5, sl, r5
        EXTI->FTSR1 = temp;
 c003ad2:	605d      	str	r5, [r3, #4]
      }
    }

    position++;
 c003ad4:	3201      	adds	r2, #1
  while (((GPIO_Init->Pin) >> position) != 0U)
 c003ad6:	fa34 f302 	lsrs.w	r3, r4, r2
 c003ada:	f47f af76 	bne.w	c0039ca <HAL_GPIO_Init+0x12>
  }
}
 c003ade:	e8bd 8ff0 	ldmia.w	sp!, {r4, r5, r6, r7, r8, r9, sl, fp, pc}
        temp = GPIOx->OSPEEDR;
 c003ae2:	f8d0 b008 	ldr.w	fp, [r0, #8]
        temp |= (GPIO_Init->Speed << (position * 2U));
 c003ae6:	68ce      	ldr	r6, [r1, #12]
        temp &= ~(GPIO_OSPEEDR_OSPEED0 << (position * 2U));
 c003ae8:	ea0b 0b07 	and.w	fp, fp, r7
        temp |= (GPIO_Init->Speed << (position * 2U));
 c003aec:	fa06 fa0c 	lsl.w	sl, r6, ip
 c003af0:	ea4a 0a0b 	orr.w	sl, sl, fp
        GPIOx->OSPEEDR = temp;
 c003af4:	f8c0 a008 	str.w	sl, [r0, #8]
        temp = GPIOx->OTYPER;
 c003af8:	f8d0 a004 	ldr.w	sl, [r0, #4]
      if((GPIO_Init->Mode == GPIO_MODE_AF_PP) || (GPIO_Init->Mode == GPIO_MODE_AF_OD))
 c003afc:	f1be 0f02 	cmp.w	lr, #2
        temp &= ~(GPIO_OTYPER_OT0 << position) ;
 c003b00:	ea2a 0a05 	bic.w	sl, sl, r5
        temp |= (((GPIO_Init->Mode & GPIO_OUTPUT_TYPE) >> 4) << position);
 c003b04:	ea4f 1513 	mov.w	r5, r3, lsr #4
 c003b08:	fa05 f502 	lsl.w	r5, r5, r2
 c003b0c:	ea45 050a 	orr.w	r5, r5, sl
        GPIOx->OTYPER = temp;
 c003b10:	6045      	str	r5, [r0, #4]
      temp = GPIOx->PUPDR;
 c003b12:	68c5      	ldr	r5, [r0, #12]
      temp |= ((GPIO_Init->Mode & GPIO_MODE) << (position * 2U));
 c003b14:	f003 0303 	and.w	r3, r3, #3
      temp &= ~(GPIO_PUPDR_PUPD0 << (position * 2U));
 c003b18:	ea05 0507 	and.w	r5, r5, r7
      temp |= ((GPIO_Init->Pull) << (position * 2U));
 c003b1c:	ea45 0508 	orr.w	r5, r5, r8
      GPIOx->PUPDR = temp;
 c003b20:	60c5      	str	r5, [r0, #12]
      temp |= ((GPIO_Init->Mode & GPIO_MODE) << (position * 2U));
 c003b22:	fa03 f30c 	lsl.w	r3, r3, ip
      if((GPIO_Init->Mode == GPIO_MODE_AF_PP) || (GPIO_Init->Mode == GPIO_MODE_AF_OD))
 c003b26:	d009      	beq.n	c003b3c <HAL_GPIO_Init+0x184>
      temp = GPIOx->MODER;
 c003b28:	6805      	ldr	r5, [r0, #0]
    position++;
 c003b2a:	3201      	adds	r2, #1
      temp &= ~(GPIO_MODER_MODE0 << (position * 2U));
 c003b2c:	403d      	ands	r5, r7
      temp |= ((GPIO_Init->Mode & GPIO_MODE) << (position * 2U));
 c003b2e:	432b      	orrs	r3, r5
      GPIOx->MODER = temp;
 c003b30:	6003      	str	r3, [r0, #0]
  while (((GPIO_Init->Pin) >> position) != 0U)
 c003b32:	fa34 f302 	lsrs.w	r3, r4, r2
 c003b36:	f47f af48 	bne.w	c0039ca <HAL_GPIO_Init+0x12>
 c003b3a:	e7d0      	b.n	c003ade <HAL_GPIO_Init+0x126>
        temp |= ((GPIO_Init->Alternate) << ((position & 0x07U) * 4U));
 c003b3c:	690e      	ldr	r6, [r1, #16]
        temp &= ~(0x0FUL << ((position & 0x07U) * 4U)) ;
 c003b3e:	f002 0507 	and.w	r5, r2, #7
 c003b42:	00ad      	lsls	r5, r5, #2
        temp |= ((GPIO_Init->Alternate) << ((position & 0x07U) * 4U));
 c003b44:	fa06 fe05 	lsl.w	lr, r6, r5
        temp &= ~(0x0FUL << ((position & 0x07U) * 4U)) ;
 c003b48:	260f      	movs	r6, #15
        temp = GPIOx->AFR[position >> 3U];
 c003b4a:	ea4f 0cd2 	mov.w	ip, r2, lsr #3
 c003b4e:	eb00 0c8c 	add.w	ip, r0, ip, lsl #2
 c003b52:	f8dc 8020 	ldr.w	r8, [ip, #32]
        temp &= ~(0x0FUL << ((position & 0x07U) * 4U)) ;
 c003b56:	fa06 f505 	lsl.w	r5, r6, r5
 c003b5a:	ea28 0505 	bic.w	r5, r8, r5
        temp |= ((GPIO_Init->Alternate) << ((position & 0x07U) * 4U));
 c003b5e:	ea4e 0505 	orr.w	r5, lr, r5
        GPIOx->AFR[position >> 3U] = temp;
 c003b62:	f8cc 5020 	str.w	r5, [ip, #32]
      temp = GPIOx->MODER;
 c003b66:	6805      	ldr	r5, [r0, #0]
    position++;
 c003b68:	3201      	adds	r2, #1
      temp &= ~(GPIO_MODER_MODE0 << (position * 2U));
 c003b6a:	403d      	ands	r5, r7
      temp |= ((GPIO_Init->Mode & GPIO_MODE) << (position * 2U));
 c003b6c:	432b      	orrs	r3, r5
      GPIOx->MODER = temp;
 c003b6e:	6003      	str	r3, [r0, #0]
  while (((GPIO_Init->Pin) >> position) != 0U)
 c003b70:	fa34 f302 	lsrs.w	r3, r4, r2
 c003b74:	f47f af29 	bne.w	c0039ca <HAL_GPIO_Init+0x12>
 c003b78:	e7b1      	b.n	c003ade <HAL_GPIO_Init+0x126>
        temp |= (GPIO_GET_INDEX(GPIOx) << (8U * (position & 0x03U)));
 c003b7a:	2603      	movs	r6, #3
 c003b7c:	fa06 fc0c 	lsl.w	ip, r6, ip
 c003b80:	ea47 070c 	orr.w	r7, r7, ip
 c003b84:	e77e      	b.n	c003a84 <HAL_GPIO_Init+0xcc>
 c003b86:	fa09 fc0c 	lsl.w	ip, r9, ip
 c003b8a:	ea47 070c 	orr.w	r7, r7, ip
 c003b8e:	e779      	b.n	c003a84 <HAL_GPIO_Init+0xcc>
 c003b90:	f04f 0e02 	mov.w	lr, #2
 c003b94:	fa0e fc0c 	lsl.w	ip, lr, ip
 c003b98:	ea47 070c 	orr.w	r7, r7, ip
 c003b9c:	e772      	b.n	c003a84 <HAL_GPIO_Init+0xcc>
 c003b9e:	f04f 0e04 	mov.w	lr, #4
 c003ba2:	fa0e fc0c 	lsl.w	ip, lr, ip
 c003ba6:	ea47 070c 	orr.w	r7, r7, ip
 c003baa:	e76b      	b.n	c003a84 <HAL_GPIO_Init+0xcc>
 c003bac:	f04f 0e05 	mov.w	lr, #5
 c003bb0:	fa0e fc0c 	lsl.w	ip, lr, ip
 c003bb4:	ea47 070c 	orr.w	r7, r7, ip
 c003bb8:	e764      	b.n	c003a84 <HAL_GPIO_Init+0xcc>
 c003bba:	bf00      	nop
 c003bbc:	52020000 	.word	0x52020000
 c003bc0:	52020800 	.word	0x52020800
 c003bc4:	5002f400 	.word	0x5002f400
 c003bc8:	52020c00 	.word	0x52020c00
 c003bcc:	52021000 	.word	0x52021000
 c003bd0:	52021400 	.word	0x52021400
 c003bd4:	52021800 	.word	0x52021800

0c003bd8 <HAL_GTZC_TZSC_ConfigPeriphAttributes>:
                                                       uint32_t PeriphAttributes)
{
  uint32_t register_address;

  /* check entry parameters */
  if ((PeriphAttributes > (GTZC_TZSC_PERIPH_SEC | GTZC_TZSC_PERIPH_PRIV))
 c003bd8:	f5b1 7f41 	cmp.w	r1, #772	@ 0x304
 c003bdc:	d22a      	bcs.n	c003c34 <HAL_GTZC_TZSC_ConfigPeriphAttributes+0x5c>
      || (HAL_GTZC_GET_ARRAY_INDEX(PeriphId) >= GTZC_TZSC_PERIPH_NUMBER)
 c003bde:	ea4f 7c10 	mov.w	ip, r0, lsr #28
 c003be2:	f000 021f 	and.w	r2, r0, #31
 c003be6:	eb02 134c 	add.w	r3, r2, ip, lsl #5
 c003bea:	2b32      	cmp	r3, #50	@ 0x32
 c003bec:	d822      	bhi.n	c003c34 <HAL_GTZC_TZSC_ConfigPeriphAttributes+0x5c>
      || (((PeriphId & GTZC_PERIPH_ALL) != 0U) && (HAL_GTZC_GET_ARRAY_INDEX(PeriphId) != 0U)))
 c003bee:	0680      	lsls	r0, r0, #26
{
 c003bf0:	b410      	push	{r4}
      || (((PeriphId & GTZC_PERIPH_ALL) != 0U) && (HAL_GTZC_GET_ARRAY_INDEX(PeriphId) != 0U)))
 c003bf2:	d421      	bmi.n	c003c38 <HAL_GTZC_TZSC_ConfigPeriphAttributes+0x60>
    /* common case where only one peripheral is configured */

#if defined(__ARM_FEATURE_CMSE) && (__ARM_FEATURE_CMSE == 3U)
    /* secure configuration */
    register_address = (uint32_t) &(GTZC_TZSC->SECCFGR1) + (4U * GTZC_GET_REG_INDEX(PeriphId));
    if ((PeriphAttributes & GTZC_TZSC_PERIPH_SEC) == GTZC_TZSC_PERIPH_SEC)
 c003bf4:	f240 1001 	movw	r0, #257	@ 0x101
    register_address = (uint32_t) &(GTZC_TZSC->SECCFGR1) + (4U * GTZC_GET_REG_INDEX(PeriphId));
 c003bf8:	4b31      	ldr	r3, [pc, #196]	@ (c003cc0 <HAL_GTZC_TZSC_ConfigPeriphAttributes+0xe8>)
    if ((PeriphAttributes & GTZC_TZSC_PERIPH_SEC) == GTZC_TZSC_PERIPH_SEC)
 c003bfa:	4388      	bics	r0, r1
    register_address = (uint32_t) &(GTZC_TZSC->SECCFGR1) + (4U * GTZC_GET_REG_INDEX(PeriphId));
 c003bfc:	4463      	add	r3, ip
 c003bfe:	ea4f 0383 	mov.w	r3, r3, lsl #2
    if ((PeriphAttributes & GTZC_TZSC_PERIPH_SEC) == GTZC_TZSC_PERIPH_SEC)
 c003c02:	d03b      	beq.n	c003c7c <HAL_GTZC_TZSC_ConfigPeriphAttributes+0xa4>
    {
      SET_BIT(*(__IO uint32_t *)register_address, 1UL << GTZC_GET_PERIPH_POS(PeriphId));
    }
    else if ((PeriphAttributes & GTZC_TZSC_PERIPH_NSEC) == GTZC_TZSC_PERIPH_NSEC)
 c003c04:	05c8      	lsls	r0, r1, #23
 c003c06:	d507      	bpl.n	c003c18 <HAL_GTZC_TZSC_ConfigPeriphAttributes+0x40>
    {
      CLEAR_BIT(*(__IO uint32_t *)register_address, 1UL << GTZC_GET_PERIPH_POS(PeriphId));
 c003c08:	f04f 0c01 	mov.w	ip, #1
 c003c0c:	6818      	ldr	r0, [r3, #0]
 c003c0e:	fa0c fc02 	lsl.w	ip, ip, r2
 c003c12:	ea20 000c 	bic.w	r0, r0, ip
 c003c16:	6018      	str	r0, [r3, #0]
    }
#endif /* defined(__ARM_FEATURE_CMSE) && (__ARM_FEATURE_CMSE == 3U) */

    /* privilege configuration */
    register_address = (uint32_t) &(GTZC_TZSC->PRIVCFGR1) + (4U * GTZC_GET_REG_INDEX(PeriphId));
    if ((PeriphAttributes & GTZC_TZSC_PERIPH_PRIV) == GTZC_TZSC_PERIPH_PRIV)
 c003c18:	f240 2002 	movw	r0, #514	@ 0x202
 c003c1c:	4388      	bics	r0, r1
 c003c1e:	d047      	beq.n	c003cb0 <HAL_GTZC_TZSC_ConfigPeriphAttributes+0xd8>
    {
      SET_BIT(*(__IO uint32_t *)register_address, 1UL << GTZC_GET_PERIPH_POS(PeriphId));
    }
    else if ((PeriphAttributes & GTZC_TZSC_PERIPH_NPRIV) == GTZC_TZSC_PERIPH_NPRIV)
 c003c20:	0589      	lsls	r1, r1, #22
 c003c22:	d525      	bpl.n	c003c70 <HAL_GTZC_TZSC_ConfigPeriphAttributes+0x98>
    {
      CLEAR_BIT(*(__IO uint32_t *)register_address, 1UL << GTZC_GET_PERIPH_POS(PeriphId));
 c003c24:	2001      	movs	r0, #1
 c003c26:	6919      	ldr	r1, [r3, #16]
 c003c28:	fa00 f202 	lsl.w	r2, r0, r2
 c003c2c:	ea21 0202 	bic.w	r2, r1, r2
 c003c30:	611a      	str	r2, [r3, #16]
 c003c32:	e01d      	b.n	c003c70 <HAL_GTZC_TZSC_ConfigPeriphAttributes+0x98>
    return HAL_ERROR;
 c003c34:	2001      	movs	r0, #1
    {
      /* do nothing */
    }
  }
  return HAL_OK;
}
 c003c36:	4770      	bx	lr
      || (((PeriphId & GTZC_PERIPH_ALL) != 0U) && (HAL_GTZC_GET_ARRAY_INDEX(PeriphId) != 0U)))
 c003c38:	b9f3      	cbnz	r3, c003c78 <HAL_GTZC_TZSC_ConfigPeriphAttributes+0xa0>
    if ((PeriphAttributes & GTZC_TZSC_PERIPH_SEC) == GTZC_TZSC_PERIPH_SEC)
 c003c3a:	f240 1201 	movw	r2, #257	@ 0x101
 c003c3e:	438a      	bics	r2, r1
 c003c40:	d02c      	beq.n	c003c9c <HAL_GTZC_TZSC_ConfigPeriphAttributes+0xc4>
    else if ((PeriphAttributes & GTZC_TZSC_PERIPH_NSEC) == GTZC_TZSC_PERIPH_NSEC)
 c003c42:	05ca      	lsls	r2, r1, #23
 c003c44:	d506      	bpl.n	c003c54 <HAL_GTZC_TZSC_ConfigPeriphAttributes+0x7c>
      CLEAR_BIT(GTZC_TZSC->SECCFGR1, TZSC_SECCFGR1_ALL);
 c003c46:	4a1f      	ldr	r2, [pc, #124]	@ (c003cc4 <HAL_GTZC_TZSC_ConfigPeriphAttributes+0xec>)
      CLEAR_BIT(GTZC_TZSC->SECCFGR2, TZSC_SECCFGR2_ALL);
 c003c48:	481f      	ldr	r0, [pc, #124]	@ (c003cc8 <HAL_GTZC_TZSC_ConfigPeriphAttributes+0xf0>)
      CLEAR_BIT(GTZC_TZSC->SECCFGR1, TZSC_SECCFGR1_ALL);
 c003c4a:	6914      	ldr	r4, [r2, #16]
 c003c4c:	6113      	str	r3, [r2, #16]
      CLEAR_BIT(GTZC_TZSC->SECCFGR2, TZSC_SECCFGR2_ALL);
 c003c4e:	6953      	ldr	r3, [r2, #20]
 c003c50:	4018      	ands	r0, r3
 c003c52:	6150      	str	r0, [r2, #20]
    if ((PeriphAttributes & GTZC_TZSC_PERIPH_PRIV) == GTZC_TZSC_PERIPH_PRIV)
 c003c54:	f240 2302 	movw	r3, #514	@ 0x202
 c003c58:	438b      	bics	r3, r1
 c003c5a:	d015      	beq.n	c003c88 <HAL_GTZC_TZSC_ConfigPeriphAttributes+0xb0>
    else if ((PeriphAttributes & GTZC_TZSC_PERIPH_NPRIV) == GTZC_TZSC_PERIPH_NPRIV)
 c003c5c:	058c      	lsls	r4, r1, #22
 c003c5e:	d507      	bpl.n	c003c70 <HAL_GTZC_TZSC_ConfigPeriphAttributes+0x98>
      CLEAR_BIT(GTZC_TZSC->PRIVCFGR1, TZSC_PRIVCFGR1_ALL);
 c003c60:	2100      	movs	r1, #0
 c003c62:	4b18      	ldr	r3, [pc, #96]	@ (c003cc4 <HAL_GTZC_TZSC_ConfigPeriphAttributes+0xec>)
      CLEAR_BIT(GTZC_TZSC->PRIVCFGR2, TZSC_PRIVCFGR2_ALL);
 c003c64:	4a18      	ldr	r2, [pc, #96]	@ (c003cc8 <HAL_GTZC_TZSC_ConfigPeriphAttributes+0xf0>)
      CLEAR_BIT(GTZC_TZSC->PRIVCFGR1, TZSC_PRIVCFGR1_ALL);
 c003c66:	6a18      	ldr	r0, [r3, #32]
 c003c68:	6219      	str	r1, [r3, #32]
      CLEAR_BIT(GTZC_TZSC->PRIVCFGR2, TZSC_PRIVCFGR2_ALL);
 c003c6a:	6a59      	ldr	r1, [r3, #36]	@ 0x24
 c003c6c:	400a      	ands	r2, r1
 c003c6e:	625a      	str	r2, [r3, #36]	@ 0x24
  return HAL_OK;
 c003c70:	2000      	movs	r0, #0
}
 c003c72:	f85d 4b04 	ldr.w	r4, [sp], #4
 c003c76:	4770      	bx	lr
    return HAL_ERROR;
 c003c78:	2001      	movs	r0, #1
 c003c7a:	e7fa      	b.n	c003c72 <HAL_GTZC_TZSC_ConfigPeriphAttributes+0x9a>
      SET_BIT(*(__IO uint32_t *)register_address, 1UL << GTZC_GET_PERIPH_POS(PeriphId));
 c003c7c:	2001      	movs	r0, #1
 c003c7e:	681c      	ldr	r4, [r3, #0]
 c003c80:	4090      	lsls	r0, r2
 c003c82:	4320      	orrs	r0, r4
 c003c84:	6018      	str	r0, [r3, #0]
 c003c86:	e7c7      	b.n	c003c18 <HAL_GTZC_TZSC_ConfigPeriphAttributes+0x40>
      SET_BIT(GTZC_TZSC->PRIVCFGR1, TZSC_PRIVCFGR1_ALL);
 c003c88:	f04f 31ff 	mov.w	r1, #4294967295
 c003c8c:	4b0d      	ldr	r3, [pc, #52]	@ (c003cc4 <HAL_GTZC_TZSC_ConfigPeriphAttributes+0xec>)
      SET_BIT(GTZC_TZSC->PRIVCFGR2, TZSC_PRIVCFGR2_ALL);
 c003c8e:	4a0f      	ldr	r2, [pc, #60]	@ (c003ccc <HAL_GTZC_TZSC_ConfigPeriphAttributes+0xf4>)
      SET_BIT(GTZC_TZSC->PRIVCFGR1, TZSC_PRIVCFGR1_ALL);
 c003c90:	6a18      	ldr	r0, [r3, #32]
 c003c92:	6219      	str	r1, [r3, #32]
      SET_BIT(GTZC_TZSC->PRIVCFGR2, TZSC_PRIVCFGR2_ALL);
 c003c94:	6a59      	ldr	r1, [r3, #36]	@ 0x24
 c003c96:	430a      	orrs	r2, r1
 c003c98:	625a      	str	r2, [r3, #36]	@ 0x24
 c003c9a:	e7e9      	b.n	c003c70 <HAL_GTZC_TZSC_ConfigPeriphAttributes+0x98>
      SET_BIT(GTZC_TZSC->SECCFGR1, TZSC_SECCFGR1_ALL);
 c003c9c:	f04f 30ff 	mov.w	r0, #4294967295
 c003ca0:	4b08      	ldr	r3, [pc, #32]	@ (c003cc4 <HAL_GTZC_TZSC_ConfigPeriphAttributes+0xec>)
      SET_BIT(GTZC_TZSC->SECCFGR2, TZSC_SECCFGR2_ALL);
 c003ca2:	4a0a      	ldr	r2, [pc, #40]	@ (c003ccc <HAL_GTZC_TZSC_ConfigPeriphAttributes+0xf4>)
      SET_BIT(GTZC_TZSC->SECCFGR1, TZSC_SECCFGR1_ALL);
 c003ca4:	691c      	ldr	r4, [r3, #16]
 c003ca6:	6118      	str	r0, [r3, #16]
      SET_BIT(GTZC_TZSC->SECCFGR2, TZSC_SECCFGR2_ALL);
 c003ca8:	6958      	ldr	r0, [r3, #20]
 c003caa:	4302      	orrs	r2, r0
 c003cac:	615a      	str	r2, [r3, #20]
 c003cae:	e7d1      	b.n	c003c54 <HAL_GTZC_TZSC_ConfigPeriphAttributes+0x7c>
      SET_BIT(*(__IO uint32_t *)register_address, 1UL << GTZC_GET_PERIPH_POS(PeriphId));
 c003cb0:	2101      	movs	r1, #1
 c003cb2:	6918      	ldr	r0, [r3, #16]
 c003cb4:	fa01 f202 	lsl.w	r2, r1, r2
 c003cb8:	4302      	orrs	r2, r0
 c003cba:	611a      	str	r2, [r3, #16]
 c003cbc:	e7d8      	b.n	c003c70 <HAL_GTZC_TZSC_ConfigPeriphAttributes+0x98>
 c003cbe:	bf00      	nop
 c003cc0:	1400c904 	.word	0x1400c904
 c003cc4:	50032400 	.word	0x50032400
 c003cc8:	fff89000 	.word	0xfff89000
 c003ccc:	00076fff 	.word	0x00076fff

0c003cd0 <HAL_GTZC_MPCBB_ConfigMem>:
  uint32_t size_mask;
  uint32_t size_in_superblocks;
  uint32_t i;

  /* check entry parameters */
  if ((!(IS_GTZC_BASE_ADDRESS(SRAM1, MemBaseAddress))
 c003cd0:	f1b0 5f00 	cmp.w	r0, #536870912	@ 0x20000000
{
 c003cd4:	b510      	push	{r4, lr}
  if ((!(IS_GTZC_BASE_ADDRESS(SRAM1, MemBaseAddress))
 c003cd6:	d00b      	beq.n	c003cf0 <HAL_GTZC_MPCBB_ConfigMem+0x20>
 c003cd8:	f1b0 5f40 	cmp.w	r0, #805306368	@ 0x30000000
 c003cdc:	d008      	beq.n	c003cf0 <HAL_GTZC_MPCBB_ConfigMem+0x20>
       &&  !(IS_GTZC_BASE_ADDRESS(SRAM2, MemBaseAddress)))
 c003cde:	4b2e      	ldr	r3, [pc, #184]	@ (c003d98 <HAL_GTZC_MPCBB_ConfigMem+0xc8>)
 c003ce0:	4298      	cmp	r0, r3
 c003ce2:	d03c      	beq.n	c003d5e <HAL_GTZC_MPCBB_ConfigMem+0x8e>
 c003ce4:	f103 5380 	add.w	r3, r3, #268435456	@ 0x10000000
 c003ce8:	4298      	cmp	r0, r3
 c003cea:	d038      	beq.n	c003d5e <HAL_GTZC_MPCBB_ConfigMem+0x8e>
      || ((pMPCBB_desc->SecureRWIllegalMode != GTZC_MPCBB_SRWILADIS_ENABLE)
          && (pMPCBB_desc->SecureRWIllegalMode != GTZC_MPCBB_SRWILADIS_DISABLE))
      || ((pMPCBB_desc->InvertSecureState != GTZC_MPCBB_INVSECSTATE_NOT_INVERTED)
          && (pMPCBB_desc->InvertSecureState != GTZC_MPCBB_INVSECSTATE_INVERTED)))
  {
    return HAL_ERROR;
 c003cec:	2001      	movs	r0, #1
    WRITE_REG(mpcbb_ptr->VCTR[i],
              pMPCBB_desc->AttributeConfig.MPCBB_SecConfig_array[i]);
  }

  return HAL_OK;
}
 c003cee:	bd10      	pop	{r4, pc}
      || ((pMPCBB_desc->SecureRWIllegalMode != GTZC_MPCBB_SRWILADIS_ENABLE)
 c003cf0:	680a      	ldr	r2, [r1, #0]
 c003cf2:	b1aa      	cbz	r2, c003d20 <HAL_GTZC_MPCBB_ConfigMem+0x50>
          && (pMPCBB_desc->SecureRWIllegalMode != GTZC_MPCBB_SRWILADIS_DISABLE))
 c003cf4:	f1b2 4f00 	cmp.w	r2, #2147483648	@ 0x80000000
 c003cf8:	d1f8      	bne.n	c003cec <HAL_GTZC_MPCBB_ConfigMem+0x1c>
      || ((pMPCBB_desc->InvertSecureState != GTZC_MPCBB_INVSECSTATE_NOT_INVERTED)
 c003cfa:	684b      	ldr	r3, [r1, #4]
 c003cfc:	b193      	cbz	r3, c003d24 <HAL_GTZC_MPCBB_ConfigMem+0x54>
          && (pMPCBB_desc->InvertSecureState != GTZC_MPCBB_INVSECSTATE_INVERTED)))
 c003cfe:	f1b3 4f80 	cmp.w	r3, #1073741824	@ 0x40000000
 c003d02:	d1f3      	bne.n	c003cec <HAL_GTZC_MPCBB_ConfigMem+0x1c>
  if (IS_GTZC_BASE_ADDRESS(SRAM1, MemBaseAddress))
 c003d04:	f1b0 5f00 	cmp.w	r0, #536870912	@ 0x20000000
 c003d08:	d03d      	beq.n	c003d86 <HAL_GTZC_MPCBB_ConfigMem+0xb6>
 c003d0a:	f04f 4240 	mov.w	r2, #3221225472	@ 0xc0000000
 c003d0e:	f1b0 5f40 	cmp.w	r0, #805306368	@ 0x30000000
 c003d12:	d007      	beq.n	c003d24 <HAL_GTZC_MPCBB_ConfigMem+0x54>
 c003d14:	f06f 0eff 	mvn.w	lr, #255	@ 0xff
 c003d18:	f04f 0c08 	mov.w	ip, #8
    mpcbb_ptr = GTZC_MPCBB2_S;
 c003d1c:	4c1f      	ldr	r4, [pc, #124]	@ (c003d9c <HAL_GTZC_MPCBB_ConfigMem+0xcc>)
 c003d1e:	e006      	b.n	c003d2e <HAL_GTZC_MPCBB_ConfigMem+0x5e>
      || ((pMPCBB_desc->InvertSecureState != GTZC_MPCBB_INVSECSTATE_NOT_INVERTED)
 c003d20:	684a      	ldr	r2, [r1, #4]
 c003d22:	bb62      	cbnz	r2, c003d7e <HAL_GTZC_MPCBB_ConfigMem+0xae>
          && (pMPCBB_desc->InvertSecureState != GTZC_MPCBB_INVSECSTATE_INVERTED)))
 c003d24:	f04f 4e7f 	mov.w	lr, #4278190080	@ 0xff000000
 c003d28:	f04f 0c18 	mov.w	ip, #24
    mpcbb_ptr = GTZC_MPCBB1_S;
 c003d2c:	4c1c      	ldr	r4, [pc, #112]	@ (c003da0 <HAL_GTZC_MPCBB_ConfigMem+0xd0>)
  for (i = 0U; i < size_in_superblocks; i++)
 c003d2e:	2300      	movs	r3, #0
  MODIFY_REG(mpcbb_ptr->CR,
 c003d30:	6820      	ldr	r0, [r4, #0]
 c003d32:	3104      	adds	r1, #4
 c003d34:	f020 4040 	bic.w	r0, r0, #3221225472	@ 0xc0000000
 c003d38:	4302      	orrs	r2, r0
 c003d3a:	6022      	str	r2, [r4, #0]
  MODIFY_REG(mpcbb_ptr->LCKVTR1, size_mask, pMPCBB_desc->AttributeConfig.MPCBB_LockConfig_array[0]);
 c003d3c:	6922      	ldr	r2, [r4, #16]
 c003d3e:	6e48      	ldr	r0, [r1, #100]	@ 0x64
 c003d40:	ea02 020e 	and.w	r2, r2, lr
 c003d44:	4302      	orrs	r2, r0
 c003d46:	6122      	str	r2, [r4, #16]
    WRITE_REG(mpcbb_ptr->VCTR[i],
 c003d48:	f103 0240 	add.w	r2, r3, #64	@ 0x40
 c003d4c:	f851 0f04 	ldr.w	r0, [r1, #4]!
  for (i = 0U; i < size_in_superblocks; i++)
 c003d50:	3301      	adds	r3, #1
 c003d52:	4563      	cmp	r3, ip
    WRITE_REG(mpcbb_ptr->VCTR[i],
 c003d54:	f844 0022 	str.w	r0, [r4, r2, lsl #2]
  for (i = 0U; i < size_in_superblocks; i++)
 c003d58:	d1f6      	bne.n	c003d48 <HAL_GTZC_MPCBB_ConfigMem+0x78>
  return HAL_OK;
 c003d5a:	2000      	movs	r0, #0
}
 c003d5c:	bd10      	pop	{r4, pc}
      || ((pMPCBB_desc->SecureRWIllegalMode != GTZC_MPCBB_SRWILADIS_ENABLE)
 c003d5e:	680a      	ldr	r2, [r1, #0]
 c003d60:	b132      	cbz	r2, c003d70 <HAL_GTZC_MPCBB_ConfigMem+0xa0>
          && (pMPCBB_desc->SecureRWIllegalMode != GTZC_MPCBB_SRWILADIS_DISABLE))
 c003d62:	f1b2 4f00 	cmp.w	r2, #2147483648	@ 0x80000000
 c003d66:	d1c1      	bne.n	c003cec <HAL_GTZC_MPCBB_ConfigMem+0x1c>
      || ((pMPCBB_desc->InvertSecureState != GTZC_MPCBB_INVSECSTATE_NOT_INVERTED)
 c003d68:	684b      	ldr	r3, [r1, #4]
 c003d6a:	2b00      	cmp	r3, #0
 c003d6c:	d1c7      	bne.n	c003cfe <HAL_GTZC_MPCBB_ConfigMem+0x2e>
 c003d6e:	e7ce      	b.n	c003d0e <HAL_GTZC_MPCBB_ConfigMem+0x3e>
 c003d70:	684a      	ldr	r2, [r1, #4]
 c003d72:	2a00      	cmp	r2, #0
 c003d74:	d0ce      	beq.n	c003d14 <HAL_GTZC_MPCBB_ConfigMem+0x44>
          && (pMPCBB_desc->InvertSecureState != GTZC_MPCBB_INVSECSTATE_INVERTED)))
 c003d76:	f1b2 4f80 	cmp.w	r2, #1073741824	@ 0x40000000
 c003d7a:	d1b7      	bne.n	c003cec <HAL_GTZC_MPCBB_ConfigMem+0x1c>
 c003d7c:	e7ca      	b.n	c003d14 <HAL_GTZC_MPCBB_ConfigMem+0x44>
 c003d7e:	f1b2 4f80 	cmp.w	r2, #1073741824	@ 0x40000000
 c003d82:	d0cf      	beq.n	c003d24 <HAL_GTZC_MPCBB_ConfigMem+0x54>
 c003d84:	e7b2      	b.n	c003cec <HAL_GTZC_MPCBB_ConfigMem+0x1c>
 c003d86:	f04f 4e7f 	mov.w	lr, #4278190080	@ 0xff000000
 c003d8a:	f04f 0c18 	mov.w	ip, #24
 c003d8e:	f04f 4240 	mov.w	r2, #3221225472	@ 0xc0000000
    mpcbb_ptr = GTZC_MPCBB1_S;
 c003d92:	4c03      	ldr	r4, [pc, #12]	@ (c003da0 <HAL_GTZC_MPCBB_ConfigMem+0xd0>)
 c003d94:	e7cb      	b.n	c003d2e <HAL_GTZC_MPCBB_ConfigMem+0x5e>
 c003d96:	bf00      	nop
 c003d98:	20030000 	.word	0x20030000
 c003d9c:	50033000 	.word	0x50033000
 c003da0:	50032c00 	.word	0x50032c00

0c003da4 <HAL_GTZC_TZIC_EnableIT>:
HAL_StatusTypeDef HAL_GTZC_TZIC_EnableIT(uint32_t PeriphId)
{
  uint32_t register_address;

  /* check entry parameters */
  if ((HAL_GTZC_GET_ARRAY_INDEX(PeriphId) >= GTZC_TZIC_PERIPH_NUMBER)
 c003da4:	0f03      	lsrs	r3, r0, #28
 c003da6:	f000 011f 	and.w	r1, r0, #31
 c003daa:	eb01 1243 	add.w	r2, r1, r3, lsl #5
 c003dae:	2a47      	cmp	r2, #71	@ 0x47
 c003db0:	d818      	bhi.n	c003de4 <HAL_GTZC_TZIC_EnableIT+0x40>
      || (((PeriphId & GTZC_PERIPH_ALL) != 0U) && (HAL_GTZC_GET_ARRAY_INDEX(PeriphId) != 0U)))
 c003db2:	0680      	lsls	r0, r0, #26
 c003db4:	d50a      	bpl.n	c003dcc <HAL_GTZC_TZIC_EnableIT+0x28>
 c003db6:	b9aa      	cbnz	r2, c003de4 <HAL_GTZC_TZIC_EnableIT+0x40>
  }

  if ((PeriphId & GTZC_PERIPH_ALL) != 0U)
  {
    /* same configuration is applied to all peripherals */
    WRITE_REG(GTZC_TZIC->IER1, TZIC_IER1_ALL);
 c003db8:	f04f 30ff 	mov.w	r0, #4294967295
    WRITE_REG(GTZC_TZIC->IER2, TZIC_IER2_ALL);
    WRITE_REG(GTZC_TZIC->IER3, TZIC_IER3_ALL);
 c003dbc:	22ff      	movs	r2, #255	@ 0xff
    WRITE_REG(GTZC_TZIC->IER1, TZIC_IER1_ALL);
 c003dbe:	4b0a      	ldr	r3, [pc, #40]	@ (c003de8 <HAL_GTZC_TZIC_EnableIT+0x44>)
    WRITE_REG(GTZC_TZIC->IER2, TZIC_IER2_ALL);
 c003dc0:	490a      	ldr	r1, [pc, #40]	@ (c003dec <HAL_GTZC_TZIC_EnableIT+0x48>)
    WRITE_REG(GTZC_TZIC->IER1, TZIC_IER1_ALL);
 c003dc2:	6018      	str	r0, [r3, #0]
    WRITE_REG(GTZC_TZIC->IER2, TZIC_IER2_ALL);
 c003dc4:	6059      	str	r1, [r3, #4]
    /* common case where only one peripheral is configured */
    register_address = (uint32_t) &(GTZC_TZIC->IER1) + (4U * GTZC_GET_REG_INDEX(PeriphId));
    SET_BIT(*(__IO uint32_t *)register_address, 1UL << GTZC_GET_PERIPH_POS(PeriphId));
  }

  return HAL_OK;
 c003dc6:	2000      	movs	r0, #0
    WRITE_REG(GTZC_TZIC->IER3, TZIC_IER3_ALL);
 c003dc8:	609a      	str	r2, [r3, #8]
 c003dca:	4770      	bx	lr
    SET_BIT(*(__IO uint32_t *)register_address, 1UL << GTZC_GET_PERIPH_POS(PeriphId));
 c003dcc:	2201      	movs	r2, #1
    register_address = (uint32_t) &(GTZC_TZIC->IER1) + (4U * GTZC_GET_REG_INDEX(PeriphId));
 c003dce:	f103 53a0 	add.w	r3, r3, #335544320	@ 0x14000000
 c003dd2:	f503 434a 	add.w	r3, r3, #51712	@ 0xca00
 c003dd6:	009b      	lsls	r3, r3, #2
    SET_BIT(*(__IO uint32_t *)register_address, 1UL << GTZC_GET_PERIPH_POS(PeriphId));
 c003dd8:	6818      	ldr	r0, [r3, #0]
 c003dda:	408a      	lsls	r2, r1
 c003ddc:	4302      	orrs	r2, r0
 c003dde:	601a      	str	r2, [r3, #0]
  return HAL_OK;
 c003de0:	2000      	movs	r0, #0
 c003de2:	4770      	bx	lr
    return HAL_ERROR;
 c003de4:	2001      	movs	r0, #1
}
 c003de6:	4770      	bx	lr
 c003de8:	50032800 	.word	0x50032800
 c003dec:	3fff6fff 	.word	0x3fff6fff

0c003df0 <HAL_GTZC_TZIC_Callback>:
  UNUSED(PeriphId);

  /* NOTE: This function should not be modified. When the callback is needed,
   * the HAL_GTZC_TZIC_Callback is to be implemented in the user file
   */
}
 c003df0:	4770      	bx	lr
 c003df2:	bf00      	nop

0c003df4 <HAL_GTZC_IRQHandler>:
  ier_itsources = READ_REG(GTZC_TZIC->IER1);
 c003df4:	4a22      	ldr	r2, [pc, #136]	@ (c003e80 <HAL_GTZC_IRQHandler+0x8c>)
{
 c003df6:	b538      	push	{r3, r4, r5, lr}
  ier_itsources = READ_REG(GTZC_TZIC->IER1);
 c003df8:	6815      	ldr	r5, [r2, #0]
  sr_flags      = READ_REG(GTZC_TZIC->SR1);
 c003dfa:	6913      	ldr	r3, [r2, #16]
  if (flag != 0U)
 c003dfc:	401d      	ands	r5, r3
 c003dfe:	d010      	beq.n	c003e22 <HAL_GTZC_IRQHandler+0x2e>
    while ((flag >> position) != 0U)
 c003e00:	462b      	mov	r3, r5
    position = 0U;
 c003e02:	2400      	movs	r4, #0
    WRITE_REG(GTZC_TZIC->FCR1, flag);
 c003e04:	6215      	str	r5, [r2, #32]
    while ((flag >> position) != 0U)
 c003e06:	e003      	b.n	c003e10 <HAL_GTZC_IRQHandler+0x1c>
      position++;
 c003e08:	3401      	adds	r4, #1
    while ((flag >> position) != 0U)
 c003e0a:	fa35 f304 	lsrs.w	r3, r5, r4
 c003e0e:	d008      	beq.n	c003e22 <HAL_GTZC_IRQHandler+0x2e>
      if ((flag & (1UL << position)) != 0U)
 c003e10:	07d9      	lsls	r1, r3, #31
 c003e12:	d5f9      	bpl.n	c003e08 <HAL_GTZC_IRQHandler+0x14>
        HAL_GTZC_TZIC_Callback(GTZC_PERIPH_REG1 | position);
 c003e14:	4620      	mov	r0, r4
      position++;
 c003e16:	3401      	adds	r4, #1
        HAL_GTZC_TZIC_Callback(GTZC_PERIPH_REG1 | position);
 c003e18:	f7ff ffea 	bl	c003df0 <HAL_GTZC_TZIC_Callback>
    while ((flag >> position) != 0U)
 c003e1c:	fa35 f304 	lsrs.w	r3, r5, r4
 c003e20:	d1f6      	bne.n	c003e10 <HAL_GTZC_IRQHandler+0x1c>
  ier_itsources = READ_REG(GTZC_TZIC->IER2);
 c003e22:	4a17      	ldr	r2, [pc, #92]	@ (c003e80 <HAL_GTZC_IRQHandler+0x8c>)
 c003e24:	6855      	ldr	r5, [r2, #4]
  sr_flags      = READ_REG(GTZC_TZIC->SR2);
 c003e26:	6953      	ldr	r3, [r2, #20]
  if (flag != 0U)
 c003e28:	401d      	ands	r5, r3
 c003e2a:	d011      	beq.n	c003e50 <HAL_GTZC_IRQHandler+0x5c>
    while ((flag >> position) != 0U)
 c003e2c:	462b      	mov	r3, r5
    position = 0U;
 c003e2e:	2400      	movs	r4, #0
    WRITE_REG(GTZC_TZIC->FCR2, flag);
 c003e30:	6255      	str	r5, [r2, #36]	@ 0x24
    while ((flag >> position) != 0U)
 c003e32:	e003      	b.n	c003e3c <HAL_GTZC_IRQHandler+0x48>
      position++;
 c003e34:	3401      	adds	r4, #1
    while ((flag >> position) != 0U)
 c003e36:	fa35 f304 	lsrs.w	r3, r5, r4
 c003e3a:	d009      	beq.n	c003e50 <HAL_GTZC_IRQHandler+0x5c>
      if ((flag & (1UL << position)) != 0U)
 c003e3c:	07da      	lsls	r2, r3, #31
 c003e3e:	d5f9      	bpl.n	c003e34 <HAL_GTZC_IRQHandler+0x40>
        HAL_GTZC_TZIC_Callback(GTZC_PERIPH_REG2 | position);
 c003e40:	f044 5080 	orr.w	r0, r4, #268435456	@ 0x10000000
      position++;
 c003e44:	3401      	adds	r4, #1
        HAL_GTZC_TZIC_Callback(GTZC_PERIPH_REG2 | position);
 c003e46:	f7ff ffd3 	bl	c003df0 <HAL_GTZC_TZIC_Callback>
    while ((flag >> position) != 0U)
 c003e4a:	fa35 f304 	lsrs.w	r3, r5, r4
 c003e4e:	d1f5      	bne.n	c003e3c <HAL_GTZC_IRQHandler+0x48>
  ier_itsources = READ_REG(GTZC_TZIC->IER3);
 c003e50:	4a0b      	ldr	r2, [pc, #44]	@ (c003e80 <HAL_GTZC_IRQHandler+0x8c>)
 c003e52:	6895      	ldr	r5, [r2, #8]
  sr_flags      = READ_REG(GTZC_TZIC->SR3);
 c003e54:	6993      	ldr	r3, [r2, #24]
  if (flag != 0U)
 c003e56:	401d      	ands	r5, r3
 c003e58:	d011      	beq.n	c003e7e <HAL_GTZC_IRQHandler+0x8a>
    while ((flag >> position) != 0U)
 c003e5a:	462b      	mov	r3, r5
    position = 0U;
 c003e5c:	2400      	movs	r4, #0
    WRITE_REG(GTZC_TZIC->FCR3, flag);
 c003e5e:	6295      	str	r5, [r2, #40]	@ 0x28
    while ((flag >> position) != 0U)
 c003e60:	e003      	b.n	c003e6a <HAL_GTZC_IRQHandler+0x76>
      position++;
 c003e62:	3401      	adds	r4, #1
    while ((flag >> position) != 0U)
 c003e64:	fa35 f304 	lsrs.w	r3, r5, r4
 c003e68:	d009      	beq.n	c003e7e <HAL_GTZC_IRQHandler+0x8a>
      if ((flag & (1UL << position)) != 0U)
 c003e6a:	07db      	lsls	r3, r3, #31
 c003e6c:	d5f9      	bpl.n	c003e62 <HAL_GTZC_IRQHandler+0x6e>
        HAL_GTZC_TZIC_Callback(GTZC_PERIPH_REG3 | position);
 c003e6e:	f044 5000 	orr.w	r0, r4, #536870912	@ 0x20000000
      position++;
 c003e72:	3401      	adds	r4, #1
        HAL_GTZC_TZIC_Callback(GTZC_PERIPH_REG3 | position);
 c003e74:	f7ff ffbc 	bl	c003df0 <HAL_GTZC_TZIC_Callback>
    while ((flag >> position) != 0U)
 c003e78:	fa35 f304 	lsrs.w	r3, r5, r4
 c003e7c:	d1f5      	bne.n	c003e6a <HAL_GTZC_IRQHandler+0x76>
}
 c003e7e:	bd38      	pop	{r3, r4, r5, pc}
 c003e80:	50032800 	.word	0x50032800

0c003e84 <HAL_PWR_ConfigAttributes>:
  /* Check the parameters */
  assert_param(IS_PWR_ITEMS_ATTRIBUTES(Item));
  assert_param(IS_PWR_ATTRIBUTES(Attributes));

  /* Privilege/non-privilege attribute */
  if ((Attributes & PWR_PRIV) == PWR_PRIV)
 c003e84:	f240 2302 	movw	r3, #514	@ 0x202
 c003e88:	438b      	bics	r3, r1
 c003e8a:	d01d      	beq.n	c003ec8 <HAL_PWR_ConfigAttributes+0x44>
  {
    SET_BIT(PWR->PRIVCFGR, PWR_PRIVCFGR_PRIV);
  }
  else if ((Attributes & PWR_NPRIV) == PWR_NPRIV)
 c003e8c:	058a      	lsls	r2, r1, #22
 c003e8e:	d40b      	bmi.n	c003ea8 <HAL_PWR_ConfigAttributes+0x24>


#if defined (__ARM_FEATURE_CMSE) && (__ARM_FEATURE_CMSE == 3U)

  /* Secure/non-secure attribute */
  if ((Attributes & PWR_SEC) == PWR_SEC)
 c003e90:	f240 1301 	movw	r3, #257	@ 0x101
 c003e94:	438b      	bics	r3, r1
 c003e96:	d012      	beq.n	c003ebe <HAL_PWR_ConfigAttributes+0x3a>
  {
    SET_BIT(PWR_S->SECCFGR, Item);
  }
  else if ((Attributes & PWR_NSEC) == PWR_NSEC)
 c003e98:	05cb      	lsls	r3, r1, #23
 c003e9a:	d504      	bpl.n	c003ea6 <HAL_PWR_ConfigAttributes+0x22>
  {
    CLEAR_BIT(PWR_S->SECCFGR, Item);
 c003e9c:	4a0e      	ldr	r2, [pc, #56]	@ (c003ed8 <HAL_PWR_ConfigAttributes+0x54>)
 c003e9e:	6f93      	ldr	r3, [r2, #120]	@ 0x78
 c003ea0:	ea23 0300 	bic.w	r3, r3, r0
 c003ea4:	6793      	str	r3, [r2, #120]	@ 0x78
  {
    /* do nothing */
  }

#endif /* __ARM_FEATURE_CMSE */
}
 c003ea6:	4770      	bx	lr
    CLEAR_BIT(PWR->PRIVCFGR, PWR_PRIVCFGR_PRIV);
 c003ea8:	4a0b      	ldr	r2, [pc, #44]	@ (c003ed8 <HAL_PWR_ConfigAttributes+0x54>)
 c003eaa:	f8d2 3080 	ldr.w	r3, [r2, #128]	@ 0x80
 c003eae:	f023 0301 	bic.w	r3, r3, #1
 c003eb2:	f8c2 3080 	str.w	r3, [r2, #128]	@ 0x80
  if ((Attributes & PWR_SEC) == PWR_SEC)
 c003eb6:	f240 1301 	movw	r3, #257	@ 0x101
 c003eba:	438b      	bics	r3, r1
 c003ebc:	d1ec      	bne.n	c003e98 <HAL_PWR_ConfigAttributes+0x14>
    SET_BIT(PWR_S->SECCFGR, Item);
 c003ebe:	4a06      	ldr	r2, [pc, #24]	@ (c003ed8 <HAL_PWR_ConfigAttributes+0x54>)
 c003ec0:	6f93      	ldr	r3, [r2, #120]	@ 0x78
 c003ec2:	4303      	orrs	r3, r0
 c003ec4:	6793      	str	r3, [r2, #120]	@ 0x78
 c003ec6:	4770      	bx	lr
    SET_BIT(PWR->PRIVCFGR, PWR_PRIVCFGR_PRIV);
 c003ec8:	4a03      	ldr	r2, [pc, #12]	@ (c003ed8 <HAL_PWR_ConfigAttributes+0x54>)
 c003eca:	f8d2 3080 	ldr.w	r3, [r2, #128]	@ 0x80
 c003ece:	f043 0301 	orr.w	r3, r3, #1
 c003ed2:	f8c2 3080 	str.w	r3, [r2, #128]	@ 0x80
 c003ed6:	e7db      	b.n	c003e90 <HAL_PWR_ConfigAttributes+0xc>
 c003ed8:	50007000 	.word	0x50007000

0c003edc <HAL_PWREx_GetVoltageRange>:
  * @brief Return Voltage Scaling Range.
  * @retval VOS bit field (PWR_REGULATOR_VOLTAGE_SCALE0, PWR_REGULATOR_VOLTAGE_SCALE1 or PWR_REGULATOR_VOLTAGE_SCALE2)
  */
uint32_t HAL_PWREx_GetVoltageRange(void)
{
  return (PWR->CR1 & PWR_CR1_VOS);
 c003edc:	4b02      	ldr	r3, [pc, #8]	@ (c003ee8 <HAL_PWREx_GetVoltageRange+0xc>)
 c003ede:	6818      	ldr	r0, [r3, #0]
}
 c003ee0:	f400 60c0 	and.w	r0, r0, #1536	@ 0x600
 c003ee4:	4770      	bx	lr
 c003ee6:	bf00      	nop
 c003ee8:	50007000 	.word	0x50007000

0c003eec <HAL_PWREx_ControlVoltageScaling>:
{
  uint32_t wait_loop_index;

  assert_param(IS_PWR_VOLTAGE_SCALING_RANGE(VoltageScaling));

  uint32_t vos_old = READ_BIT(PWR->CR1, PWR_CR1_VOS);
 c003eec:	4a1b      	ldr	r2, [pc, #108]	@ (c003f5c <HAL_PWREx_ControlVoltageScaling+0x70>)
 c003eee:	6813      	ldr	r3, [r2, #0]
uint32_t HAL_PWREx_SMPS_GetEffectiveMode(void)
{
  uint32_t mode;
  uint32_t pwr_sr1;

  pwr_sr1 = READ_REG(PWR->SR1);
 c003ef0:	6911      	ldr	r1, [r2, #16]
  if (READ_BIT(pwr_sr1, PWR_SR1_SMPSBYPRDY) != 0U)
  {
    mode = PWR_SMPS_BYPASS;
  }
  else if (READ_BIT(pwr_sr1, PWR_SR1_SMPSHPRDY) == 0U)
 c003ef2:	f411 4f10 	tst.w	r1, #36864	@ 0x9000
 c003ef6:	d02c      	beq.n	c003f52 <HAL_PWREx_ControlVoltageScaling+0x66>
  if (READ_BIT(PWR->CR4, PWR_CR4_SMPSLPEN) == PWR_CR4_SMPSLPEN)
 c003ef8:	68d1      	ldr	r1, [r2, #12]
 c003efa:	0409      	lsls	r1, r1, #16
 c003efc:	d429      	bmi.n	c003f52 <HAL_PWREx_ControlVoltageScaling+0x66>
  uint32_t vos_old = READ_BIT(PWR->CR1, PWR_CR1_VOS);
 c003efe:	f403 63c0 	and.w	r3, r3, #1536	@ 0x600
  if (vos_old == VoltageScaling)
 c003f02:	4283      	cmp	r3, r0
 c003f04:	d023      	beq.n	c003f4e <HAL_PWREx_ControlVoltageScaling+0x62>
  wait_loop_index = ((PWR_VOSF_SETTING_DELAY_VALUE * (SystemCoreClock / 100000U)) / 10U) + 1U;
 c003f06:	f04f 0c32 	mov.w	ip, #50	@ 0x32
  MODIFY_REG(PWR->CR1, PWR_CR1_VOS, VoltageScaling);
 c003f0a:	6813      	ldr	r3, [r2, #0]
  wait_loop_index = ((PWR_VOSF_SETTING_DELAY_VALUE * (SystemCoreClock / 100000U)) / 10U) + 1U;
 c003f0c:	4914      	ldr	r1, [pc, #80]	@ (c003f60 <HAL_PWREx_ControlVoltageScaling+0x74>)
  MODIFY_REG(PWR->CR1, PWR_CR1_VOS, VoltageScaling);
 c003f0e:	f423 63c0 	bic.w	r3, r3, #1536	@ 0x600
 c003f12:	4303      	orrs	r3, r0
 c003f14:	6013      	str	r3, [r2, #0]
  wait_loop_index = ((PWR_VOSF_SETTING_DELAY_VALUE * (SystemCoreClock / 100000U)) / 10U) + 1U;
 c003f16:	680b      	ldr	r3, [r1, #0]
 c003f18:	4912      	ldr	r1, [pc, #72]	@ (c003f64 <HAL_PWREx_ControlVoltageScaling+0x78>)
 c003f1a:	095b      	lsrs	r3, r3, #5
 c003f1c:	fba1 1303 	umull	r1, r3, r1, r3
 c003f20:	09db      	lsrs	r3, r3, #7
 c003f22:	fb0c f303 	mul.w	r3, ip, r3
 c003f26:	4910      	ldr	r1, [pc, #64]	@ (c003f68 <HAL_PWREx_ControlVoltageScaling+0x7c>)
  while ((HAL_IS_BIT_SET(PWR->SR2, PWR_SR2_VOSF)) && (wait_loop_index != 0U))
 c003f28:	6950      	ldr	r0, [r2, #20]
  wait_loop_index = ((PWR_VOSF_SETTING_DELAY_VALUE * (SystemCoreClock / 100000U)) / 10U) + 1U;
 c003f2a:	fba1 1303 	umull	r1, r3, r1, r3
  while ((HAL_IS_BIT_SET(PWR->SR2, PWR_SR2_VOSF)) && (wait_loop_index != 0U))
 c003f2e:	0540      	lsls	r0, r0, #21
  wait_loop_index = ((PWR_VOSF_SETTING_DELAY_VALUE * (SystemCoreClock / 100000U)) / 10U) + 1U;
 c003f30:	ea4f 03d3 	mov.w	r3, r3, lsr #3
 c003f34:	f103 0301 	add.w	r3, r3, #1
  while ((HAL_IS_BIT_SET(PWR->SR2, PWR_SR2_VOSF)) && (wait_loop_index != 0U))
 c003f38:	d505      	bpl.n	c003f46 <HAL_PWREx_ControlVoltageScaling+0x5a>
 c003f3a:	e000      	b.n	c003f3e <HAL_PWREx_ControlVoltageScaling+0x52>
 c003f3c:	b11b      	cbz	r3, c003f46 <HAL_PWREx_ControlVoltageScaling+0x5a>
 c003f3e:	6951      	ldr	r1, [r2, #20]
    wait_loop_index--;
 c003f40:	3b01      	subs	r3, #1
  while ((HAL_IS_BIT_SET(PWR->SR2, PWR_SR2_VOSF)) && (wait_loop_index != 0U))
 c003f42:	0549      	lsls	r1, r1, #21
 c003f44:	d4fa      	bmi.n	c003f3c <HAL_PWREx_ControlVoltageScaling+0x50>
  if (HAL_IS_BIT_SET(PWR->SR2, PWR_SR2_VOSF))
 c003f46:	4b05      	ldr	r3, [pc, #20]	@ (c003f5c <HAL_PWREx_ControlVoltageScaling+0x70>)
 c003f48:	695b      	ldr	r3, [r3, #20]
 c003f4a:	055b      	lsls	r3, r3, #21
 c003f4c:	d403      	bmi.n	c003f56 <HAL_PWREx_ControlVoltageScaling+0x6a>
    return HAL_OK;
 c003f4e:	2000      	movs	r0, #0
 c003f50:	4770      	bx	lr
    return HAL_ERROR;
 c003f52:	2001      	movs	r0, #1
}
 c003f54:	4770      	bx	lr
    return HAL_TIMEOUT;
 c003f56:	2003      	movs	r0, #3
 c003f58:	4770      	bx	lr
 c003f5a:	bf00      	nop
 c003f5c:	50007000 	.word	0x50007000
 c003f60:	300000a4 	.word	0x300000a4
 c003f64:	0a7c5ac5 	.word	0x0a7c5ac5
 c003f68:	cccccccd 	.word	0xcccccccd

0c003f6c <HAL_PWREx_EnableVddIO2>:
  SET_BIT(PWR->CR2, PWR_CR2_IOSV);
 c003f6c:	4a02      	ldr	r2, [pc, #8]	@ (c003f78 <HAL_PWREx_EnableVddIO2+0xc>)
 c003f6e:	6853      	ldr	r3, [r2, #4]
 c003f70:	f443 7300 	orr.w	r3, r3, #512	@ 0x200
 c003f74:	6053      	str	r3, [r2, #4]
}
 c003f76:	4770      	bx	lr
 c003f78:	50007000 	.word	0x50007000

0c003f7c <HAL_PWREx_DisableUCPDDeadBattery>:
  SET_BIT(PWR->CR3, PWR_CR3_UCPD_DBDIS);
 c003f7c:	4a02      	ldr	r2, [pc, #8]	@ (c003f88 <HAL_PWREx_DisableUCPDDeadBattery+0xc>)
 c003f7e:	6893      	ldr	r3, [r2, #8]
 c003f80:	f443 4380 	orr.w	r3, r3, #16384	@ 0x4000
 c003f84:	6093      	str	r3, [r2, #8]
}
 c003f86:	4770      	bx	lr
 c003f88:	50007000 	.word	0x50007000

0c003f8c <RCC_SetFlashLatencyFromMSIRange>:
            voltage range.
  * @param  msirange  MSI range value from RCC_MSIRANGE_0 to RCC_MSIRANGE_11
  * @retval HAL status
  */
static HAL_StatusTypeDef RCC_SetFlashLatencyFromMSIRange(uint32_t msirange)
{
 c003f8c:	b530      	push	{r4, r5, lr}
  uint32_t latency = FLASH_LATENCY_0;  /* default value 0WS */
  uint32_t vos;

  if (__HAL_RCC_PWR_IS_CLK_ENABLED())
 c003f8e:	4c1e      	ldr	r4, [pc, #120]	@ (c004008 <RCC_SetFlashLatencyFromMSIRange+0x7c>)
{
 c003f90:	4605      	mov	r5, r0
  if (__HAL_RCC_PWR_IS_CLK_ENABLED())
 c003f92:	6da3      	ldr	r3, [r4, #88]	@ 0x58
{
 c003f94:	b083      	sub	sp, #12
  if (__HAL_RCC_PWR_IS_CLK_ENABLED())
 c003f96:	00db      	lsls	r3, r3, #3
 c003f98:	d521      	bpl.n	c003fde <RCC_SetFlashLatencyFromMSIRange+0x52>
  {
    vos = HAL_PWREx_GetVoltageRange();
 c003f9a:	f7ff ff9f 	bl	c003edc <HAL_PWREx_GetVoltageRange>
    __HAL_RCC_PWR_CLK_ENABLE();
    vos = HAL_PWREx_GetVoltageRange();
    __HAL_RCC_PWR_CLK_DISABLE();
  }

  if ((vos == PWR_REGULATOR_VOLTAGE_SCALE0) || (vos == PWR_REGULATOR_VOLTAGE_SCALE1))
 c003f9e:	f430 7300 	bics.w	r3, r0, #512	@ 0x200
 c003fa2:	d015      	beq.n	c003fd0 <RCC_SetFlashLatencyFromMSIRange+0x44>
    }
    /* else MSI <= 16Mhz default FLASH_LATENCY_0 0WS */
  }
  else
  {
    if (msirange > RCC_MSIRANGE_8)
 c003fa4:	2d80      	cmp	r5, #128	@ 0x80
 c003fa6:	d82a      	bhi.n	c003ffe <RCC_SetFlashLatencyFromMSIRange+0x72>
      /* MSI > 16Mhz */
      latency = FLASH_LATENCY_3; /* 3WS */
    }
    else
    {
      if (msirange == RCC_MSIRANGE_8)
 c003fa8:	d02b      	beq.n	c004002 <RCC_SetFlashLatencyFromMSIRange+0x76>
      {
        /* MSI 16Mhz */
        latency = FLASH_LATENCY_2; /* 2WS */
      }
      else if (msirange == RCC_MSIRANGE_7)
 c003faa:	f1a5 0370 	sub.w	r3, r5, #112	@ 0x70
 c003fae:	fab3 f383 	clz	r3, r3
 c003fb2:	095b      	lsrs	r3, r3, #5
        /* MSI < 8Mhz default FLASH_LATENCY_0 0WS */
      }
    }
  }

  __HAL_FLASH_SET_LATENCY(latency);
 c003fb4:	4915      	ldr	r1, [pc, #84]	@ (c00400c <RCC_SetFlashLatencyFromMSIRange+0x80>)
 c003fb6:	680a      	ldr	r2, [r1, #0]
 c003fb8:	f022 020f 	bic.w	r2, r2, #15
 c003fbc:	431a      	orrs	r2, r3
 c003fbe:	600a      	str	r2, [r1, #0]

  /* Check that the new number of wait states is taken into account to access the Flash
     memory by reading the FLASH_ACR register */
  if ((FLASH->ACR & FLASH_ACR_LATENCY) != latency)
 c003fc0:	6808      	ldr	r0, [r1, #0]
 c003fc2:	f000 000f 	and.w	r0, r0, #15
  {
    return HAL_ERROR;
  }

  return HAL_OK;
}
 c003fc6:	1ac0      	subs	r0, r0, r3
 c003fc8:	bf18      	it	ne
 c003fca:	2001      	movne	r0, #1
 c003fcc:	b003      	add	sp, #12
 c003fce:	bd30      	pop	{r4, r5, pc}
    if (msirange > RCC_MSIRANGE_8)
 c003fd0:	2d80      	cmp	r5, #128	@ 0x80
 c003fd2:	d9ef      	bls.n	c003fb4 <RCC_SetFlashLatencyFromMSIRange+0x28>
        latency = FLASH_LATENCY_2; /* 2WS */
 c003fd4:	2da1      	cmp	r5, #161	@ 0xa1
 c003fd6:	bf34      	ite	cc
 c003fd8:	2301      	movcc	r3, #1
 c003fda:	2302      	movcs	r3, #2
 c003fdc:	e7ea      	b.n	c003fb4 <RCC_SetFlashLatencyFromMSIRange+0x28>
    __HAL_RCC_PWR_CLK_ENABLE();
 c003fde:	6da3      	ldr	r3, [r4, #88]	@ 0x58
 c003fe0:	f043 5380 	orr.w	r3, r3, #268435456	@ 0x10000000
 c003fe4:	65a3      	str	r3, [r4, #88]	@ 0x58
 c003fe6:	6da3      	ldr	r3, [r4, #88]	@ 0x58
 c003fe8:	f003 5380 	and.w	r3, r3, #268435456	@ 0x10000000
 c003fec:	9301      	str	r3, [sp, #4]
 c003fee:	9b01      	ldr	r3, [sp, #4]
    vos = HAL_PWREx_GetVoltageRange();
 c003ff0:	f7ff ff74 	bl	c003edc <HAL_PWREx_GetVoltageRange>
    __HAL_RCC_PWR_CLK_DISABLE();
 c003ff4:	6da3      	ldr	r3, [r4, #88]	@ 0x58
 c003ff6:	f023 5380 	bic.w	r3, r3, #268435456	@ 0x10000000
 c003ffa:	65a3      	str	r3, [r4, #88]	@ 0x58
 c003ffc:	e7cf      	b.n	c003f9e <RCC_SetFlashLatencyFromMSIRange+0x12>
      latency = FLASH_LATENCY_3; /* 3WS */
 c003ffe:	2303      	movs	r3, #3
 c004000:	e7d8      	b.n	c003fb4 <RCC_SetFlashLatencyFromMSIRange+0x28>
        latency = FLASH_LATENCY_2; /* 2WS */
 c004002:	2302      	movs	r3, #2
 c004004:	e7d6      	b.n	c003fb4 <RCC_SetFlashLatencyFromMSIRange+0x28>
 c004006:	bf00      	nop
 c004008:	50021000 	.word	0x50021000
 c00400c:	50022000 	.word	0x50022000

0c004010 <HAL_RCC_GetSysClockFreq>:
  sysclk_source = __HAL_RCC_GET_SYSCLK_SOURCE();
 c004010:	4a28      	ldr	r2, [pc, #160]	@ (c0040b4 <HAL_RCC_GetSysClockFreq+0xa4>)
 c004012:	6893      	ldr	r3, [r2, #8]
  pll_oscsource = __HAL_RCC_GET_PLL_OSCSOURCE();
 c004014:	68d2      	ldr	r2, [r2, #12]
  if ((sysclk_source == RCC_SYSCLKSOURCE_STATUS_MSI) ||
 c004016:	f013 030c 	ands.w	r3, r3, #12
 c00401a:	d00b      	beq.n	c004034 <HAL_RCC_GetSysClockFreq+0x24>
 c00401c:	2b0c      	cmp	r3, #12
 c00401e:	d03b      	beq.n	c004098 <HAL_RCC_GetSysClockFreq+0x88>
  else if (sysclk_source == RCC_SYSCLKSOURCE_STATUS_HSI)
 c004020:	f46f 7288 	mvn.w	r2, #272	@ 0x110
 c004024:	fa42 f303 	asr.w	r3, r2, r3
    sysclockfreq = HSE_VALUE;
 c004028:	f013 0f01 	tst.w	r3, #1
 c00402c:	4822      	ldr	r0, [pc, #136]	@ (c0040b8 <HAL_RCC_GetSysClockFreq+0xa8>)
 c00402e:	bf18      	it	ne
 c004030:	2000      	movne	r0, #0
 c004032:	4770      	bx	lr
    if (READ_BIT(RCC->CR, RCC_CR_MSIRGSEL) == 0U)
 c004034:	4a1f      	ldr	r2, [pc, #124]	@ (c0040b4 <HAL_RCC_GetSysClockFreq+0xa4>)
 c004036:	6811      	ldr	r1, [r2, #0]
 c004038:	0709      	lsls	r1, r1, #28
      msirange = READ_BIT(RCC->CSR, RCC_CSR_MSISRANGE) >> RCC_CSR_MSISRANGE_Pos;
 c00403a:	bf54      	ite	pl
 c00403c:	f8d2 2094 	ldrpl.w	r2, [r2, #148]	@ 0x94
      msirange = READ_BIT(RCC->CR, RCC_CR_MSIRANGE) >> RCC_CR_MSIRANGE_Pos;
 c004040:	6812      	ldrmi	r2, [r2, #0]
    msirange = MSIRangeTable[msirange];
 c004042:	491e      	ldr	r1, [pc, #120]	@ (c0040bc <HAL_RCC_GetSysClockFreq+0xac>)
      msirange = READ_BIT(RCC->CSR, RCC_CSR_MSISRANGE) >> RCC_CSR_MSISRANGE_Pos;
 c004044:	bf54      	ite	pl
 c004046:	f3c2 2203 	ubfxpl	r2, r2, #8, #4
      msirange = READ_BIT(RCC->CR, RCC_CR_MSIRANGE) >> RCC_CR_MSIRANGE_Pos;
 c00404a:	f3c2 1203 	ubfxmi	r2, r2, #4, #4
    msirange = MSIRangeTable[msirange];
 c00404e:	f851 0022 	ldr.w	r0, [r1, r2, lsl #2]
    if (sysclk_source == RCC_SYSCLKSOURCE_STATUS_MSI)
 c004052:	b303      	cbz	r3, c004096 <HAL_RCC_GetSysClockFreq+0x86>
  if (sysclk_source == RCC_SYSCLKSOURCE_STATUS_PLLCLK)
 c004054:	2b0c      	cmp	r3, #12
 c004056:	d11d      	bne.n	c004094 <HAL_RCC_GetSysClockFreq+0x84>
    pllsource = (RCC->PLLCFGR & RCC_PLLCFGR_PLLSRC);
 c004058:	4916      	ldr	r1, [pc, #88]	@ (c0040b4 <HAL_RCC_GetSysClockFreq+0xa4>)
 c00405a:	68ca      	ldr	r2, [r1, #12]
    pllm = ((RCC->PLLCFGR & RCC_PLLCFGR_PLLM) >> RCC_PLLCFGR_PLLM_Pos) + 1U ;
 c00405c:	68cb      	ldr	r3, [r1, #12]
    pllsource = (RCC->PLLCFGR & RCC_PLLCFGR_PLLSRC);
 c00405e:	f002 0203 	and.w	r2, r2, #3
    pllm = ((RCC->PLLCFGR & RCC_PLLCFGR_PLLM) >> RCC_PLLCFGR_PLLM_Pos) + 1U ;
 c004062:	f3c3 1303 	ubfx	r3, r3, #4, #4
    switch (pllsource)
 c004066:	2a02      	cmp	r2, #2
    pllm = ((RCC->PLLCFGR & RCC_PLLCFGR_PLLM) >> RCC_PLLCFGR_PLLM_Pos) + 1U ;
 c004068:	f103 0301 	add.w	r3, r3, #1
    switch (pllsource)
 c00406c:	d001      	beq.n	c004072 <HAL_RCC_GetSysClockFreq+0x62>
 c00406e:	2a03      	cmp	r2, #3
 c004070:	d118      	bne.n	c0040a4 <HAL_RCC_GetSysClockFreq+0x94>
        pllvco = (HSE_VALUE / pllm) * ((RCC->PLLCFGR & RCC_PLLCFGR_PLLN) >> RCC_PLLCFGR_PLLN_Pos);
 c004072:	4a11      	ldr	r2, [pc, #68]	@ (c0040b8 <HAL_RCC_GetSysClockFreq+0xa8>)
 c004074:	68c8      	ldr	r0, [r1, #12]
 c004076:	fbb2 f3f3 	udiv	r3, r2, r3
 c00407a:	f3c0 2006 	ubfx	r0, r0, #8, #7
 c00407e:	fb03 f000 	mul.w	r0, r3, r0
    pllr = (((RCC->PLLCFGR & RCC_PLLCFGR_PLLR) >> RCC_PLLCFGR_PLLR_Pos) + 1U) * 2U;
 c004082:	4b0c      	ldr	r3, [pc, #48]	@ (c0040b4 <HAL_RCC_GetSysClockFreq+0xa4>)
 c004084:	68db      	ldr	r3, [r3, #12]
 c004086:	f3c3 6341 	ubfx	r3, r3, #25, #2
 c00408a:	3301      	adds	r3, #1
 c00408c:	005b      	lsls	r3, r3, #1
    sysclockfreq = pllvco / pllr;
 c00408e:	fbb0 f0f3 	udiv	r0, r0, r3
 c004092:	4770      	bx	lr
  uint32_t msirange = 0U, sysclockfreq = 0U;
 c004094:	2000      	movs	r0, #0
}
 c004096:	4770      	bx	lr
  pll_oscsource = __HAL_RCC_GET_PLL_OSCSOURCE();
 c004098:	f002 0203 	and.w	r2, r2, #3
      ((sysclk_source == RCC_SYSCLKSOURCE_STATUS_PLLCLK) && (pll_oscsource == RCC_PLLSOURCE_MSI)))
 c00409c:	2a01      	cmp	r2, #1
 c00409e:	d0c9      	beq.n	c004034 <HAL_RCC_GetSysClockFreq+0x24>
  uint32_t msirange = 0U, sysclockfreq = 0U;
 c0040a0:	2000      	movs	r0, #0
 c0040a2:	e7d9      	b.n	c004058 <HAL_RCC_GetSysClockFreq+0x48>
        pllvco = (msirange / pllm) * ((RCC->PLLCFGR & RCC_PLLCFGR_PLLN) >> RCC_PLLCFGR_PLLN_Pos);
 c0040a4:	fbb0 f0f3 	udiv	r0, r0, r3
 c0040a8:	68cb      	ldr	r3, [r1, #12]
 c0040aa:	f3c3 2306 	ubfx	r3, r3, #8, #7
 c0040ae:	fb03 f000 	mul.w	r0, r3, r0
        break;
 c0040b2:	e7e6      	b.n	c004082 <HAL_RCC_GetSysClockFreq+0x72>
 c0040b4:	50021000 	.word	0x50021000
 c0040b8:	00f42400 	.word	0x00f42400
 c0040bc:	0c006448 	.word	0x0c006448

0c0040c0 <HAL_RCC_OscConfig>:
  if (RCC_OscInitStruct == NULL)
 c0040c0:	2800      	cmp	r0, #0
 c0040c2:	f000 83bd 	beq.w	c004840 <HAL_RCC_OscConfig+0x780>
{
 c0040c6:	e92d 41f0 	stmdb	sp!, {r4, r5, r6, r7, r8, lr}
  sysclk_source = __HAL_RCC_GET_SYSCLK_SOURCE();
 c0040ca:	4aa4      	ldr	r2, [pc, #656]	@ (c00435c <HAL_RCC_OscConfig+0x29c>)
  if (((RCC_OscInitStruct->OscillatorType) & RCC_OSCILLATORTYPE_MSI) == RCC_OSCILLATORTYPE_MSI)
 c0040cc:	6803      	ldr	r3, [r0, #0]
  sysclk_source = __HAL_RCC_GET_SYSCLK_SOURCE();
 c0040ce:	6895      	ldr	r5, [r2, #8]
  pll_config = __HAL_RCC_GET_PLL_OSCSOURCE();
 c0040d0:	68d6      	ldr	r6, [r2, #12]
  if (((RCC_OscInitStruct->OscillatorType) & RCC_OSCILLATORTYPE_MSI) == RCC_OSCILLATORTYPE_MSI)
 c0040d2:	06df      	lsls	r7, r3, #27
 c0040d4:	4604      	mov	r4, r0
{
 c0040d6:	b082      	sub	sp, #8
  sysclk_source = __HAL_RCC_GET_SYSCLK_SOURCE();
 c0040d8:	f005 050c 	and.w	r5, r5, #12
  pll_config = __HAL_RCC_GET_PLL_OSCSOURCE();
 c0040dc:	f006 0603 	and.w	r6, r6, #3
  if (((RCC_OscInitStruct->OscillatorType) & RCC_OSCILLATORTYPE_MSI) == RCC_OSCILLATORTYPE_MSI)
 c0040e0:	d534      	bpl.n	c00414c <HAL_RCC_OscConfig+0x8c>
    if ((sysclk_source == RCC_SYSCLKSOURCE_STATUS_MSI) ||
 c0040e2:	2d00      	cmp	r5, #0
 c0040e4:	f000 817a 	beq.w	c0043dc <HAL_RCC_OscConfig+0x31c>
 c0040e8:	2d0c      	cmp	r5, #12
 c0040ea:	f000 8174 	beq.w	c0043d6 <HAL_RCC_OscConfig+0x316>
      if (RCC_OscInitStruct->MSIState != RCC_MSI_OFF)
 c0040ee:	69e3      	ldr	r3, [r4, #28]
        __HAL_RCC_MSI_ENABLE();
 c0040f0:	4f9a      	ldr	r7, [pc, #616]	@ (c00435c <HAL_RCC_OscConfig+0x29c>)
      if (RCC_OscInitStruct->MSIState != RCC_MSI_OFF)
 c0040f2:	2b00      	cmp	r3, #0
 c0040f4:	f000 81fb 	beq.w	c0044ee <HAL_RCC_OscConfig+0x42e>
        __HAL_RCC_MSI_ENABLE();
 c0040f8:	683b      	ldr	r3, [r7, #0]
 c0040fa:	f043 0301 	orr.w	r3, r3, #1
 c0040fe:	603b      	str	r3, [r7, #0]
        tickstart = HAL_GetTick();
 c004100:	f7ff fbde 	bl	c0038c0 <HAL_GetTick>
        while (READ_BIT(RCC->CR, RCC_CR_MSIRDY) == 0U)
 c004104:	683b      	ldr	r3, [r7, #0]
        tickstart = HAL_GetTick();
 c004106:	4680      	mov	r8, r0
        while (READ_BIT(RCC->CR, RCC_CR_MSIRDY) == 0U)
 c004108:	079a      	lsls	r2, r3, #30
 c00410a:	d40c      	bmi.n	c004126 <HAL_RCC_OscConfig+0x66>
          if ((HAL_GetTick() - tickstart) > MSI_TIMEOUT_VALUE)
 c00410c:	f7ff fbd8 	bl	c0038c0 <HAL_GetTick>
 c004110:	eba0 0008 	sub.w	r0, r0, r8
 c004114:	2802      	cmp	r0, #2
 c004116:	d903      	bls.n	c004120 <HAL_RCC_OscConfig+0x60>
            if (READ_BIT(RCC->CR, RCC_CR_MSIRDY) == 0U)
 c004118:	683b      	ldr	r3, [r7, #0]
 c00411a:	079b      	lsls	r3, r3, #30
 c00411c:	f140 81fe 	bpl.w	c00451c <HAL_RCC_OscConfig+0x45c>
        while (READ_BIT(RCC->CR, RCC_CR_MSIRDY) == 0U)
 c004120:	683b      	ldr	r3, [r7, #0]
 c004122:	0799      	lsls	r1, r3, #30
 c004124:	d5f2      	bpl.n	c00410c <HAL_RCC_OscConfig+0x4c>
        __HAL_RCC_MSI_RANGE_CONFIG(RCC_OscInitStruct->MSIClockRange);
 c004126:	4b8d      	ldr	r3, [pc, #564]	@ (c00435c <HAL_RCC_OscConfig+0x29c>)
 c004128:	681a      	ldr	r2, [r3, #0]
 c00412a:	f042 0208 	orr.w	r2, r2, #8
 c00412e:	601a      	str	r2, [r3, #0]
 c004130:	681a      	ldr	r2, [r3, #0]
 c004132:	6a61      	ldr	r1, [r4, #36]	@ 0x24
 c004134:	f022 02f0 	bic.w	r2, r2, #240	@ 0xf0
 c004138:	430a      	orrs	r2, r1
 c00413a:	601a      	str	r2, [r3, #0]
        __HAL_RCC_MSI_CALIBRATIONVALUE_ADJUST(RCC_OscInitStruct->MSICalibrationValue);
 c00413c:	685a      	ldr	r2, [r3, #4]
 c00413e:	6a21      	ldr	r1, [r4, #32]
 c004140:	f422 427f 	bic.w	r2, r2, #65280	@ 0xff00
 c004144:	ea42 2201 	orr.w	r2, r2, r1, lsl #8
 c004148:	605a      	str	r2, [r3, #4]
  if (((RCC_OscInitStruct->OscillatorType) & RCC_OSCILLATORTYPE_HSE) == RCC_OSCILLATORTYPE_HSE)
 c00414a:	6823      	ldr	r3, [r4, #0]
 c00414c:	07da      	lsls	r2, r3, #31
 c00414e:	d52e      	bpl.n	c0041ae <HAL_RCC_OscConfig+0xee>
    if ((sysclk_source == RCC_SYSCLKSOURCE_STATUS_HSE) ||
 c004150:	2d08      	cmp	r5, #8
 c004152:	f000 81c2 	beq.w	c0044da <HAL_RCC_OscConfig+0x41a>
 c004156:	2d0c      	cmp	r5, #12
 c004158:	f000 81bc 	beq.w	c0044d4 <HAL_RCC_OscConfig+0x414>
      __HAL_RCC_HSE_CONFIG(RCC_OscInitStruct->HSEState);
 c00415c:	6863      	ldr	r3, [r4, #4]
 c00415e:	f5b3 3f80 	cmp.w	r3, #65536	@ 0x10000
 c004162:	f000 81df 	beq.w	c004524 <HAL_RCC_OscConfig+0x464>
 c004166:	f5b3 2fa0 	cmp.w	r3, #327680	@ 0x50000
 c00416a:	f000 8316 	beq.w	c00479a <HAL_RCC_OscConfig+0x6da>
 c00416e:	4f7b      	ldr	r7, [pc, #492]	@ (c00435c <HAL_RCC_OscConfig+0x29c>)
 c004170:	683a      	ldr	r2, [r7, #0]
 c004172:	f422 3280 	bic.w	r2, r2, #65536	@ 0x10000
 c004176:	603a      	str	r2, [r7, #0]
 c004178:	683a      	ldr	r2, [r7, #0]
 c00417a:	f422 2280 	bic.w	r2, r2, #262144	@ 0x40000
 c00417e:	603a      	str	r2, [r7, #0]
      if (RCC_OscInitStruct->HSEState != RCC_HSE_OFF)
 c004180:	2b00      	cmp	r3, #0
 c004182:	f040 81d4 	bne.w	c00452e <HAL_RCC_OscConfig+0x46e>
        tickstart = HAL_GetTick();
 c004186:	f7ff fb9b 	bl	c0038c0 <HAL_GetTick>
        while (READ_BIT(RCC->CR, RCC_CR_HSERDY) != 0U)
 c00418a:	683b      	ldr	r3, [r7, #0]
        tickstart = HAL_GetTick();
 c00418c:	4680      	mov	r8, r0
        while (READ_BIT(RCC->CR, RCC_CR_HSERDY) != 0U)
 c00418e:	0399      	lsls	r1, r3, #14
 c004190:	d50c      	bpl.n	c0041ac <HAL_RCC_OscConfig+0xec>
          if ((HAL_GetTick() - tickstart) > HSE_TIMEOUT_VALUE)
 c004192:	f7ff fb95 	bl	c0038c0 <HAL_GetTick>
 c004196:	eba0 0008 	sub.w	r0, r0, r8
 c00419a:	2864      	cmp	r0, #100	@ 0x64
 c00419c:	d903      	bls.n	c0041a6 <HAL_RCC_OscConfig+0xe6>
            if (READ_BIT(RCC->CR, RCC_CR_HSERDY) != 0U)
 c00419e:	683b      	ldr	r3, [r7, #0]
 c0041a0:	039a      	lsls	r2, r3, #14
 c0041a2:	f100 81bb 	bmi.w	c00451c <HAL_RCC_OscConfig+0x45c>
        while (READ_BIT(RCC->CR, RCC_CR_HSERDY) != 0U)
 c0041a6:	683b      	ldr	r3, [r7, #0]
 c0041a8:	039b      	lsls	r3, r3, #14
 c0041aa:	d4f2      	bmi.n	c004192 <HAL_RCC_OscConfig+0xd2>
  if (((RCC_OscInitStruct->OscillatorType) & RCC_OSCILLATORTYPE_HSI) == RCC_OSCILLATORTYPE_HSI)
 c0041ac:	6823      	ldr	r3, [r4, #0]
 c0041ae:	0799      	lsls	r1, r3, #30
 c0041b0:	f100 80e8 	bmi.w	c004384 <HAL_RCC_OscConfig+0x2c4>
  if (((RCC_OscInitStruct->OscillatorType) & RCC_OSCILLATORTYPE_LSI) == RCC_OSCILLATORTYPE_LSI)
 c0041b4:	071a      	lsls	r2, r3, #28
 c0041b6:	d52b      	bpl.n	c004210 <HAL_RCC_OscConfig+0x150>
    if (RCC_OscInitStruct->LSIState != RCC_LSI_OFF)
 c0041b8:	6963      	ldr	r3, [r4, #20]
 c0041ba:	2b00      	cmp	r3, #0
 c0041bc:	f000 816d 	beq.w	c00449a <HAL_RCC_OscConfig+0x3da>
      if (RCC_OscInitStruct->LSIDiv == RCC_LSI_DIV1)
 c0041c0:	69a3      	ldr	r3, [r4, #24]
        CLEAR_BIT(RCC->CSR, RCC_CSR_LSIPRE);
 c0041c2:	4a66      	ldr	r2, [pc, #408]	@ (c00435c <HAL_RCC_OscConfig+0x29c>)
      if (RCC_OscInitStruct->LSIDiv == RCC_LSI_DIV1)
 c0041c4:	2b00      	cmp	r3, #0
 c0041c6:	f040 820e 	bne.w	c0045e6 <HAL_RCC_OscConfig+0x526>
        CLEAR_BIT(RCC->CSR, RCC_CSR_LSIPRE);
 c0041ca:	f8d2 3094 	ldr.w	r3, [r2, #148]	@ 0x94
 c0041ce:	f023 0310 	bic.w	r3, r3, #16
 c0041d2:	f8c2 3094 	str.w	r3, [r2, #148]	@ 0x94
      __HAL_RCC_LSI_ENABLE();
 c0041d6:	4d61      	ldr	r5, [pc, #388]	@ (c00435c <HAL_RCC_OscConfig+0x29c>)
 c0041d8:	f8d5 3094 	ldr.w	r3, [r5, #148]	@ 0x94
 c0041dc:	f043 0301 	orr.w	r3, r3, #1
 c0041e0:	f8c5 3094 	str.w	r3, [r5, #148]	@ 0x94
      tickstart = HAL_GetTick();
 c0041e4:	f7ff fb6c 	bl	c0038c0 <HAL_GetTick>
      while (READ_BIT(RCC->CSR, RCC_CSR_LSIRDY) == 0U)
 c0041e8:	f8d5 3094 	ldr.w	r3, [r5, #148]	@ 0x94
      tickstart = HAL_GetTick();
 c0041ec:	4606      	mov	r6, r0
      while (READ_BIT(RCC->CSR, RCC_CSR_LSIRDY) == 0U)
 c0041ee:	079b      	lsls	r3, r3, #30
 c0041f0:	d40d      	bmi.n	c00420e <HAL_RCC_OscConfig+0x14e>
        if ((HAL_GetTick() - tickstart) > LSI_TIMEOUT_VALUE)
 c0041f2:	f7ff fb65 	bl	c0038c0 <HAL_GetTick>
 c0041f6:	1b80      	subs	r0, r0, r6
 c0041f8:	2807      	cmp	r0, #7
 c0041fa:	d904      	bls.n	c004206 <HAL_RCC_OscConfig+0x146>
          if (READ_BIT(RCC->CSR, RCC_CSR_LSIRDY) == 0U)
 c0041fc:	f8d5 3094 	ldr.w	r3, [r5, #148]	@ 0x94
 c004200:	079f      	lsls	r7, r3, #30
 c004202:	f140 818b 	bpl.w	c00451c <HAL_RCC_OscConfig+0x45c>
      while (READ_BIT(RCC->CSR, RCC_CSR_LSIRDY) == 0U)
 c004206:	f8d5 3094 	ldr.w	r3, [r5, #148]	@ 0x94
 c00420a:	0799      	lsls	r1, r3, #30
 c00420c:	d5f1      	bpl.n	c0041f2 <HAL_RCC_OscConfig+0x132>
  if (((RCC_OscInitStruct->OscillatorType) & RCC_OSCILLATORTYPE_LSE) == RCC_OSCILLATORTYPE_LSE)
 c00420e:	6823      	ldr	r3, [r4, #0]
 c004210:	075d      	lsls	r5, r3, #29
 c004212:	d55c      	bpl.n	c0042ce <HAL_RCC_OscConfig+0x20e>
    if (HAL_IS_BIT_CLR(RCC->APB1ENR1, RCC_APB1ENR1_PWREN))
 c004214:	4b51      	ldr	r3, [pc, #324]	@ (c00435c <HAL_RCC_OscConfig+0x29c>)
 c004216:	6d9a      	ldr	r2, [r3, #88]	@ 0x58
 c004218:	00d0      	lsls	r0, r2, #3
 c00421a:	f140 8121 	bpl.w	c004460 <HAL_RCC_OscConfig+0x3a0>
    FlagStatus       pwrclkchanged = RESET;
 c00421e:	2500      	movs	r5, #0
    if (HAL_IS_BIT_CLR(PWR->CR1, PWR_CR1_DBP))
 c004220:	4e4f      	ldr	r6, [pc, #316]	@ (c004360 <HAL_RCC_OscConfig+0x2a0>)
 c004222:	6833      	ldr	r3, [r6, #0]
 c004224:	05d9      	lsls	r1, r3, #23
 c004226:	f140 8222 	bpl.w	c00466e <HAL_RCC_OscConfig+0x5ae>
    if ((RCC_OscInitStruct->LSEState & RCC_BDCR_LSEON) != 0U)
 c00422a:	68a3      	ldr	r3, [r4, #8]
 c00422c:	07da      	lsls	r2, r3, #31
 c00422e:	f140 8193 	bpl.w	c004558 <HAL_RCC_OscConfig+0x498>
      if ((RCC_OscInitStruct->LSEState & RCC_BDCR_LSEBYP) != 0U)
 c004232:	075a      	lsls	r2, r3, #29
 c004234:	f140 824d 	bpl.w	c0046d2 <HAL_RCC_OscConfig+0x612>
        SET_BIT(RCC->BDCR, RCC_BDCR_LSEBYP);
 c004238:	4b48      	ldr	r3, [pc, #288]	@ (c00435c <HAL_RCC_OscConfig+0x29c>)
 c00423a:	f8d3 2090 	ldr.w	r2, [r3, #144]	@ 0x90
 c00423e:	f042 0204 	orr.w	r2, r2, #4
 c004242:	f8c3 2090 	str.w	r2, [r3, #144]	@ 0x90
        SET_BIT(RCC->BDCR, RCC_BDCR_LSEON);
 c004246:	f8d3 2090 	ldr.w	r2, [r3, #144]	@ 0x90
 c00424a:	f042 0201 	orr.w	r2, r2, #1
 c00424e:	f8c3 2090 	str.w	r2, [r3, #144]	@ 0x90
      tickstart = HAL_GetTick();
 c004252:	f7ff fb35 	bl	c0038c0 <HAL_GetTick>
      while (READ_BIT(RCC->BDCR, RCC_BDCR_LSERDY) == 0U)
 c004256:	4f41      	ldr	r7, [pc, #260]	@ (c00435c <HAL_RCC_OscConfig+0x29c>)
      tickstart = HAL_GetTick();
 c004258:	4606      	mov	r6, r0
      while (READ_BIT(RCC->BDCR, RCC_BDCR_LSERDY) == 0U)
 c00425a:	f8d7 3090 	ldr.w	r3, [r7, #144]	@ 0x90
 c00425e:	079b      	lsls	r3, r3, #30
 c004260:	d40f      	bmi.n	c004282 <HAL_RCC_OscConfig+0x1c2>
        if ((HAL_GetTick() - tickstart) > RCC_LSE_TIMEOUT_VALUE)
 c004262:	f241 3888 	movw	r8, #5000	@ 0x1388
 c004266:	f7ff fb2b 	bl	c0038c0 <HAL_GetTick>
 c00426a:	1b80      	subs	r0, r0, r6
 c00426c:	4540      	cmp	r0, r8
 c00426e:	d904      	bls.n	c00427a <HAL_RCC_OscConfig+0x1ba>
          if (READ_BIT(RCC->BDCR, RCC_BDCR_LSERDY) == 0U)
 c004270:	f8d7 3090 	ldr.w	r3, [r7, #144]	@ 0x90
 c004274:	079a      	lsls	r2, r3, #30
 c004276:	f140 8151 	bpl.w	c00451c <HAL_RCC_OscConfig+0x45c>
      while (READ_BIT(RCC->BDCR, RCC_BDCR_LSERDY) == 0U)
 c00427a:	f8d7 3090 	ldr.w	r3, [r7, #144]	@ 0x90
 c00427e:	079b      	lsls	r3, r3, #30
 c004280:	d5f1      	bpl.n	c004266 <HAL_RCC_OscConfig+0x1a6>
      if ((RCC_OscInitStruct->LSEState & RCC_BDCR_LSESYSEN) != 0U)
 c004282:	68a3      	ldr	r3, [r4, #8]
 c004284:	0619      	lsls	r1, r3, #24
 c004286:	f140 8231 	bpl.w	c0046ec <HAL_RCC_OscConfig+0x62c>
        SET_BIT(RCC->BDCR, RCC_BDCR_LSESYSEN);
 c00428a:	4f34      	ldr	r7, [pc, #208]	@ (c00435c <HAL_RCC_OscConfig+0x29c>)
 c00428c:	f8d7 3090 	ldr.w	r3, [r7, #144]	@ 0x90
 c004290:	f043 0380 	orr.w	r3, r3, #128	@ 0x80
 c004294:	f8c7 3090 	str.w	r3, [r7, #144]	@ 0x90
        while (READ_BIT(RCC->BDCR, RCC_BDCR_LSESYSRDY) == 0U)
 c004298:	f8d7 3090 	ldr.w	r3, [r7, #144]	@ 0x90
 c00429c:	0519      	lsls	r1, r3, #20
 c00429e:	d40f      	bmi.n	c0042c0 <HAL_RCC_OscConfig+0x200>
          if ((HAL_GetTick() - tickstart) > RCC_LSE_TIMEOUT_VALUE)
 c0042a0:	f241 3888 	movw	r8, #5000	@ 0x1388
 c0042a4:	f7ff fb0c 	bl	c0038c0 <HAL_GetTick>
 c0042a8:	1b80      	subs	r0, r0, r6
 c0042aa:	4540      	cmp	r0, r8
 c0042ac:	d904      	bls.n	c0042b8 <HAL_RCC_OscConfig+0x1f8>
            if (READ_BIT(RCC->BDCR, RCC_BDCR_LSESYSRDY) == 0U)
 c0042ae:	f8d7 3090 	ldr.w	r3, [r7, #144]	@ 0x90
 c0042b2:	051a      	lsls	r2, r3, #20
 c0042b4:	f140 8132 	bpl.w	c00451c <HAL_RCC_OscConfig+0x45c>
        while (READ_BIT(RCC->BDCR, RCC_BDCR_LSESYSRDY) == 0U)
 c0042b8:	f8d7 3090 	ldr.w	r3, [r7, #144]	@ 0x90
 c0042bc:	051b      	lsls	r3, r3, #20
 c0042be:	d5f1      	bpl.n	c0042a4 <HAL_RCC_OscConfig+0x1e4>
    if (pwrclkchanged == SET)
 c0042c0:	b125      	cbz	r5, c0042cc <HAL_RCC_OscConfig+0x20c>
      __HAL_RCC_PWR_CLK_DISABLE();
 c0042c2:	4a26      	ldr	r2, [pc, #152]	@ (c00435c <HAL_RCC_OscConfig+0x29c>)
 c0042c4:	6d93      	ldr	r3, [r2, #88]	@ 0x58
 c0042c6:	f023 5380 	bic.w	r3, r3, #268435456	@ 0x10000000
 c0042ca:	6593      	str	r3, [r2, #88]	@ 0x58
  if (((RCC_OscInitStruct->OscillatorType) & RCC_OSCILLATORTYPE_HSI48) == RCC_OSCILLATORTYPE_HSI48)
 c0042cc:	6823      	ldr	r3, [r4, #0]
 c0042ce:	069a      	lsls	r2, r3, #26
 c0042d0:	d51f      	bpl.n	c004312 <HAL_RCC_OscConfig+0x252>
    if (RCC_OscInitStruct->HSI48State != RCC_HSI48_OFF)
 c0042d2:	6aa3      	ldr	r3, [r4, #40]	@ 0x28
      __HAL_RCC_HSI48_ENABLE();
 c0042d4:	4d21      	ldr	r5, [pc, #132]	@ (c00435c <HAL_RCC_OscConfig+0x29c>)
    if (RCC_OscInitStruct->HSI48State != RCC_HSI48_OFF)
 c0042d6:	2b00      	cmp	r3, #0
 c0042d8:	f000 81ac 	beq.w	c004634 <HAL_RCC_OscConfig+0x574>
      __HAL_RCC_HSI48_ENABLE();
 c0042dc:	f8d5 3098 	ldr.w	r3, [r5, #152]	@ 0x98
 c0042e0:	f043 0301 	orr.w	r3, r3, #1
 c0042e4:	f8c5 3098 	str.w	r3, [r5, #152]	@ 0x98
      tickstart = HAL_GetTick();
 c0042e8:	f7ff faea 	bl	c0038c0 <HAL_GetTick>
      while (READ_BIT(RCC->CRRCR, RCC_CRRCR_HSI48RDY) == 0U)
 c0042ec:	f8d5 3098 	ldr.w	r3, [r5, #152]	@ 0x98
      tickstart = HAL_GetTick();
 c0042f0:	4606      	mov	r6, r0
      while (READ_BIT(RCC->CRRCR, RCC_CRRCR_HSI48RDY) == 0U)
 c0042f2:	079b      	lsls	r3, r3, #30
 c0042f4:	d40d      	bmi.n	c004312 <HAL_RCC_OscConfig+0x252>
        if ((HAL_GetTick() - tickstart) > HSI48_TIMEOUT_VALUE)
 c0042f6:	f7ff fae3 	bl	c0038c0 <HAL_GetTick>
 c0042fa:	1b80      	subs	r0, r0, r6
 c0042fc:	2802      	cmp	r0, #2
 c0042fe:	d904      	bls.n	c00430a <HAL_RCC_OscConfig+0x24a>
          if (READ_BIT(RCC->CRRCR, RCC_CRRCR_HSI48RDY) == 0U)
 c004300:	f8d5 3098 	ldr.w	r3, [r5, #152]	@ 0x98
 c004304:	079f      	lsls	r7, r3, #30
 c004306:	f140 8109 	bpl.w	c00451c <HAL_RCC_OscConfig+0x45c>
      while (READ_BIT(RCC->CRRCR, RCC_CRRCR_HSI48RDY) == 0U)
 c00430a:	f8d5 3098 	ldr.w	r3, [r5, #152]	@ 0x98
 c00430e:	0799      	lsls	r1, r3, #30
 c004310:	d5f1      	bpl.n	c0042f6 <HAL_RCC_OscConfig+0x236>
  if (RCC_OscInitStruct->PLL.PLLState != RCC_PLL_NONE)
 c004312:	6ae3      	ldr	r3, [r4, #44]	@ 0x2c
 c004314:	2b00      	cmp	r3, #0
 c004316:	d031      	beq.n	c00437c <HAL_RCC_OscConfig+0x2bc>
    if (__HAL_RCC_GET_SYSCLK_SOURCE() != RCC_SYSCLKSOURCE_STATUS_PLLCLK)
 c004318:	4d10      	ldr	r5, [pc, #64]	@ (c00435c <HAL_RCC_OscConfig+0x29c>)
 c00431a:	68aa      	ldr	r2, [r5, #8]
 c00431c:	f002 020c 	and.w	r2, r2, #12
 c004320:	2a0c      	cmp	r2, #12
 c004322:	f000 8200 	beq.w	c004726 <HAL_RCC_OscConfig+0x666>
      if (RCC_OscInitStruct->PLL.PLLState == RCC_PLL_ON)
 c004326:	2b02      	cmp	r3, #2
        __HAL_RCC_PLL_DISABLE();
 c004328:	682b      	ldr	r3, [r5, #0]
 c00432a:	f023 7380 	bic.w	r3, r3, #16777216	@ 0x1000000
 c00432e:	602b      	str	r3, [r5, #0]
      if (RCC_OscInitStruct->PLL.PLLState == RCC_PLL_ON)
 c004330:	f000 823d 	beq.w	c0047ae <HAL_RCC_OscConfig+0x6ee>
        if (READ_BIT(RCC->CR, (RCC_CR_PLLSAI1RDY | RCC_CR_PLLSAI2RDY)) == 0U)
 c004334:	682b      	ldr	r3, [r5, #0]
 c004336:	f013 5f20 	tst.w	r3, #671088640	@ 0x28000000
 c00433a:	f000 81d2 	beq.w	c0046e2 <HAL_RCC_OscConfig+0x622>
        __HAL_RCC_PLLCLKOUT_DISABLE(RCC_PLL_SYSCLK | RCC_PLL_48M1CLK | RCC_PLL_SAI3CLK);
 c00433e:	4c07      	ldr	r4, [pc, #28]	@ (c00435c <HAL_RCC_OscConfig+0x29c>)
 c004340:	68e3      	ldr	r3, [r4, #12]
 c004342:	f023 7388 	bic.w	r3, r3, #17825792	@ 0x1100000
 c004346:	f423 3380 	bic.w	r3, r3, #65536	@ 0x10000
 c00434a:	60e3      	str	r3, [r4, #12]
        tickstart = HAL_GetTick();
 c00434c:	f7ff fab8 	bl	c0038c0 <HAL_GetTick>
        while (READ_BIT(RCC->CR, RCC_CR_PLLRDY) != 0U)
 c004350:	6823      	ldr	r3, [r4, #0]
        tickstart = HAL_GetTick();
 c004352:	4605      	mov	r5, r0
        while (READ_BIT(RCC->CR, RCC_CR_PLLRDY) != 0U)
 c004354:	0199      	lsls	r1, r3, #6
 c004356:	d511      	bpl.n	c00437c <HAL_RCC_OscConfig+0x2bc>
 c004358:	e004      	b.n	c004364 <HAL_RCC_OscConfig+0x2a4>
 c00435a:	bf00      	nop
 c00435c:	50021000 	.word	0x50021000
 c004360:	50007000 	.word	0x50007000
          if ((HAL_GetTick() - tickstart) > PLL_TIMEOUT_VALUE)
 c004364:	f7ff faac 	bl	c0038c0 <HAL_GetTick>
 c004368:	1b40      	subs	r0, r0, r5
 c00436a:	2802      	cmp	r0, #2
 c00436c:	d903      	bls.n	c004376 <HAL_RCC_OscConfig+0x2b6>
            if (READ_BIT(RCC->CR, RCC_CR_PLLRDY) != 0U)
 c00436e:	6823      	ldr	r3, [r4, #0]
 c004370:	019a      	lsls	r2, r3, #6
 c004372:	f100 80d3 	bmi.w	c00451c <HAL_RCC_OscConfig+0x45c>
        while (READ_BIT(RCC->CR, RCC_CR_PLLRDY) != 0U)
 c004376:	6823      	ldr	r3, [r4, #0]
 c004378:	019b      	lsls	r3, r3, #6
 c00437a:	d4f3      	bmi.n	c004364 <HAL_RCC_OscConfig+0x2a4>
  return HAL_OK;
 c00437c:	2000      	movs	r0, #0
}
 c00437e:	b002      	add	sp, #8
 c004380:	e8bd 81f0 	ldmia.w	sp!, {r4, r5, r6, r7, r8, pc}
    if ((sysclk_source == RCC_SYSCLKSOURCE_STATUS_HSI) ||
 c004384:	2d04      	cmp	r5, #4
 c004386:	d078      	beq.n	c00447a <HAL_RCC_OscConfig+0x3ba>
 c004388:	2d0c      	cmp	r5, #12
 c00438a:	d074      	beq.n	c004476 <HAL_RCC_OscConfig+0x3b6>
      if (RCC_OscInitStruct->HSIState != RCC_HSI_OFF)
 c00438c:	68e3      	ldr	r3, [r4, #12]
        __HAL_RCC_HSI_ENABLE();
 c00438e:	4d99      	ldr	r5, [pc, #612]	@ (c0045f4 <HAL_RCC_OscConfig+0x534>)
      if (RCC_OscInitStruct->HSIState != RCC_HSI_OFF)
 c004390:	2b00      	cmp	r3, #0
 c004392:	f000 8137 	beq.w	c004604 <HAL_RCC_OscConfig+0x544>
        __HAL_RCC_HSI_ENABLE();
 c004396:	682b      	ldr	r3, [r5, #0]
 c004398:	f443 7380 	orr.w	r3, r3, #256	@ 0x100
 c00439c:	602b      	str	r3, [r5, #0]
        tickstart = HAL_GetTick();
 c00439e:	f7ff fa8f 	bl	c0038c0 <HAL_GetTick>
        while (READ_BIT(RCC->CR, RCC_CR_HSIRDY) == 0U)
 c0043a2:	682b      	ldr	r3, [r5, #0]
        tickstart = HAL_GetTick();
 c0043a4:	4606      	mov	r6, r0
        while (READ_BIT(RCC->CR, RCC_CR_HSIRDY) == 0U)
 c0043a6:	055f      	lsls	r7, r3, #21
 c0043a8:	d40b      	bmi.n	c0043c2 <HAL_RCC_OscConfig+0x302>
          if ((HAL_GetTick() - tickstart) > HSI_TIMEOUT_VALUE)
 c0043aa:	f7ff fa89 	bl	c0038c0 <HAL_GetTick>
 c0043ae:	1b80      	subs	r0, r0, r6
 c0043b0:	2802      	cmp	r0, #2
 c0043b2:	d903      	bls.n	c0043bc <HAL_RCC_OscConfig+0x2fc>
            if (READ_BIT(RCC->CR, RCC_CR_HSIRDY) == 0U)
 c0043b4:	682b      	ldr	r3, [r5, #0]
 c0043b6:	0559      	lsls	r1, r3, #21
 c0043b8:	f140 80b0 	bpl.w	c00451c <HAL_RCC_OscConfig+0x45c>
        while (READ_BIT(RCC->CR, RCC_CR_HSIRDY) == 0U)
 c0043bc:	682b      	ldr	r3, [r5, #0]
 c0043be:	055a      	lsls	r2, r3, #21
 c0043c0:	d5f3      	bpl.n	c0043aa <HAL_RCC_OscConfig+0x2ea>
        __HAL_RCC_HSI_CALIBRATIONVALUE_ADJUST(RCC_OscInitStruct->HSICalibrationValue);
 c0043c2:	4a8c      	ldr	r2, [pc, #560]	@ (c0045f4 <HAL_RCC_OscConfig+0x534>)
 c0043c4:	6921      	ldr	r1, [r4, #16]
 c0043c6:	6853      	ldr	r3, [r2, #4]
 c0043c8:	f023 43fe 	bic.w	r3, r3, #2130706432	@ 0x7f000000
 c0043cc:	ea43 6301 	orr.w	r3, r3, r1, lsl #24
 c0043d0:	6053      	str	r3, [r2, #4]
  if (((RCC_OscInitStruct->OscillatorType) & RCC_OSCILLATORTYPE_LSI) == RCC_OSCILLATORTYPE_LSI)
 c0043d2:	6823      	ldr	r3, [r4, #0]
 c0043d4:	e6ee      	b.n	c0041b4 <HAL_RCC_OscConfig+0xf4>
        ((sysclk_source == RCC_SYSCLKSOURCE_STATUS_PLLCLK) && (pll_config == RCC_PLLSOURCE_MSI)))
 c0043d6:	2e01      	cmp	r6, #1
 c0043d8:	f47f ae89 	bne.w	c0040ee <HAL_RCC_OscConfig+0x2e>
      if ((READ_BIT(RCC->CR, RCC_CR_MSIRDY) != 0U) && (RCC_OscInitStruct->MSIState == RCC_MSI_OFF))
 c0043dc:	4b85      	ldr	r3, [pc, #532]	@ (c0045f4 <HAL_RCC_OscConfig+0x534>)
 c0043de:	681b      	ldr	r3, [r3, #0]
 c0043e0:	0798      	lsls	r0, r3, #30
 c0043e2:	d438      	bmi.n	c004456 <HAL_RCC_OscConfig+0x396>
        if (RCC_OscInitStruct->MSIClockRange > __HAL_RCC_GET_MSI_RANGE())
 c0043e4:	4b83      	ldr	r3, [pc, #524]	@ (c0045f4 <HAL_RCC_OscConfig+0x534>)
 c0043e6:	6a60      	ldr	r0, [r4, #36]	@ 0x24
 c0043e8:	681a      	ldr	r2, [r3, #0]
 c0043ea:	0711      	lsls	r1, r2, #28
 c0043ec:	bf56      	itet	pl
 c0043ee:	f8d3 3094 	ldrpl.w	r3, [r3, #148]	@ 0x94
 c0043f2:	681b      	ldrmi	r3, [r3, #0]
 c0043f4:	091b      	lsrpl	r3, r3, #4
 c0043f6:	f003 03f0 	and.w	r3, r3, #240	@ 0xf0
 c0043fa:	4298      	cmp	r0, r3
 c0043fc:	f200 8151 	bhi.w	c0046a2 <HAL_RCC_OscConfig+0x5e2>
          __HAL_RCC_MSI_RANGE_CONFIG(RCC_OscInitStruct->MSIClockRange);
 c004400:	4b7c      	ldr	r3, [pc, #496]	@ (c0045f4 <HAL_RCC_OscConfig+0x534>)
 c004402:	681a      	ldr	r2, [r3, #0]
 c004404:	f042 0208 	orr.w	r2, r2, #8
 c004408:	601a      	str	r2, [r3, #0]
 c00440a:	681a      	ldr	r2, [r3, #0]
 c00440c:	f022 02f0 	bic.w	r2, r2, #240	@ 0xf0
 c004410:	4302      	orrs	r2, r0
 c004412:	601a      	str	r2, [r3, #0]
          __HAL_RCC_MSI_CALIBRATIONVALUE_ADJUST(RCC_OscInitStruct->MSICalibrationValue);
 c004414:	685a      	ldr	r2, [r3, #4]
 c004416:	6a21      	ldr	r1, [r4, #32]
 c004418:	f422 427f 	bic.w	r2, r2, #65280	@ 0xff00
 c00441c:	ea42 2201 	orr.w	r2, r2, r1, lsl #8
 c004420:	605a      	str	r2, [r3, #4]
          if (sysclk_source == RCC_SYSCLKSOURCE_STATUS_MSI)
 c004422:	2d00      	cmp	r5, #0
 c004424:	f000 81b3 	beq.w	c00478e <HAL_RCC_OscConfig+0x6ce>
  return (HAL_RCC_GetSysClockFreq() >> AHBPrescTable[(RCC->CFGR & RCC_CFGR_HPRE) >> RCC_CFGR_HPRE_Pos]);
 c004428:	f7ff fdf2 	bl	c004010 <HAL_RCC_GetSysClockFreq>
 c00442c:	4603      	mov	r3, r0
 c00442e:	4a71      	ldr	r2, [pc, #452]	@ (c0045f4 <HAL_RCC_OscConfig+0x534>)
 c004430:	4971      	ldr	r1, [pc, #452]	@ (c0045f8 <HAL_RCC_OscConfig+0x538>)
 c004432:	6892      	ldr	r2, [r2, #8]
 c004434:	f3c2 1203 	ubfx	r2, r2, #4, #4
 c004438:	5c89      	ldrb	r1, [r1, r2]
        status = HAL_InitTick(uwTickPrio);
 c00443a:	4a70      	ldr	r2, [pc, #448]	@ (c0045fc <HAL_RCC_OscConfig+0x53c>)
  return (HAL_RCC_GetSysClockFreq() >> AHBPrescTable[(RCC->CFGR & RCC_CFGR_HPRE) >> RCC_CFGR_HPRE_Pos]);
 c00443c:	40cb      	lsrs	r3, r1
        status = HAL_InitTick(uwTickPrio);
 c00443e:	6810      	ldr	r0, [r2, #0]
        SystemCoreClock = HAL_RCC_GetHCLKFreq();
 c004440:	4a6f      	ldr	r2, [pc, #444]	@ (c004600 <HAL_RCC_OscConfig+0x540>)
 c004442:	6013      	str	r3, [r2, #0]
        status = HAL_InitTick(uwTickPrio);
 c004444:	f7ff f9f8 	bl	c003838 <HAL_InitTick>
        if (status != HAL_OK)
 c004448:	2800      	cmp	r0, #0
 c00444a:	d198      	bne.n	c00437e <HAL_RCC_OscConfig+0x2be>
  if (((RCC_OscInitStruct->OscillatorType) & RCC_OSCILLATORTYPE_HSE) == RCC_OSCILLATORTYPE_HSE)
 c00444c:	6823      	ldr	r3, [r4, #0]
 c00444e:	07da      	lsls	r2, r3, #31
 c004450:	f57f aead 	bpl.w	c0041ae <HAL_RCC_OscConfig+0xee>
 c004454:	e67c      	b.n	c004150 <HAL_RCC_OscConfig+0x90>
      if ((READ_BIT(RCC->CR, RCC_CR_MSIRDY) != 0U) && (RCC_OscInitStruct->MSIState == RCC_MSI_OFF))
 c004456:	69e3      	ldr	r3, [r4, #28]
 c004458:	2b00      	cmp	r3, #0
 c00445a:	d1c3      	bne.n	c0043e4 <HAL_RCC_OscConfig+0x324>
    return HAL_ERROR;
 c00445c:	2001      	movs	r0, #1
 c00445e:	e78e      	b.n	c00437e <HAL_RCC_OscConfig+0x2be>
      __HAL_RCC_PWR_CLK_ENABLE();
 c004460:	6d9a      	ldr	r2, [r3, #88]	@ 0x58
      pwrclkchanged = SET;
 c004462:	2501      	movs	r5, #1
      __HAL_RCC_PWR_CLK_ENABLE();
 c004464:	f042 5280 	orr.w	r2, r2, #268435456	@ 0x10000000
 c004468:	659a      	str	r2, [r3, #88]	@ 0x58
 c00446a:	6d9b      	ldr	r3, [r3, #88]	@ 0x58
 c00446c:	f003 5380 	and.w	r3, r3, #268435456	@ 0x10000000
 c004470:	9301      	str	r3, [sp, #4]
 c004472:	9b01      	ldr	r3, [sp, #4]
      pwrclkchanged = SET;
 c004474:	e6d4      	b.n	c004220 <HAL_RCC_OscConfig+0x160>
        ((sysclk_source == RCC_SYSCLKSOURCE_STATUS_PLLCLK) && (pll_config == RCC_PLLSOURCE_HSI)))
 c004476:	2e02      	cmp	r6, #2
 c004478:	d188      	bne.n	c00438c <HAL_RCC_OscConfig+0x2cc>
      if ((READ_BIT(RCC->CR, RCC_CR_HSIRDY) != 0U) && (RCC_OscInitStruct->HSIState == RCC_HSI_OFF))
 c00447a:	4a5e      	ldr	r2, [pc, #376]	@ (c0045f4 <HAL_RCC_OscConfig+0x534>)
 c00447c:	6812      	ldr	r2, [r2, #0]
 c00447e:	0552      	lsls	r2, r2, #21
 c004480:	d502      	bpl.n	c004488 <HAL_RCC_OscConfig+0x3c8>
 c004482:	68e2      	ldr	r2, [r4, #12]
 c004484:	2a00      	cmp	r2, #0
 c004486:	d0e9      	beq.n	c00445c <HAL_RCC_OscConfig+0x39c>
        __HAL_RCC_HSI_CALIBRATIONVALUE_ADJUST(RCC_OscInitStruct->HSICalibrationValue);
 c004488:	495a      	ldr	r1, [pc, #360]	@ (c0045f4 <HAL_RCC_OscConfig+0x534>)
 c00448a:	6920      	ldr	r0, [r4, #16]
 c00448c:	684a      	ldr	r2, [r1, #4]
 c00448e:	f022 42fe 	bic.w	r2, r2, #2130706432	@ 0x7f000000
 c004492:	ea42 6200 	orr.w	r2, r2, r0, lsl #24
 c004496:	604a      	str	r2, [r1, #4]
      if ((READ_BIT(RCC->CR, RCC_CR_HSIRDY) != 0U) && (RCC_OscInitStruct->HSIState == RCC_HSI_OFF))
 c004498:	e68c      	b.n	c0041b4 <HAL_RCC_OscConfig+0xf4>
      __HAL_RCC_LSI_DISABLE();
 c00449a:	4d56      	ldr	r5, [pc, #344]	@ (c0045f4 <HAL_RCC_OscConfig+0x534>)
 c00449c:	f8d5 3094 	ldr.w	r3, [r5, #148]	@ 0x94
 c0044a0:	f023 0301 	bic.w	r3, r3, #1
 c0044a4:	f8c5 3094 	str.w	r3, [r5, #148]	@ 0x94
      tickstart = HAL_GetTick();
 c0044a8:	f7ff fa0a 	bl	c0038c0 <HAL_GetTick>
      while (READ_BIT(RCC->CSR, RCC_CSR_LSIRDY) != 0U)
 c0044ac:	f8d5 3094 	ldr.w	r3, [r5, #148]	@ 0x94
      tickstart = HAL_GetTick();
 c0044b0:	4606      	mov	r6, r0
      while (READ_BIT(RCC->CSR, RCC_CSR_LSIRDY) != 0U)
 c0044b2:	079a      	lsls	r2, r3, #30
 c0044b4:	f57f aeab 	bpl.w	c00420e <HAL_RCC_OscConfig+0x14e>
        if ((HAL_GetTick() - tickstart) > LSI_TIMEOUT_VALUE)
 c0044b8:	f7ff fa02 	bl	c0038c0 <HAL_GetTick>
 c0044bc:	1b80      	subs	r0, r0, r6
 c0044be:	2807      	cmp	r0, #7
 c0044c0:	d903      	bls.n	c0044ca <HAL_RCC_OscConfig+0x40a>
          if (READ_BIT(RCC->CSR, RCC_CSR_LSIRDY) != 0U)
 c0044c2:	f8d5 3094 	ldr.w	r3, [r5, #148]	@ 0x94
 c0044c6:	079b      	lsls	r3, r3, #30
 c0044c8:	d428      	bmi.n	c00451c <HAL_RCC_OscConfig+0x45c>
      while (READ_BIT(RCC->CSR, RCC_CSR_LSIRDY) != 0U)
 c0044ca:	f8d5 3094 	ldr.w	r3, [r5, #148]	@ 0x94
 c0044ce:	079f      	lsls	r7, r3, #30
 c0044d0:	d4f2      	bmi.n	c0044b8 <HAL_RCC_OscConfig+0x3f8>
 c0044d2:	e69c      	b.n	c00420e <HAL_RCC_OscConfig+0x14e>
        ((sysclk_source == RCC_SYSCLKSOURCE_STATUS_PLLCLK) && (pll_config == RCC_PLLSOURCE_HSE)))
 c0044d4:	2e03      	cmp	r6, #3
 c0044d6:	f47f ae41 	bne.w	c00415c <HAL_RCC_OscConfig+0x9c>
      if ((READ_BIT(RCC->CR, RCC_CR_HSERDY) != 0U) && (RCC_OscInitStruct->HSEState == RCC_HSE_OFF))
 c0044da:	4a46      	ldr	r2, [pc, #280]	@ (c0045f4 <HAL_RCC_OscConfig+0x534>)
 c0044dc:	6812      	ldr	r2, [r2, #0]
 c0044de:	0397      	lsls	r7, r2, #14
 c0044e0:	f57f ae65 	bpl.w	c0041ae <HAL_RCC_OscConfig+0xee>
 c0044e4:	6862      	ldr	r2, [r4, #4]
 c0044e6:	2a00      	cmp	r2, #0
 c0044e8:	f47f ae61 	bne.w	c0041ae <HAL_RCC_OscConfig+0xee>
 c0044ec:	e7b6      	b.n	c00445c <HAL_RCC_OscConfig+0x39c>
        __HAL_RCC_MSI_DISABLE();
 c0044ee:	683b      	ldr	r3, [r7, #0]
 c0044f0:	f023 0301 	bic.w	r3, r3, #1
 c0044f4:	603b      	str	r3, [r7, #0]
        tickstart = HAL_GetTick();
 c0044f6:	f7ff f9e3 	bl	c0038c0 <HAL_GetTick>
        while (READ_BIT(RCC->CR, RCC_CR_MSIRDY) != 0U)
 c0044fa:	683b      	ldr	r3, [r7, #0]
        tickstart = HAL_GetTick();
 c0044fc:	4680      	mov	r8, r0
        while (READ_BIT(RCC->CR, RCC_CR_MSIRDY) != 0U)
 c0044fe:	079a      	lsls	r2, r3, #30
 c004500:	d403      	bmi.n	c00450a <HAL_RCC_OscConfig+0x44a>
 c004502:	e7a3      	b.n	c00444c <HAL_RCC_OscConfig+0x38c>
 c004504:	683b      	ldr	r3, [r7, #0]
 c004506:	0799      	lsls	r1, r3, #30
 c004508:	d5a0      	bpl.n	c00444c <HAL_RCC_OscConfig+0x38c>
          if ((HAL_GetTick() - tickstart) > MSI_TIMEOUT_VALUE)
 c00450a:	f7ff f9d9 	bl	c0038c0 <HAL_GetTick>
 c00450e:	eba0 0008 	sub.w	r0, r0, r8
 c004512:	2802      	cmp	r0, #2
 c004514:	d9f6      	bls.n	c004504 <HAL_RCC_OscConfig+0x444>
            if (READ_BIT(RCC->CR, RCC_CR_MSIRDY) != 0U)
 c004516:	683b      	ldr	r3, [r7, #0]
 c004518:	079b      	lsls	r3, r3, #30
 c00451a:	d5f3      	bpl.n	c004504 <HAL_RCC_OscConfig+0x444>
              return HAL_TIMEOUT;
 c00451c:	2003      	movs	r0, #3
}
 c00451e:	b002      	add	sp, #8
 c004520:	e8bd 81f0 	ldmia.w	sp!, {r4, r5, r6, r7, r8, pc}
      __HAL_RCC_HSE_CONFIG(RCC_OscInitStruct->HSEState);
 c004524:	4a33      	ldr	r2, [pc, #204]	@ (c0045f4 <HAL_RCC_OscConfig+0x534>)
 c004526:	6813      	ldr	r3, [r2, #0]
 c004528:	f443 3380 	orr.w	r3, r3, #65536	@ 0x10000
 c00452c:	6013      	str	r3, [r2, #0]
        tickstart = HAL_GetTick();
 c00452e:	f7ff f9c7 	bl	c0038c0 <HAL_GetTick>
        while (READ_BIT(RCC->CR, RCC_CR_HSERDY) == 0U)
 c004532:	4f30      	ldr	r7, [pc, #192]	@ (c0045f4 <HAL_RCC_OscConfig+0x534>)
        tickstart = HAL_GetTick();
 c004534:	4680      	mov	r8, r0
        while (READ_BIT(RCC->CR, RCC_CR_HSERDY) == 0U)
 c004536:	683b      	ldr	r3, [r7, #0]
 c004538:	0399      	lsls	r1, r3, #14
 c00453a:	f53f ae37 	bmi.w	c0041ac <HAL_RCC_OscConfig+0xec>
          if ((HAL_GetTick() - tickstart) > HSE_TIMEOUT_VALUE)
 c00453e:	f7ff f9bf 	bl	c0038c0 <HAL_GetTick>
 c004542:	eba0 0008 	sub.w	r0, r0, r8
 c004546:	2864      	cmp	r0, #100	@ 0x64
 c004548:	d902      	bls.n	c004550 <HAL_RCC_OscConfig+0x490>
            if (READ_BIT(RCC->CR, RCC_CR_HSERDY) == 0U)
 c00454a:	683b      	ldr	r3, [r7, #0]
 c00454c:	039a      	lsls	r2, r3, #14
 c00454e:	d5e5      	bpl.n	c00451c <HAL_RCC_OscConfig+0x45c>
        while (READ_BIT(RCC->CR, RCC_CR_HSERDY) == 0U)
 c004550:	683b      	ldr	r3, [r7, #0]
 c004552:	039b      	lsls	r3, r3, #14
 c004554:	d5f3      	bpl.n	c00453e <HAL_RCC_OscConfig+0x47e>
 c004556:	e629      	b.n	c0041ac <HAL_RCC_OscConfig+0xec>
      CLEAR_BIT(RCC->BDCR, RCC_BDCR_LSEON);
 c004558:	4e26      	ldr	r6, [pc, #152]	@ (c0045f4 <HAL_RCC_OscConfig+0x534>)
 c00455a:	f8d6 2090 	ldr.w	r2, [r6, #144]	@ 0x90
 c00455e:	f022 0201 	bic.w	r2, r2, #1
 c004562:	f8c6 2090 	str.w	r2, [r6, #144]	@ 0x90
      CLEAR_BIT(RCC->BDCR, RCC_BDCR_LSEBYP);
 c004566:	f8d6 2090 	ldr.w	r2, [r6, #144]	@ 0x90
 c00456a:	f022 0204 	bic.w	r2, r2, #4
 c00456e:	f8c6 2090 	str.w	r2, [r6, #144]	@ 0x90
    if (RCC_OscInitStruct->LSEState != RCC_LSE_OFF)
 c004572:	2b00      	cmp	r3, #0
 c004574:	f47f ae6d 	bne.w	c004252 <HAL_RCC_OscConfig+0x192>
      tickstart = HAL_GetTick();
 c004578:	f7ff f9a2 	bl	c0038c0 <HAL_GetTick>
      while (READ_BIT(RCC->BDCR, RCC_BDCR_LSERDY) != 0U)
 c00457c:	f8d6 3090 	ldr.w	r3, [r6, #144]	@ 0x90
      tickstart = HAL_GetTick();
 c004580:	4607      	mov	r7, r0
      while (READ_BIT(RCC->BDCR, RCC_BDCR_LSERDY) != 0U)
 c004582:	0799      	lsls	r1, r3, #30
 c004584:	d50e      	bpl.n	c0045a4 <HAL_RCC_OscConfig+0x4e4>
        if ((HAL_GetTick() - tickstart) > RCC_LSE_TIMEOUT_VALUE)
 c004586:	f241 3888 	movw	r8, #5000	@ 0x1388
 c00458a:	f7ff f999 	bl	c0038c0 <HAL_GetTick>
 c00458e:	1bc0      	subs	r0, r0, r7
 c004590:	4540      	cmp	r0, r8
 c004592:	d903      	bls.n	c00459c <HAL_RCC_OscConfig+0x4dc>
          if (READ_BIT(RCC->BDCR, RCC_BDCR_LSERDY) != 0U)
 c004594:	f8d6 3090 	ldr.w	r3, [r6, #144]	@ 0x90
 c004598:	079b      	lsls	r3, r3, #30
 c00459a:	d4bf      	bmi.n	c00451c <HAL_RCC_OscConfig+0x45c>
      while (READ_BIT(RCC->BDCR, RCC_BDCR_LSERDY) != 0U)
 c00459c:	f8d6 3090 	ldr.w	r3, [r6, #144]	@ 0x90
 c0045a0:	0799      	lsls	r1, r3, #30
 c0045a2:	d4f2      	bmi.n	c00458a <HAL_RCC_OscConfig+0x4ca>
      if (READ_BIT(RCC->BDCR, RCC_BDCR_LSESYSEN) != 0U)
 c0045a4:	4e13      	ldr	r6, [pc, #76]	@ (c0045f4 <HAL_RCC_OscConfig+0x534>)
 c0045a6:	f8d6 3090 	ldr.w	r3, [r6, #144]	@ 0x90
 c0045aa:	061a      	lsls	r2, r3, #24
 c0045ac:	f57f ae88 	bpl.w	c0042c0 <HAL_RCC_OscConfig+0x200>
        CLEAR_BIT(RCC->BDCR, RCC_BDCR_LSESYSEN);
 c0045b0:	f8d6 3090 	ldr.w	r3, [r6, #144]	@ 0x90
 c0045b4:	f023 0380 	bic.w	r3, r3, #128	@ 0x80
 c0045b8:	f8c6 3090 	str.w	r3, [r6, #144]	@ 0x90
        while (READ_BIT(RCC->BDCR, RCC_BDCR_LSESYSRDY) != 0U)
 c0045bc:	f8d6 3090 	ldr.w	r3, [r6, #144]	@ 0x90
 c0045c0:	051a      	lsls	r2, r3, #20
 c0045c2:	f57f ae7d 	bpl.w	c0042c0 <HAL_RCC_OscConfig+0x200>
          if ((HAL_GetTick() - tickstart) > RCC_LSE_TIMEOUT_VALUE)
 c0045c6:	f241 3888 	movw	r8, #5000	@ 0x1388
 c0045ca:	f7ff f979 	bl	c0038c0 <HAL_GetTick>
 c0045ce:	1bc0      	subs	r0, r0, r7
 c0045d0:	4540      	cmp	r0, r8
 c0045d2:	d903      	bls.n	c0045dc <HAL_RCC_OscConfig+0x51c>
            if (READ_BIT(RCC->BDCR, RCC_BDCR_LSESYSRDY) != 0U)
 c0045d4:	f8d6 3090 	ldr.w	r3, [r6, #144]	@ 0x90
 c0045d8:	051b      	lsls	r3, r3, #20
 c0045da:	d49f      	bmi.n	c00451c <HAL_RCC_OscConfig+0x45c>
        while (READ_BIT(RCC->BDCR, RCC_BDCR_LSESYSRDY) != 0U)
 c0045dc:	f8d6 3090 	ldr.w	r3, [r6, #144]	@ 0x90
 c0045e0:	0519      	lsls	r1, r3, #20
 c0045e2:	d4f2      	bmi.n	c0045ca <HAL_RCC_OscConfig+0x50a>
 c0045e4:	e66c      	b.n	c0042c0 <HAL_RCC_OscConfig+0x200>
        SET_BIT(RCC->CSR, RCC_CSR_LSIPRE);
 c0045e6:	f8d2 3094 	ldr.w	r3, [r2, #148]	@ 0x94
 c0045ea:	f043 0310 	orr.w	r3, r3, #16
 c0045ee:	f8c2 3094 	str.w	r3, [r2, #148]	@ 0x94
 c0045f2:	e5f0      	b.n	c0041d6 <HAL_RCC_OscConfig+0x116>
 c0045f4:	50021000 	.word	0x50021000
 c0045f8:	0c006490 	.word	0x0c006490
 c0045fc:	300000ac 	.word	0x300000ac
 c004600:	300000a4 	.word	0x300000a4
        __HAL_RCC_HSI_DISABLE();
 c004604:	682b      	ldr	r3, [r5, #0]
 c004606:	f423 7380 	bic.w	r3, r3, #256	@ 0x100
 c00460a:	602b      	str	r3, [r5, #0]
        tickstart = HAL_GetTick();
 c00460c:	f7ff f958 	bl	c0038c0 <HAL_GetTick>
        while (READ_BIT(RCC->CR, RCC_CR_HSIRDY) != 0U)
 c004610:	682b      	ldr	r3, [r5, #0]
        tickstart = HAL_GetTick();
 c004612:	4606      	mov	r6, r0
        while (READ_BIT(RCC->CR, RCC_CR_HSIRDY) != 0U)
 c004614:	055b      	lsls	r3, r3, #21
 c004616:	d50b      	bpl.n	c004630 <HAL_RCC_OscConfig+0x570>
          if ((HAL_GetTick() - tickstart) > HSI_TIMEOUT_VALUE)
 c004618:	f7ff f952 	bl	c0038c0 <HAL_GetTick>
 c00461c:	1b80      	subs	r0, r0, r6
 c00461e:	2802      	cmp	r0, #2
 c004620:	d903      	bls.n	c00462a <HAL_RCC_OscConfig+0x56a>
            if (READ_BIT(RCC->CR, RCC_CR_HSIRDY) != 0U)
 c004622:	682b      	ldr	r3, [r5, #0]
 c004624:	055f      	lsls	r7, r3, #21
 c004626:	f53f af79 	bmi.w	c00451c <HAL_RCC_OscConfig+0x45c>
        while (READ_BIT(RCC->CR, RCC_CR_HSIRDY) != 0U)
 c00462a:	682b      	ldr	r3, [r5, #0]
 c00462c:	0559      	lsls	r1, r3, #21
 c00462e:	d4f3      	bmi.n	c004618 <HAL_RCC_OscConfig+0x558>
  if (((RCC_OscInitStruct->OscillatorType) & RCC_OSCILLATORTYPE_LSI) == RCC_OSCILLATORTYPE_LSI)
 c004630:	6823      	ldr	r3, [r4, #0]
 c004632:	e5bf      	b.n	c0041b4 <HAL_RCC_OscConfig+0xf4>
      __HAL_RCC_HSI48_DISABLE();
 c004634:	f8d5 3098 	ldr.w	r3, [r5, #152]	@ 0x98
 c004638:	f023 0301 	bic.w	r3, r3, #1
 c00463c:	f8c5 3098 	str.w	r3, [r5, #152]	@ 0x98
      tickstart = HAL_GetTick();
 c004640:	f7ff f93e 	bl	c0038c0 <HAL_GetTick>
      while (READ_BIT(RCC->CRRCR, RCC_CRRCR_HSI48RDY) != 0U)
 c004644:	f8d5 3098 	ldr.w	r3, [r5, #152]	@ 0x98
      tickstart = HAL_GetTick();
 c004648:	4606      	mov	r6, r0
      while (READ_BIT(RCC->CRRCR, RCC_CRRCR_HSI48RDY) != 0U)
 c00464a:	079a      	lsls	r2, r3, #30
 c00464c:	f57f ae61 	bpl.w	c004312 <HAL_RCC_OscConfig+0x252>
        if ((HAL_GetTick() - tickstart) > HSI48_TIMEOUT_VALUE)
 c004650:	f7ff f936 	bl	c0038c0 <HAL_GetTick>
 c004654:	1b80      	subs	r0, r0, r6
 c004656:	2802      	cmp	r0, #2
 c004658:	d904      	bls.n	c004664 <HAL_RCC_OscConfig+0x5a4>
          if (READ_BIT(RCC->CRRCR, RCC_CRRCR_HSI48RDY) != 0U)
 c00465a:	f8d5 3098 	ldr.w	r3, [r5, #152]	@ 0x98
 c00465e:	079b      	lsls	r3, r3, #30
 c004660:	f53f af5c 	bmi.w	c00451c <HAL_RCC_OscConfig+0x45c>
      while (READ_BIT(RCC->CRRCR, RCC_CRRCR_HSI48RDY) != 0U)
 c004664:	f8d5 3098 	ldr.w	r3, [r5, #152]	@ 0x98
 c004668:	079f      	lsls	r7, r3, #30
 c00466a:	d4f1      	bmi.n	c004650 <HAL_RCC_OscConfig+0x590>
 c00466c:	e651      	b.n	c004312 <HAL_RCC_OscConfig+0x252>
      SET_BIT(PWR->CR1, PWR_CR1_DBP);
 c00466e:	6833      	ldr	r3, [r6, #0]
 c004670:	f443 7380 	orr.w	r3, r3, #256	@ 0x100
 c004674:	6033      	str	r3, [r6, #0]
      tickstart = HAL_GetTick();
 c004676:	f7ff f923 	bl	c0038c0 <HAL_GetTick>
      while (HAL_IS_BIT_CLR(PWR->CR1, PWR_CR1_DBP))
 c00467a:	6833      	ldr	r3, [r6, #0]
      tickstart = HAL_GetTick();
 c00467c:	4607      	mov	r7, r0
      while (HAL_IS_BIT_CLR(PWR->CR1, PWR_CR1_DBP))
 c00467e:	05db      	lsls	r3, r3, #23
 c004680:	f53f add3 	bmi.w	c00422a <HAL_RCC_OscConfig+0x16a>
 c004684:	e003      	b.n	c00468e <HAL_RCC_OscConfig+0x5ce>
 c004686:	6833      	ldr	r3, [r6, #0]
 c004688:	05d9      	lsls	r1, r3, #23
 c00468a:	f53f adce 	bmi.w	c00422a <HAL_RCC_OscConfig+0x16a>
        if ((HAL_GetTick() - tickstart) > RCC_DBP_TIMEOUT_VALUE)
 c00468e:	f7ff f917 	bl	c0038c0 <HAL_GetTick>
 c004692:	1bc0      	subs	r0, r0, r7
 c004694:	2802      	cmp	r0, #2
 c004696:	d9f6      	bls.n	c004686 <HAL_RCC_OscConfig+0x5c6>
          if (HAL_IS_BIT_CLR(PWR->CR1, PWR_CR1_DBP))
 c004698:	6833      	ldr	r3, [r6, #0]
 c00469a:	05d8      	lsls	r0, r3, #23
 c00469c:	f57f af3e 	bpl.w	c00451c <HAL_RCC_OscConfig+0x45c>
 c0046a0:	e7f1      	b.n	c004686 <HAL_RCC_OscConfig+0x5c6>
          if (RCC_SetFlashLatencyFromMSIRange(RCC_OscInitStruct->MSIClockRange) != HAL_OK)
 c0046a2:	f7ff fc73 	bl	c003f8c <RCC_SetFlashLatencyFromMSIRange>
 c0046a6:	2800      	cmp	r0, #0
 c0046a8:	f47f aed8 	bne.w	c00445c <HAL_RCC_OscConfig+0x39c>
          __HAL_RCC_MSI_RANGE_CONFIG(RCC_OscInitStruct->MSIClockRange);
 c0046ac:	4b65      	ldr	r3, [pc, #404]	@ (c004844 <HAL_RCC_OscConfig+0x784>)
 c0046ae:	681a      	ldr	r2, [r3, #0]
 c0046b0:	f042 0208 	orr.w	r2, r2, #8
 c0046b4:	601a      	str	r2, [r3, #0]
 c0046b6:	681a      	ldr	r2, [r3, #0]
 c0046b8:	6a61      	ldr	r1, [r4, #36]	@ 0x24
 c0046ba:	f022 02f0 	bic.w	r2, r2, #240	@ 0xf0
 c0046be:	430a      	orrs	r2, r1
 c0046c0:	601a      	str	r2, [r3, #0]
          __HAL_RCC_MSI_CALIBRATIONVALUE_ADJUST(RCC_OscInitStruct->MSICalibrationValue);
 c0046c2:	685a      	ldr	r2, [r3, #4]
 c0046c4:	6a21      	ldr	r1, [r4, #32]
 c0046c6:	f422 427f 	bic.w	r2, r2, #65280	@ 0xff00
 c0046ca:	ea42 2201 	orr.w	r2, r2, r1, lsl #8
 c0046ce:	605a      	str	r2, [r3, #4]
 c0046d0:	e6aa      	b.n	c004428 <HAL_RCC_OscConfig+0x368>
        SET_BIT(RCC->BDCR, RCC_BDCR_LSEON);
 c0046d2:	4a5c      	ldr	r2, [pc, #368]	@ (c004844 <HAL_RCC_OscConfig+0x784>)
 c0046d4:	f8d2 3090 	ldr.w	r3, [r2, #144]	@ 0x90
 c0046d8:	f043 0301 	orr.w	r3, r3, #1
 c0046dc:	f8c2 3090 	str.w	r3, [r2, #144]	@ 0x90
    if (RCC_OscInitStruct->LSEState != RCC_LSE_OFF)
 c0046e0:	e5b7      	b.n	c004252 <HAL_RCC_OscConfig+0x192>
          MODIFY_REG(RCC->PLLCFGR, RCC_PLLCFGR_PLLSRC, RCC_PLLSOURCE_NONE);
 c0046e2:	68eb      	ldr	r3, [r5, #12]
 c0046e4:	f023 0303 	bic.w	r3, r3, #3
 c0046e8:	60eb      	str	r3, [r5, #12]
 c0046ea:	e628      	b.n	c00433e <HAL_RCC_OscConfig+0x27e>
        CLEAR_BIT(RCC->BDCR, RCC_BDCR_LSESYSEN);
 c0046ec:	4f55      	ldr	r7, [pc, #340]	@ (c004844 <HAL_RCC_OscConfig+0x784>)
 c0046ee:	f8d7 3090 	ldr.w	r3, [r7, #144]	@ 0x90
 c0046f2:	f023 0380 	bic.w	r3, r3, #128	@ 0x80
 c0046f6:	f8c7 3090 	str.w	r3, [r7, #144]	@ 0x90
        while (READ_BIT(RCC->BDCR, RCC_BDCR_LSESYSRDY) != 0U)
 c0046fa:	f8d7 3090 	ldr.w	r3, [r7, #144]	@ 0x90
 c0046fe:	0519      	lsls	r1, r3, #20
 c004700:	f57f adde 	bpl.w	c0042c0 <HAL_RCC_OscConfig+0x200>
          if ((HAL_GetTick() - tickstart) > RCC_LSE_TIMEOUT_VALUE)
 c004704:	f241 3888 	movw	r8, #5000	@ 0x1388
 c004708:	f7ff f8da 	bl	c0038c0 <HAL_GetTick>
 c00470c:	1b80      	subs	r0, r0, r6
 c00470e:	4540      	cmp	r0, r8
 c004710:	d904      	bls.n	c00471c <HAL_RCC_OscConfig+0x65c>
            if (READ_BIT(RCC->BDCR, RCC_BDCR_LSESYSRDY) != 0U)
 c004712:	f8d7 3090 	ldr.w	r3, [r7, #144]	@ 0x90
 c004716:	051a      	lsls	r2, r3, #20
 c004718:	f53f af00 	bmi.w	c00451c <HAL_RCC_OscConfig+0x45c>
        while (READ_BIT(RCC->BDCR, RCC_BDCR_LSESYSRDY) != 0U)
 c00471c:	f8d7 3090 	ldr.w	r3, [r7, #144]	@ 0x90
 c004720:	051b      	lsls	r3, r3, #20
 c004722:	d4f1      	bmi.n	c004708 <HAL_RCC_OscConfig+0x648>
 c004724:	e5cc      	b.n	c0042c0 <HAL_RCC_OscConfig+0x200>
      if (RCC_OscInitStruct->PLL.PLLState == RCC_PLL_OFF)
 c004726:	2b01      	cmp	r3, #1
 c004728:	f43f ae98 	beq.w	c00445c <HAL_RCC_OscConfig+0x39c>
        pll_config = RCC->PLLCFGR;
 c00472c:	68eb      	ldr	r3, [r5, #12]
        if ((READ_BIT(pll_config, RCC_PLLCFGR_PLLSRC)  != RCC_OscInitStruct->PLL.PLLSource) ||
 c00472e:	6b22      	ldr	r2, [r4, #48]	@ 0x30
 c004730:	f003 0103 	and.w	r1, r3, #3
 c004734:	4291      	cmp	r1, r2
 c004736:	f47f ae91 	bne.w	c00445c <HAL_RCC_OscConfig+0x39c>
            (READ_BIT(pll_config, RCC_PLLCFGR_PLLM)    != ((RCC_OscInitStruct->PLL.PLLM - 1U) << RCC_PLLCFGR_PLLM_Pos)) ||
 c00473a:	6b61      	ldr	r1, [r4, #52]	@ 0x34
 c00473c:	f003 02f0 	and.w	r2, r3, #240	@ 0xf0
 c004740:	3901      	subs	r1, #1
        if ((READ_BIT(pll_config, RCC_PLLCFGR_PLLSRC)  != RCC_OscInitStruct->PLL.PLLSource) ||
 c004742:	ebb2 1f01 	cmp.w	r2, r1, lsl #4
 c004746:	f47f ae89 	bne.w	c00445c <HAL_RCC_OscConfig+0x39c>
            (READ_BIT(pll_config, RCC_PLLCFGR_PLLN)    != (RCC_OscInitStruct->PLL.PLLN << RCC_PLLCFGR_PLLN_Pos)) ||
 c00474a:	6ba1      	ldr	r1, [r4, #56]	@ 0x38
 c00474c:	f403 42fe 	and.w	r2, r3, #32512	@ 0x7f00
            (READ_BIT(pll_config, RCC_PLLCFGR_PLLM)    != ((RCC_OscInitStruct->PLL.PLLM - 1U) << RCC_PLLCFGR_PLLM_Pos)) ||
 c004750:	ebb2 2f01 	cmp.w	r2, r1, lsl #8
 c004754:	f47f ae82 	bne.w	c00445c <HAL_RCC_OscConfig+0x39c>
            (READ_BIT(pll_config, RCC_PLLCFGR_PLLPDIV) != (RCC_OscInitStruct->PLL.PLLP << RCC_PLLCFGR_PLLPDIV_Pos)) ||
 c004758:	6be1      	ldr	r1, [r4, #60]	@ 0x3c
 c00475a:	f003 4278 	and.w	r2, r3, #4160749568	@ 0xf8000000
            (READ_BIT(pll_config, RCC_PLLCFGR_PLLN)    != (RCC_OscInitStruct->PLL.PLLN << RCC_PLLCFGR_PLLN_Pos)) ||
 c00475e:	ebb2 6fc1 	cmp.w	r2, r1, lsl #27
 c004762:	f47f ae7b 	bne.w	c00445c <HAL_RCC_OscConfig+0x39c>
            (READ_BIT(pll_config, RCC_PLLCFGR_PLLQ)    != ((((RCC_OscInitStruct->PLL.PLLQ) >> 1U) - 1U) << RCC_PLLCFGR_PLLQ_Pos)) ||
 c004766:	6c22      	ldr	r2, [r4, #64]	@ 0x40
 c004768:	f403 01c0 	and.w	r1, r3, #6291456	@ 0x600000
 c00476c:	0852      	lsrs	r2, r2, #1
 c00476e:	3a01      	subs	r2, #1
            (READ_BIT(pll_config, RCC_PLLCFGR_PLLPDIV) != (RCC_OscInitStruct->PLL.PLLP << RCC_PLLCFGR_PLLPDIV_Pos)) ||
 c004770:	ebb1 5f42 	cmp.w	r1, r2, lsl #21
 c004774:	f47f ae72 	bne.w	c00445c <HAL_RCC_OscConfig+0x39c>
            (READ_BIT(pll_config, RCC_PLLCFGR_PLLR)    != ((((RCC_OscInitStruct->PLL.PLLR) >> 1U) - 1U) << RCC_PLLCFGR_PLLR_Pos)))
 c004778:	6c62      	ldr	r2, [r4, #68]	@ 0x44
 c00477a:	f003 63c0 	and.w	r3, r3, #100663296	@ 0x6000000
 c00477e:	0852      	lsrs	r2, r2, #1
 c004780:	3a01      	subs	r2, #1
            (READ_BIT(pll_config, RCC_PLLCFGR_PLLQ)    != ((((RCC_OscInitStruct->PLL.PLLQ) >> 1U) - 1U) << RCC_PLLCFGR_PLLQ_Pos)) ||
 c004782:	ebb3 6f42 	cmp.w	r3, r2, lsl #25
 c004786:	bf14      	ite	ne
 c004788:	2001      	movne	r0, #1
 c00478a:	2000      	moveq	r0, #0
 c00478c:	e5f7      	b.n	c00437e <HAL_RCC_OscConfig+0x2be>
            if (RCC_SetFlashLatencyFromMSIRange(RCC_OscInitStruct->MSIClockRange) != HAL_OK)
 c00478e:	f7ff fbfd 	bl	c003f8c <RCC_SetFlashLatencyFromMSIRange>
 c004792:	2800      	cmp	r0, #0
 c004794:	f43f ae48 	beq.w	c004428 <HAL_RCC_OscConfig+0x368>
 c004798:	e660      	b.n	c00445c <HAL_RCC_OscConfig+0x39c>
      __HAL_RCC_HSE_CONFIG(RCC_OscInitStruct->HSEState);
 c00479a:	4b2a      	ldr	r3, [pc, #168]	@ (c004844 <HAL_RCC_OscConfig+0x784>)
 c00479c:	681a      	ldr	r2, [r3, #0]
 c00479e:	f442 2280 	orr.w	r2, r2, #262144	@ 0x40000
 c0047a2:	601a      	str	r2, [r3, #0]
 c0047a4:	681a      	ldr	r2, [r3, #0]
 c0047a6:	f442 3280 	orr.w	r2, r2, #65536	@ 0x10000
 c0047aa:	601a      	str	r2, [r3, #0]
      if (RCC_OscInitStruct->HSEState != RCC_HSE_OFF)
 c0047ac:	e6bf      	b.n	c00452e <HAL_RCC_OscConfig+0x46e>
        tickstart = HAL_GetTick();
 c0047ae:	f7ff f887 	bl	c0038c0 <HAL_GetTick>
        while (READ_BIT(RCC->CR, RCC_CR_PLLRDY) != 0U)
 c0047b2:	682b      	ldr	r3, [r5, #0]
        tickstart = HAL_GetTick();
 c0047b4:	4606      	mov	r6, r0
        while (READ_BIT(RCC->CR, RCC_CR_PLLRDY) != 0U)
 c0047b6:	0199      	lsls	r1, r3, #6
 c0047b8:	d50b      	bpl.n	c0047d2 <HAL_RCC_OscConfig+0x712>
          if ((HAL_GetTick() - tickstart) > PLL_TIMEOUT_VALUE)
 c0047ba:	f7ff f881 	bl	c0038c0 <HAL_GetTick>
 c0047be:	1b80      	subs	r0, r0, r6
 c0047c0:	2802      	cmp	r0, #2
 c0047c2:	d903      	bls.n	c0047cc <HAL_RCC_OscConfig+0x70c>
            if (READ_BIT(RCC->CR, RCC_CR_PLLRDY) != 0U)
 c0047c4:	682b      	ldr	r3, [r5, #0]
 c0047c6:	019b      	lsls	r3, r3, #6
 c0047c8:	f53f aea8 	bmi.w	c00451c <HAL_RCC_OscConfig+0x45c>
        while (READ_BIT(RCC->CR, RCC_CR_PLLRDY) != 0U)
 c0047cc:	682b      	ldr	r3, [r5, #0]
 c0047ce:	019f      	lsls	r7, r3, #6
 c0047d0:	d4f3      	bmi.n	c0047ba <HAL_RCC_OscConfig+0x6fa>
        __HAL_RCC_PLL_CONFIG(RCC_OscInitStruct->PLL.PLLSource,
 c0047d2:	4d1c      	ldr	r5, [pc, #112]	@ (c004844 <HAL_RCC_OscConfig+0x784>)
 c0047d4:	4b1c      	ldr	r3, [pc, #112]	@ (c004848 <HAL_RCC_OscConfig+0x788>)
 c0047d6:	68e9      	ldr	r1, [r5, #12]
 c0047d8:	6b22      	ldr	r2, [r4, #48]	@ 0x30
 c0047da:	400b      	ands	r3, r1
 c0047dc:	6b60      	ldr	r0, [r4, #52]	@ 0x34
 c0047de:	4313      	orrs	r3, r2
 c0047e0:	e9d4 120e 	ldrd	r1, r2, [r4, #56]	@ 0x38
 c0047e4:	ea43 2301 	orr.w	r3, r3, r1, lsl #8
 c0047e8:	ea43 63c2 	orr.w	r3, r3, r2, lsl #27
 c0047ec:	3801      	subs	r0, #1
 c0047ee:	e9d4 1210 	ldrd	r1, r2, [r4, #64]	@ 0x40
 c0047f2:	0849      	lsrs	r1, r1, #1
 c0047f4:	ea43 1300 	orr.w	r3, r3, r0, lsl #4
 c0047f8:	3901      	subs	r1, #1
 c0047fa:	0852      	lsrs	r2, r2, #1
 c0047fc:	3a01      	subs	r2, #1
 c0047fe:	ea43 5341 	orr.w	r3, r3, r1, lsl #21
 c004802:	ea43 6342 	orr.w	r3, r3, r2, lsl #25
 c004806:	60eb      	str	r3, [r5, #12]
        __HAL_RCC_PLL_ENABLE();
 c004808:	682b      	ldr	r3, [r5, #0]
 c00480a:	f043 7380 	orr.w	r3, r3, #16777216	@ 0x1000000
 c00480e:	602b      	str	r3, [r5, #0]
        __HAL_RCC_PLLCLKOUT_ENABLE(RCC_PLL_SYSCLK);
 c004810:	68eb      	ldr	r3, [r5, #12]
 c004812:	f043 7380 	orr.w	r3, r3, #16777216	@ 0x1000000
 c004816:	60eb      	str	r3, [r5, #12]
        tickstart = HAL_GetTick();
 c004818:	f7ff f852 	bl	c0038c0 <HAL_GetTick>
        while (READ_BIT(RCC->CR, RCC_CR_PLLRDY) == 0U)
 c00481c:	682b      	ldr	r3, [r5, #0]
        tickstart = HAL_GetTick();
 c00481e:	4604      	mov	r4, r0
        while (READ_BIT(RCC->CR, RCC_CR_PLLRDY) == 0U)
 c004820:	019a      	lsls	r2, r3, #6
 c004822:	f53f adab 	bmi.w	c00437c <HAL_RCC_OscConfig+0x2bc>
          if ((HAL_GetTick() - tickstart) > PLL_TIMEOUT_VALUE)
 c004826:	f7ff f84b 	bl	c0038c0 <HAL_GetTick>
 c00482a:	1b00      	subs	r0, r0, r4
 c00482c:	2802      	cmp	r0, #2
 c00482e:	d903      	bls.n	c004838 <HAL_RCC_OscConfig+0x778>
            if (READ_BIT(RCC->CR, RCC_CR_PLLRDY) == 0U)
 c004830:	682b      	ldr	r3, [r5, #0]
 c004832:	019e      	lsls	r6, r3, #6
 c004834:	f57f ae72 	bpl.w	c00451c <HAL_RCC_OscConfig+0x45c>
        while (READ_BIT(RCC->CR, RCC_CR_PLLRDY) == 0U)
 c004838:	682b      	ldr	r3, [r5, #0]
 c00483a:	0198      	lsls	r0, r3, #6
 c00483c:	d5f3      	bpl.n	c004826 <HAL_RCC_OscConfig+0x766>
 c00483e:	e59d      	b.n	c00437c <HAL_RCC_OscConfig+0x2bc>
    return HAL_ERROR;
 c004840:	2001      	movs	r0, #1
}
 c004842:	4770      	bx	lr
 c004844:	50021000 	.word	0x50021000
 c004848:	019f800c 	.word	0x019f800c

0c00484c <HAL_RCC_ClockConfig>:
  if (RCC_ClkInitStruct == NULL)
 c00484c:	2800      	cmp	r0, #0
 c00484e:	f000 80b9 	beq.w	c0049c4 <HAL_RCC_ClockConfig+0x178>
  if (FLatency > __HAL_FLASH_GET_LATENCY())
 c004852:	4a8a      	ldr	r2, [pc, #552]	@ (c004a7c <HAL_RCC_ClockConfig+0x230>)
{
 c004854:	e92d 43f8 	stmdb	sp!, {r3, r4, r5, r6, r7, r8, r9, lr}
  if (FLatency > __HAL_FLASH_GET_LATENCY())
 c004858:	6813      	ldr	r3, [r2, #0]
 c00485a:	4681      	mov	r9, r0
 c00485c:	f003 030f 	and.w	r3, r3, #15
 c004860:	428b      	cmp	r3, r1
 c004862:	460c      	mov	r4, r1
 c004864:	d20c      	bcs.n	c004880 <HAL_RCC_ClockConfig+0x34>
    __HAL_FLASH_SET_LATENCY(FLatency);
 c004866:	6813      	ldr	r3, [r2, #0]
 c004868:	f023 030f 	bic.w	r3, r3, #15
 c00486c:	430b      	orrs	r3, r1
 c00486e:	6013      	str	r3, [r2, #0]
    if (__HAL_FLASH_GET_LATENCY() != FLatency)
 c004870:	6813      	ldr	r3, [r2, #0]
 c004872:	f003 030f 	and.w	r3, r3, #15
 c004876:	428b      	cmp	r3, r1
 c004878:	d002      	beq.n	c004880 <HAL_RCC_ClockConfig+0x34>
    return HAL_ERROR;
 c00487a:	2001      	movs	r0, #1
}
 c00487c:	e8bd 83f8 	ldmia.w	sp!, {r3, r4, r5, r6, r7, r8, r9, pc}
  if (((RCC_ClkInitStruct->ClockType) & RCC_CLOCKTYPE_SYSCLK) == RCC_CLOCKTYPE_SYSCLK)
 c004880:	f8d9 3000 	ldr.w	r3, [r9]
 c004884:	07de      	lsls	r6, r3, #31
 c004886:	d54a      	bpl.n	c00491e <HAL_RCC_ClockConfig+0xd2>
    if (RCC_ClkInitStruct->SYSCLKSource == RCC_SYSCLKSOURCE_PLLCLK)
 c004888:	f8d9 6004 	ldr.w	r6, [r9, #4]
 c00488c:	2e03      	cmp	r6, #3
 c00488e:	f000 809b 	beq.w	c0049c8 <HAL_RCC_ClockConfig+0x17c>
        if (READ_BIT(RCC->CR, RCC_CR_HSERDY) == 0U)
 c004892:	4b7b      	ldr	r3, [pc, #492]	@ (c004a80 <HAL_RCC_ClockConfig+0x234>)
      if (RCC_ClkInitStruct->SYSCLKSource == RCC_SYSCLKSOURCE_HSE)
 c004894:	2e02      	cmp	r6, #2
        if (READ_BIT(RCC->CR, RCC_CR_HSERDY) == 0U)
 c004896:	681b      	ldr	r3, [r3, #0]
      if (RCC_ClkInitStruct->SYSCLKSource == RCC_SYSCLKSOURCE_HSE)
 c004898:	f000 8083 	beq.w	c0049a2 <HAL_RCC_ClockConfig+0x156>
      else if (RCC_ClkInitStruct->SYSCLKSource == RCC_SYSCLKSOURCE_MSI)
 c00489c:	2e00      	cmp	r6, #0
 c00489e:	f040 80d0 	bne.w	c004a42 <HAL_RCC_ClockConfig+0x1f6>
        if (READ_BIT(RCC->CR, RCC_CR_MSIRDY) == 0U)
 c0048a2:	079d      	lsls	r5, r3, #30
 c0048a4:	d5e9      	bpl.n	c00487a <HAL_RCC_ClockConfig+0x2e>
      pllfreq = HAL_RCC_GetSysClockFreq();
 c0048a6:	f7ff fbb3 	bl	c004010 <HAL_RCC_GetSysClockFreq>
      if (pllfreq > 80000000U)
 c0048aa:	4b76      	ldr	r3, [pc, #472]	@ (c004a84 <HAL_RCC_ClockConfig+0x238>)
 c0048ac:	4298      	cmp	r0, r3
 c0048ae:	f240 80c5 	bls.w	c004a3c <HAL_RCC_ClockConfig+0x1f0>
        MODIFY_REG(RCC->CFGR, RCC_CFGR_HPRE, RCC_SYSCLK_DIV2);
 c0048b2:	4a73      	ldr	r2, [pc, #460]	@ (c004a80 <HAL_RCC_ClockConfig+0x234>)
 c0048b4:	6893      	ldr	r3, [r2, #8]
 c0048b6:	f023 03f0 	bic.w	r3, r3, #240	@ 0xf0
 c0048ba:	f043 0380 	orr.w	r3, r3, #128	@ 0x80
 c0048be:	6093      	str	r3, [r2, #8]
          hpre = RCC_SYSCLK_DIV2;
 c0048c0:	f04f 0880 	mov.w	r8, #128	@ 0x80
    MODIFY_REG(RCC->CFGR, RCC_CFGR_SW, RCC_ClkInitStruct->SYSCLKSource);
 c0048c4:	4d6e      	ldr	r5, [pc, #440]	@ (c004a80 <HAL_RCC_ClockConfig+0x234>)
 c0048c6:	68ab      	ldr	r3, [r5, #8]
 c0048c8:	f023 0303 	bic.w	r3, r3, #3
 c0048cc:	4333      	orrs	r3, r6
 c0048ce:	60ab      	str	r3, [r5, #8]
    tickstart = HAL_GetTick();
 c0048d0:	f7fe fff6 	bl	c0038c0 <HAL_GetTick>
    while (__HAL_RCC_GET_SYSCLK_SOURCE() != (RCC_ClkInitStruct->SYSCLKSource << RCC_CFGR_SWS_Pos))
 c0048d4:	68ab      	ldr	r3, [r5, #8]
 c0048d6:	f8d9 2004 	ldr.w	r2, [r9, #4]
 c0048da:	f003 030c 	and.w	r3, r3, #12
 c0048de:	ebb3 0f82 	cmp.w	r3, r2, lsl #2
    tickstart = HAL_GetTick();
 c0048e2:	4606      	mov	r6, r0
    while (__HAL_RCC_GET_SYSCLK_SOURCE() != (RCC_ClkInitStruct->SYSCLKSource << RCC_CFGR_SWS_Pos))
 c0048e4:	d061      	beq.n	c0049aa <HAL_RCC_ClockConfig+0x15e>
      if ((HAL_GetTick() - tickstart) > CLOCKSWITCH_TIMEOUT_VALUE)
 c0048e6:	f241 3788 	movw	r7, #5000	@ 0x1388
 c0048ea:	e007      	b.n	c0048fc <HAL_RCC_ClockConfig+0xb0>
    while (__HAL_RCC_GET_SYSCLK_SOURCE() != (RCC_ClkInitStruct->SYSCLKSource << RCC_CFGR_SWS_Pos))
 c0048ec:	f8d9 2004 	ldr.w	r2, [r9, #4]
 c0048f0:	0092      	lsls	r2, r2, #2
 c0048f2:	68ab      	ldr	r3, [r5, #8]
 c0048f4:	f003 030c 	and.w	r3, r3, #12
 c0048f8:	4293      	cmp	r3, r2
 c0048fa:	d056      	beq.n	c0049aa <HAL_RCC_ClockConfig+0x15e>
      if ((HAL_GetTick() - tickstart) > CLOCKSWITCH_TIMEOUT_VALUE)
 c0048fc:	f7fe ffe0 	bl	c0038c0 <HAL_GetTick>
 c004900:	1b83      	subs	r3, r0, r6
 c004902:	42bb      	cmp	r3, r7
 c004904:	d9f2      	bls.n	c0048ec <HAL_RCC_ClockConfig+0xa0>
        if (__HAL_RCC_GET_SYSCLK_SOURCE() != (RCC_ClkInitStruct->SYSCLKSource << RCC_CFGR_SWS_Pos))
 c004906:	68ab      	ldr	r3, [r5, #8]
 c004908:	f8d9 1004 	ldr.w	r1, [r9, #4]
 c00490c:	f003 030c 	and.w	r3, r3, #12
 c004910:	ebb3 0f81 	cmp.w	r3, r1, lsl #2
 c004914:	ea4f 0281 	mov.w	r2, r1, lsl #2
 c004918:	d0eb      	beq.n	c0048f2 <HAL_RCC_ClockConfig+0xa6>
          return HAL_TIMEOUT;
 c00491a:	2003      	movs	r0, #3
 c00491c:	e7ae      	b.n	c00487c <HAL_RCC_ClockConfig+0x30>
  if (((RCC_ClkInitStruct->ClockType) & RCC_CLOCKTYPE_HCLK) == RCC_CLOCKTYPE_HCLK)
 c00491e:	079d      	lsls	r5, r3, #30
 c004920:	d436      	bmi.n	c004990 <HAL_RCC_ClockConfig+0x144>
  if (FLatency < __HAL_FLASH_GET_LATENCY())
 c004922:	4956      	ldr	r1, [pc, #344]	@ (c004a7c <HAL_RCC_ClockConfig+0x230>)
 c004924:	680a      	ldr	r2, [r1, #0]
 c004926:	f002 020f 	and.w	r2, r2, #15
 c00492a:	42a2      	cmp	r2, r4
 c00492c:	d909      	bls.n	c004942 <HAL_RCC_ClockConfig+0xf6>
    __HAL_FLASH_SET_LATENCY(FLatency);
 c00492e:	680a      	ldr	r2, [r1, #0]
 c004930:	f022 020f 	bic.w	r2, r2, #15
 c004934:	4322      	orrs	r2, r4
 c004936:	600a      	str	r2, [r1, #0]
    if (__HAL_FLASH_GET_LATENCY() != FLatency)
 c004938:	680a      	ldr	r2, [r1, #0]
 c00493a:	f002 020f 	and.w	r2, r2, #15
 c00493e:	42a2      	cmp	r2, r4
 c004940:	d19b      	bne.n	c00487a <HAL_RCC_ClockConfig+0x2e>
  if (((RCC_ClkInitStruct->ClockType) & RCC_CLOCKTYPE_PCLK1) == RCC_CLOCKTYPE_PCLK1)
 c004942:	075a      	lsls	r2, r3, #29
 c004944:	d507      	bpl.n	c004956 <HAL_RCC_ClockConfig+0x10a>
    MODIFY_REG(RCC->CFGR, RCC_CFGR_PPRE1, RCC_ClkInitStruct->APB1CLKDivider);
 c004946:	494e      	ldr	r1, [pc, #312]	@ (c004a80 <HAL_RCC_ClockConfig+0x234>)
 c004948:	f8d9 000c 	ldr.w	r0, [r9, #12]
 c00494c:	688a      	ldr	r2, [r1, #8]
 c00494e:	f422 62e0 	bic.w	r2, r2, #1792	@ 0x700
 c004952:	4302      	orrs	r2, r0
 c004954:	608a      	str	r2, [r1, #8]
  if (((RCC_ClkInitStruct->ClockType) & RCC_CLOCKTYPE_PCLK2) == RCC_CLOCKTYPE_PCLK2)
 c004956:	071b      	lsls	r3, r3, #28
 c004958:	d508      	bpl.n	c00496c <HAL_RCC_ClockConfig+0x120>
    MODIFY_REG(RCC->CFGR, RCC_CFGR_PPRE2, ((RCC_ClkInitStruct->APB2CLKDivider) << 3U));
 c00495a:	4a49      	ldr	r2, [pc, #292]	@ (c004a80 <HAL_RCC_ClockConfig+0x234>)
 c00495c:	f8d9 1010 	ldr.w	r1, [r9, #16]
 c004960:	6893      	ldr	r3, [r2, #8]
 c004962:	f423 5360 	bic.w	r3, r3, #14336	@ 0x3800
 c004966:	ea43 03c1 	orr.w	r3, r3, r1, lsl #3
 c00496a:	6093      	str	r3, [r2, #8]
  return (HAL_RCC_GetSysClockFreq() >> AHBPrescTable[(RCC->CFGR & RCC_CFGR_HPRE) >> RCC_CFGR_HPRE_Pos]);
 c00496c:	f7ff fb50 	bl	c004010 <HAL_RCC_GetSysClockFreq>
 c004970:	4603      	mov	r3, r0
 c004972:	4a43      	ldr	r2, [pc, #268]	@ (c004a80 <HAL_RCC_ClockConfig+0x234>)
 c004974:	4944      	ldr	r1, [pc, #272]	@ (c004a88 <HAL_RCC_ClockConfig+0x23c>)
 c004976:	6892      	ldr	r2, [r2, #8]
  return HAL_InitTick(uwTickPrio);
 c004978:	4844      	ldr	r0, [pc, #272]	@ (c004a8c <HAL_RCC_ClockConfig+0x240>)
  return (HAL_RCC_GetSysClockFreq() >> AHBPrescTable[(RCC->CFGR & RCC_CFGR_HPRE) >> RCC_CFGR_HPRE_Pos]);
 c00497a:	f3c2 1203 	ubfx	r2, r2, #4, #4
 c00497e:	5c89      	ldrb	r1, [r1, r2]
  SystemCoreClock = HAL_RCC_GetHCLKFreq();
 c004980:	4a43      	ldr	r2, [pc, #268]	@ (c004a90 <HAL_RCC_ClockConfig+0x244>)
  return (HAL_RCC_GetSysClockFreq() >> AHBPrescTable[(RCC->CFGR & RCC_CFGR_HPRE) >> RCC_CFGR_HPRE_Pos]);
 c004982:	40cb      	lsrs	r3, r1
  SystemCoreClock = HAL_RCC_GetHCLKFreq();
 c004984:	6013      	str	r3, [r2, #0]
  return HAL_InitTick(uwTickPrio);
 c004986:	6800      	ldr	r0, [r0, #0]
}
 c004988:	e8bd 43f8 	ldmia.w	sp!, {r3, r4, r5, r6, r7, r8, r9, lr}
  return HAL_InitTick(uwTickPrio);
 c00498c:	f7fe bf54 	b.w	c003838 <HAL_InitTick>
    MODIFY_REG(RCC->CFGR, RCC_CFGR_HPRE, RCC_ClkInitStruct->AHBCLKDivider);
 c004990:	493b      	ldr	r1, [pc, #236]	@ (c004a80 <HAL_RCC_ClockConfig+0x234>)
 c004992:	f8d9 0008 	ldr.w	r0, [r9, #8]
 c004996:	688a      	ldr	r2, [r1, #8]
 c004998:	f022 02f0 	bic.w	r2, r2, #240	@ 0xf0
 c00499c:	4302      	orrs	r2, r0
 c00499e:	608a      	str	r2, [r1, #8]
 c0049a0:	e7bf      	b.n	c004922 <HAL_RCC_ClockConfig+0xd6>
        if (READ_BIT(RCC->CR, RCC_CR_HSERDY) == 0U)
 c0049a2:	039f      	lsls	r7, r3, #14
 c0049a4:	f53f af7f 	bmi.w	c0048a6 <HAL_RCC_ClockConfig+0x5a>
 c0049a8:	e767      	b.n	c00487a <HAL_RCC_ClockConfig+0x2e>
  if (((RCC_ClkInitStruct->ClockType) & RCC_CLOCKTYPE_HCLK) == RCC_CLOCKTYPE_HCLK)
 c0049aa:	f8d9 3000 	ldr.w	r3, [r9]
 c0049ae:	0799      	lsls	r1, r3, #30
 c0049b0:	d4ee      	bmi.n	c004990 <HAL_RCC_ClockConfig+0x144>
    if (hpre == RCC_SYSCLK_DIV2)
 c0049b2:	f1b8 0f00 	cmp.w	r8, #0
 c0049b6:	d0b4      	beq.n	c004922 <HAL_RCC_ClockConfig+0xd6>
      MODIFY_REG(RCC->CFGR, RCC_CFGR_HPRE, RCC_SYSCLK_DIV1);
 c0049b8:	4931      	ldr	r1, [pc, #196]	@ (c004a80 <HAL_RCC_ClockConfig+0x234>)
 c0049ba:	688a      	ldr	r2, [r1, #8]
 c0049bc:	f022 02f0 	bic.w	r2, r2, #240	@ 0xf0
 c0049c0:	608a      	str	r2, [r1, #8]
 c0049c2:	e7ae      	b.n	c004922 <HAL_RCC_ClockConfig+0xd6>
    return HAL_ERROR;
 c0049c4:	2001      	movs	r0, #1
}
 c0049c6:	4770      	bx	lr
      if (READ_BIT(RCC->CR, RCC_CR_PLLRDY) == 0U)
 c0049c8:	4a2d      	ldr	r2, [pc, #180]	@ (c004a80 <HAL_RCC_ClockConfig+0x234>)
 c0049ca:	6811      	ldr	r1, [r2, #0]
 c0049cc:	0188      	lsls	r0, r1, #6
 c0049ce:	f57f af54 	bpl.w	c00487a <HAL_RCC_ClockConfig+0x2e>
static uint32_t RCC_GetSysClockFreqFromPLLSource(void)
{
  uint32_t msirange = 0U;
  uint32_t pllvco, pllsource, pllr, pllm, sysclockfreq;    /* no init needed */

  if (__HAL_RCC_GET_PLL_OSCSOURCE() == RCC_PLLSOURCE_MSI)
 c0049d2:	68d1      	ldr	r1, [r2, #12]
 c0049d4:	f001 0103 	and.w	r1, r1, #3
 c0049d8:	2901      	cmp	r1, #1
 c0049da:	d036      	beq.n	c004a4a <HAL_RCC_ClockConfig+0x1fe>
  uint32_t msirange = 0U;
 c0049dc:	2700      	movs	r7, #0
  }

  /* PLL_VCO = (HSE_VALUE or HSI_VALUE or MSI_VALUE/ PLLM) * PLLN
     SYSCLK = PLL_VCO / PLLR
   */
  pllsource = READ_BIT(RCC->PLLCFGR, RCC_PLLCFGR_PLLSRC);
 c0049de:	4d28      	ldr	r5, [pc, #160]	@ (c004a80 <HAL_RCC_ClockConfig+0x234>)
 c0049e0:	68e8      	ldr	r0, [r5, #12]
  pllm = (READ_BIT(RCC->PLLCFGR, RCC_PLLCFGR_PLLM) >> RCC_PLLCFGR_PLLM_Pos) + 1U ;
 c0049e2:	68ea      	ldr	r2, [r5, #12]
  pllsource = READ_BIT(RCC->PLLCFGR, RCC_PLLCFGR_PLLSRC);
 c0049e4:	f000 0003 	and.w	r0, r0, #3
  pllm = (READ_BIT(RCC->PLLCFGR, RCC_PLLCFGR_PLLM) >> RCC_PLLCFGR_PLLM_Pos) + 1U ;
 c0049e8:	f3c2 1203 	ubfx	r2, r2, #4, #4

  switch (pllsource)
 c0049ec:	2802      	cmp	r0, #2
  pllm = (READ_BIT(RCC->PLLCFGR, RCC_PLLCFGR_PLLM) >> RCC_PLLCFGR_PLLM_Pos) + 1U ;
 c0049ee:	f102 0101 	add.w	r1, r2, #1
  switch (pllsource)
 c0049f2:	d039      	beq.n	c004a68 <HAL_RCC_ClockConfig+0x21c>
 c0049f4:	2803      	cmp	r0, #3
 c0049f6:	d037      	beq.n	c004a68 <HAL_RCC_ClockConfig+0x21c>
      pllvco = (HSE_VALUE / pllm) * (READ_BIT(RCC->PLLCFGR, RCC_PLLCFGR_PLLN) >> RCC_PLLCFGR_PLLN_Pos);
      break;

    case RCC_PLLSOURCE_MSI:  /* MSI used as PLL clock source */
    default:
      pllvco = (msirange / pllm) * (READ_BIT(RCC->PLLCFGR, RCC_PLLCFGR_PLLN) >> RCC_PLLCFGR_PLLN_Pos);
 c0049f8:	fbb7 f7f1 	udiv	r7, r7, r1
 c0049fc:	68ea      	ldr	r2, [r5, #12]
 c0049fe:	f3c2 2206 	ubfx	r2, r2, #8, #7
 c004a02:	fb07 f102 	mul.w	r1, r7, r2
      break;
  }

  pllr = ((READ_BIT(RCC->PLLCFGR, RCC_PLLCFGR_PLLR) >> RCC_PLLCFGR_PLLR_Pos) + 1U) * 2U;
 c004a06:	481e      	ldr	r0, [pc, #120]	@ (c004a80 <HAL_RCC_ClockConfig+0x234>)
      if (pllfreq > 80000000U)
 c004a08:	4d1e      	ldr	r5, [pc, #120]	@ (c004a84 <HAL_RCC_ClockConfig+0x238>)
  pllr = ((READ_BIT(RCC->PLLCFGR, RCC_PLLCFGR_PLLR) >> RCC_PLLCFGR_PLLR_Pos) + 1U) * 2U;
 c004a0a:	68c2      	ldr	r2, [r0, #12]
 c004a0c:	f3c2 6241 	ubfx	r2, r2, #25, #2
 c004a10:	3201      	adds	r2, #1
 c004a12:	0052      	lsls	r2, r2, #1
  sysclockfreq = pllvco / pllr;
 c004a14:	fbb1 f2f2 	udiv	r2, r1, r2
      if (pllfreq > 80000000U)
 c004a18:	42aa      	cmp	r2, r5
 c004a1a:	d90f      	bls.n	c004a3c <HAL_RCC_ClockConfig+0x1f0>
        if (READ_BIT(RCC->CFGR, RCC_CFGR_HPRE) == RCC_SYSCLK_DIV1)
 c004a1c:	6882      	ldr	r2, [r0, #8]
 c004a1e:	f012 0ff0 	tst.w	r2, #240	@ 0xf0
 c004a22:	d004      	beq.n	c004a2e <HAL_RCC_ClockConfig+0x1e2>
        else if ((((RCC_ClkInitStruct->ClockType) & RCC_CLOCKTYPE_HCLK) == RCC_CLOCKTYPE_HCLK) &&
 c004a24:	079b      	lsls	r3, r3, #30
 c004a26:	d509      	bpl.n	c004a3c <HAL_RCC_ClockConfig+0x1f0>
 c004a28:	f8d9 3008 	ldr.w	r3, [r9, #8]
 c004a2c:	b933      	cbnz	r3, c004a3c <HAL_RCC_ClockConfig+0x1f0>
          MODIFY_REG(RCC->CFGR, RCC_CFGR_HPRE, RCC_SYSCLK_DIV2);
 c004a2e:	6883      	ldr	r3, [r0, #8]
 c004a30:	f023 03f0 	bic.w	r3, r3, #240	@ 0xf0
 c004a34:	f043 0380 	orr.w	r3, r3, #128	@ 0x80
 c004a38:	6083      	str	r3, [r0, #8]
          hpre = RCC_SYSCLK_DIV2;
 c004a3a:	e741      	b.n	c0048c0 <HAL_RCC_ClockConfig+0x74>
  uint32_t hpre = RCC_SYSCLK_DIV1;
 c004a3c:	f04f 0800 	mov.w	r8, #0
 c004a40:	e740      	b.n	c0048c4 <HAL_RCC_ClockConfig+0x78>
        if (READ_BIT(RCC->CR, RCC_CR_HSIRDY) == 0U)
 c004a42:	0558      	lsls	r0, r3, #21
 c004a44:	f57f af19 	bpl.w	c00487a <HAL_RCC_ClockConfig+0x2e>
 c004a48:	e72d      	b.n	c0048a6 <HAL_RCC_ClockConfig+0x5a>
    if (READ_BIT(RCC->CR, RCC_CR_MSIRGSEL) == 0U)
 c004a4a:	6811      	ldr	r1, [r2, #0]
 c004a4c:	0709      	lsls	r1, r1, #28
      msirange = READ_BIT(RCC->CSR, RCC_CSR_MSISRANGE) >> RCC_CSR_MSISRANGE_Pos;
 c004a4e:	bf54      	ite	pl
 c004a50:	f8d2 2094 	ldrpl.w	r2, [r2, #148]	@ 0x94
      msirange = READ_BIT(RCC->CR, RCC_CR_MSIRANGE) >> RCC_CR_MSIRANGE_Pos;
 c004a54:	6812      	ldrmi	r2, [r2, #0]
    msirange = MSIRangeTable[msirange];
 c004a56:	490f      	ldr	r1, [pc, #60]	@ (c004a94 <HAL_RCC_ClockConfig+0x248>)
      msirange = READ_BIT(RCC->CSR, RCC_CSR_MSISRANGE) >> RCC_CSR_MSISRANGE_Pos;
 c004a58:	bf54      	ite	pl
 c004a5a:	f3c2 2203 	ubfxpl	r2, r2, #8, #4
      msirange = READ_BIT(RCC->CR, RCC_CR_MSIRANGE) >> RCC_CR_MSIRANGE_Pos;
 c004a5e:	f3c2 1203 	ubfxmi	r2, r2, #4, #4
    msirange = MSIRangeTable[msirange];
 c004a62:	f851 7022 	ldr.w	r7, [r1, r2, lsl #2]
 c004a66:	e7ba      	b.n	c0049de <HAL_RCC_ClockConfig+0x192>
      pllvco = (HSE_VALUE / pllm) * (READ_BIT(RCC->PLLCFGR, RCC_PLLCFGR_PLLN) >> RCC_PLLCFGR_PLLN_Pos);
 c004a68:	480b      	ldr	r0, [pc, #44]	@ (c004a98 <HAL_RCC_ClockConfig+0x24c>)
 c004a6a:	68ea      	ldr	r2, [r5, #12]
 c004a6c:	fbb0 f1f1 	udiv	r1, r0, r1
 c004a70:	f3c2 2206 	ubfx	r2, r2, #8, #7
 c004a74:	fb02 f101 	mul.w	r1, r2, r1
      break;
 c004a78:	e7c5      	b.n	c004a06 <HAL_RCC_ClockConfig+0x1ba>
 c004a7a:	bf00      	nop
 c004a7c:	50022000 	.word	0x50022000
 c004a80:	50021000 	.word	0x50021000
 c004a84:	04c4b400 	.word	0x04c4b400
 c004a88:	0c006490 	.word	0x0c006490
 c004a8c:	300000ac 	.word	0x300000ac
 c004a90:	300000a4 	.word	0x300000a4
 c004a94:	0c006448 	.word	0x0c006448
 c004a98:	00f42400 	.word	0x00f42400

0c004a9c <HAL_RCC_GetPCLK1Freq>:
  sysclk_source = __HAL_RCC_GET_SYSCLK_SOURCE();
 c004a9c:	4a30      	ldr	r2, [pc, #192]	@ (c004b60 <HAL_RCC_GetPCLK1Freq+0xc4>)
 c004a9e:	6893      	ldr	r3, [r2, #8]
  pll_oscsource = __HAL_RCC_GET_PLL_OSCSOURCE();
 c004aa0:	68d1      	ldr	r1, [r2, #12]
  if ((sysclk_source == RCC_SYSCLKSOURCE_STATUS_MSI) ||
 c004aa2:	f013 020c 	ands.w	r2, r3, #12
 c004aa6:	d019      	beq.n	c004adc <HAL_RCC_GetPCLK1Freq+0x40>
 c004aa8:	2a0c      	cmp	r2, #12
 c004aaa:	d048      	beq.n	c004b3e <HAL_RCC_GetPCLK1Freq+0xa2>
  else if (sysclk_source == RCC_SYSCLKSOURCE_STATUS_HSI)
 c004aac:	f46f 7188 	mvn.w	r1, #272	@ 0x110
 c004ab0:	fa41 f202 	asr.w	r2, r1, r2
    sysclockfreq = HSE_VALUE;
 c004ab4:	f012 0f01 	tst.w	r2, #1
 c004ab8:	4b2a      	ldr	r3, [pc, #168]	@ (c004b64 <HAL_RCC_GetPCLK1Freq+0xc8>)
 c004aba:	bf18      	it	ne
 c004abc:	2300      	movne	r3, #0
  return (HAL_RCC_GetSysClockFreq() >> AHBPrescTable[(RCC->CFGR & RCC_CFGR_HPRE) >> RCC_CFGR_HPRE_Pos]);
 c004abe:	4a28      	ldr	r2, [pc, #160]	@ (c004b60 <HAL_RCC_GetPCLK1Freq+0xc4>)
 c004ac0:	4829      	ldr	r0, [pc, #164]	@ (c004b68 <HAL_RCC_GetPCLK1Freq+0xcc>)
 c004ac2:	6891      	ldr	r1, [r2, #8]
  return (HAL_RCC_GetHCLKFreq() >> APBPrescTable[(RCC->CFGR & RCC_CFGR_PPRE1) >> RCC_CFGR_PPRE1_Pos]);
 c004ac4:	6892      	ldr	r2, [r2, #8]
  return (HAL_RCC_GetSysClockFreq() >> AHBPrescTable[(RCC->CFGR & RCC_CFGR_HPRE) >> RCC_CFGR_HPRE_Pos]);
 c004ac6:	f3c1 1103 	ubfx	r1, r1, #4, #4
 c004aca:	5c41      	ldrb	r1, [r0, r1]
  return (HAL_RCC_GetHCLKFreq() >> APBPrescTable[(RCC->CFGR & RCC_CFGR_PPRE1) >> RCC_CFGR_PPRE1_Pos]);
 c004acc:	4827      	ldr	r0, [pc, #156]	@ (c004b6c <HAL_RCC_GetPCLK1Freq+0xd0>)
 c004ace:	f3c2 2202 	ubfx	r2, r2, #8, #3
 c004ad2:	5c80      	ldrb	r0, [r0, r2]
  return (HAL_RCC_GetSysClockFreq() >> AHBPrescTable[(RCC->CFGR & RCC_CFGR_HPRE) >> RCC_CFGR_HPRE_Pos]);
 c004ad4:	40cb      	lsrs	r3, r1
}
 c004ad6:	fa23 f000 	lsr.w	r0, r3, r0
 c004ada:	4770      	bx	lr
    if (READ_BIT(RCC->CR, RCC_CR_MSIRGSEL) == 0U)
 c004adc:	4b20      	ldr	r3, [pc, #128]	@ (c004b60 <HAL_RCC_GetPCLK1Freq+0xc4>)
 c004ade:	6819      	ldr	r1, [r3, #0]
 c004ae0:	0709      	lsls	r1, r1, #28
      msirange = READ_BIT(RCC->CSR, RCC_CSR_MSISRANGE) >> RCC_CSR_MSISRANGE_Pos;
 c004ae2:	bf54      	ite	pl
 c004ae4:	f8d3 3094 	ldrpl.w	r3, [r3, #148]	@ 0x94
      msirange = READ_BIT(RCC->CR, RCC_CR_MSIRANGE) >> RCC_CR_MSIRANGE_Pos;
 c004ae8:	681b      	ldrmi	r3, [r3, #0]
    msirange = MSIRangeTable[msirange];
 c004aea:	4921      	ldr	r1, [pc, #132]	@ (c004b70 <HAL_RCC_GetPCLK1Freq+0xd4>)
      msirange = READ_BIT(RCC->CSR, RCC_CSR_MSISRANGE) >> RCC_CSR_MSISRANGE_Pos;
 c004aec:	bf54      	ite	pl
 c004aee:	f3c3 2303 	ubfxpl	r3, r3, #8, #4
      msirange = READ_BIT(RCC->CR, RCC_CR_MSIRANGE) >> RCC_CR_MSIRANGE_Pos;
 c004af2:	f3c3 1303 	ubfxmi	r3, r3, #4, #4
    msirange = MSIRangeTable[msirange];
 c004af6:	f851 3023 	ldr.w	r3, [r1, r3, lsl #2]
    if (sysclk_source == RCC_SYSCLKSOURCE_STATUS_MSI)
 c004afa:	2a00      	cmp	r2, #0
 c004afc:	d0df      	beq.n	c004abe <HAL_RCC_GetPCLK1Freq+0x22>
  if (sysclk_source == RCC_SYSCLKSOURCE_STATUS_PLLCLK)
 c004afe:	2a0c      	cmp	r2, #12
 c004b00:	d12b      	bne.n	c004b5a <HAL_RCC_GetPCLK1Freq+0xbe>
    pllsource = (RCC->PLLCFGR & RCC_PLLCFGR_PLLSRC);
 c004b02:	4817      	ldr	r0, [pc, #92]	@ (c004b60 <HAL_RCC_GetPCLK1Freq+0xc4>)
 c004b04:	68c1      	ldr	r1, [r0, #12]
    pllm = ((RCC->PLLCFGR & RCC_PLLCFGR_PLLM) >> RCC_PLLCFGR_PLLM_Pos) + 1U ;
 c004b06:	68c2      	ldr	r2, [r0, #12]
    pllsource = (RCC->PLLCFGR & RCC_PLLCFGR_PLLSRC);
 c004b08:	f001 0103 	and.w	r1, r1, #3
    pllm = ((RCC->PLLCFGR & RCC_PLLCFGR_PLLM) >> RCC_PLLCFGR_PLLM_Pos) + 1U ;
 c004b0c:	f3c2 1203 	ubfx	r2, r2, #4, #4
    switch (pllsource)
 c004b10:	2902      	cmp	r1, #2
    pllm = ((RCC->PLLCFGR & RCC_PLLCFGR_PLLM) >> RCC_PLLCFGR_PLLM_Pos) + 1U ;
 c004b12:	f102 0201 	add.w	r2, r2, #1
    switch (pllsource)
 c004b16:	d001      	beq.n	c004b1c <HAL_RCC_GetPCLK1Freq+0x80>
 c004b18:	2903      	cmp	r1, #3
 c004b1a:	d116      	bne.n	c004b4a <HAL_RCC_GetPCLK1Freq+0xae>
        pllvco = (HSE_VALUE / pllm) * ((RCC->PLLCFGR & RCC_PLLCFGR_PLLN) >> RCC_PLLCFGR_PLLN_Pos);
 c004b1c:	4911      	ldr	r1, [pc, #68]	@ (c004b64 <HAL_RCC_GetPCLK1Freq+0xc8>)
 c004b1e:	68c3      	ldr	r3, [r0, #12]
 c004b20:	fbb1 f2f2 	udiv	r2, r1, r2
 c004b24:	f3c3 2306 	ubfx	r3, r3, #8, #7
 c004b28:	fb02 f303 	mul.w	r3, r2, r3
    pllr = (((RCC->PLLCFGR & RCC_PLLCFGR_PLLR) >> RCC_PLLCFGR_PLLR_Pos) + 1U) * 2U;
 c004b2c:	4a0c      	ldr	r2, [pc, #48]	@ (c004b60 <HAL_RCC_GetPCLK1Freq+0xc4>)
 c004b2e:	68d2      	ldr	r2, [r2, #12]
 c004b30:	f3c2 6241 	ubfx	r2, r2, #25, #2
 c004b34:	3201      	adds	r2, #1
 c004b36:	0052      	lsls	r2, r2, #1
    sysclockfreq = pllvco / pllr;
 c004b38:	fbb3 f3f2 	udiv	r3, r3, r2
 c004b3c:	e7bf      	b.n	c004abe <HAL_RCC_GetPCLK1Freq+0x22>
  pll_oscsource = __HAL_RCC_GET_PLL_OSCSOURCE();
 c004b3e:	f001 0103 	and.w	r1, r1, #3
      ((sysclk_source == RCC_SYSCLKSOURCE_STATUS_PLLCLK) && (pll_oscsource == RCC_PLLSOURCE_MSI)))
 c004b42:	2901      	cmp	r1, #1
 c004b44:	d0ca      	beq.n	c004adc <HAL_RCC_GetPCLK1Freq+0x40>
  uint32_t msirange = 0U, sysclockfreq = 0U;
 c004b46:	2300      	movs	r3, #0
 c004b48:	e7db      	b.n	c004b02 <HAL_RCC_GetPCLK1Freq+0x66>
        pllvco = (msirange / pllm) * ((RCC->PLLCFGR & RCC_PLLCFGR_PLLN) >> RCC_PLLCFGR_PLLN_Pos);
 c004b4a:	fbb3 f2f2 	udiv	r2, r3, r2
 c004b4e:	68c3      	ldr	r3, [r0, #12]
 c004b50:	f3c3 2306 	ubfx	r3, r3, #8, #7
 c004b54:	fb02 f303 	mul.w	r3, r2, r3
        break;
 c004b58:	e7e8      	b.n	c004b2c <HAL_RCC_GetPCLK1Freq+0x90>
  uint32_t msirange = 0U, sysclockfreq = 0U;
 c004b5a:	2300      	movs	r3, #0
 c004b5c:	e7af      	b.n	c004abe <HAL_RCC_GetPCLK1Freq+0x22>
 c004b5e:	bf00      	nop
 c004b60:	50021000 	.word	0x50021000
 c004b64:	00f42400 	.word	0x00f42400
 c004b68:	0c006490 	.word	0x0c006490
 c004b6c:	0c006488 	.word	0x0c006488
 c004b70:	0c006448 	.word	0x0c006448

0c004b74 <HAL_RCC_GetPCLK2Freq>:
  sysclk_source = __HAL_RCC_GET_SYSCLK_SOURCE();
 c004b74:	4a30      	ldr	r2, [pc, #192]	@ (c004c38 <HAL_RCC_GetPCLK2Freq+0xc4>)
 c004b76:	6893      	ldr	r3, [r2, #8]
  pll_oscsource = __HAL_RCC_GET_PLL_OSCSOURCE();
 c004b78:	68d1      	ldr	r1, [r2, #12]
  if ((sysclk_source == RCC_SYSCLKSOURCE_STATUS_MSI) ||
 c004b7a:	f013 020c 	ands.w	r2, r3, #12
 c004b7e:	d019      	beq.n	c004bb4 <HAL_RCC_GetPCLK2Freq+0x40>
 c004b80:	2a0c      	cmp	r2, #12
 c004b82:	d048      	beq.n	c004c16 <HAL_RCC_GetPCLK2Freq+0xa2>
  else if (sysclk_source == RCC_SYSCLKSOURCE_STATUS_HSI)
 c004b84:	f46f 7188 	mvn.w	r1, #272	@ 0x110
 c004b88:	fa41 f202 	asr.w	r2, r1, r2
    sysclockfreq = HSE_VALUE;
 c004b8c:	f012 0f01 	tst.w	r2, #1
 c004b90:	4b2a      	ldr	r3, [pc, #168]	@ (c004c3c <HAL_RCC_GetPCLK2Freq+0xc8>)
 c004b92:	bf18      	it	ne
 c004b94:	2300      	movne	r3, #0
  return (HAL_RCC_GetSysClockFreq() >> AHBPrescTable[(RCC->CFGR & RCC_CFGR_HPRE) >> RCC_CFGR_HPRE_Pos]);
 c004b96:	4a28      	ldr	r2, [pc, #160]	@ (c004c38 <HAL_RCC_GetPCLK2Freq+0xc4>)
 c004b98:	4829      	ldr	r0, [pc, #164]	@ (c004c40 <HAL_RCC_GetPCLK2Freq+0xcc>)
 c004b9a:	6891      	ldr	r1, [r2, #8]
  return (HAL_RCC_GetHCLKFreq() >> APBPrescTable[(RCC->CFGR & RCC_CFGR_PPRE2) >> RCC_CFGR_PPRE2_Pos]);
 c004b9c:	6892      	ldr	r2, [r2, #8]
  return (HAL_RCC_GetSysClockFreq() >> AHBPrescTable[(RCC->CFGR & RCC_CFGR_HPRE) >> RCC_CFGR_HPRE_Pos]);
 c004b9e:	f3c1 1103 	ubfx	r1, r1, #4, #4
 c004ba2:	5c41      	ldrb	r1, [r0, r1]
  return (HAL_RCC_GetHCLKFreq() >> APBPrescTable[(RCC->CFGR & RCC_CFGR_PPRE2) >> RCC_CFGR_PPRE2_Pos]);
 c004ba4:	4827      	ldr	r0, [pc, #156]	@ (c004c44 <HAL_RCC_GetPCLK2Freq+0xd0>)
 c004ba6:	f3c2 22c2 	ubfx	r2, r2, #11, #3
 c004baa:	5c80      	ldrb	r0, [r0, r2]
  return (HAL_RCC_GetSysClockFreq() >> AHBPrescTable[(RCC->CFGR & RCC_CFGR_HPRE) >> RCC_CFGR_HPRE_Pos]);
 c004bac:	40cb      	lsrs	r3, r1
}
 c004bae:	fa23 f000 	lsr.w	r0, r3, r0
 c004bb2:	4770      	bx	lr
    if (READ_BIT(RCC->CR, RCC_CR_MSIRGSEL) == 0U)
 c004bb4:	4b20      	ldr	r3, [pc, #128]	@ (c004c38 <HAL_RCC_GetPCLK2Freq+0xc4>)
 c004bb6:	6819      	ldr	r1, [r3, #0]
 c004bb8:	0709      	lsls	r1, r1, #28
      msirange = READ_BIT(RCC->CSR, RCC_CSR_MSISRANGE) >> RCC_CSR_MSISRANGE_Pos;
 c004bba:	bf54      	ite	pl
 c004bbc:	f8d3 3094 	ldrpl.w	r3, [r3, #148]	@ 0x94
      msirange = READ_BIT(RCC->CR, RCC_CR_MSIRANGE) >> RCC_CR_MSIRANGE_Pos;
 c004bc0:	681b      	ldrmi	r3, [r3, #0]
    msirange = MSIRangeTable[msirange];
 c004bc2:	4921      	ldr	r1, [pc, #132]	@ (c004c48 <HAL_RCC_GetPCLK2Freq+0xd4>)
      msirange = READ_BIT(RCC->CSR, RCC_CSR_MSISRANGE) >> RCC_CSR_MSISRANGE_Pos;
 c004bc4:	bf54      	ite	pl
 c004bc6:	f3c3 2303 	ubfxpl	r3, r3, #8, #4
      msirange = READ_BIT(RCC->CR, RCC_CR_MSIRANGE) >> RCC_CR_MSIRANGE_Pos;
 c004bca:	f3c3 1303 	ubfxmi	r3, r3, #4, #4
    msirange = MSIRangeTable[msirange];
 c004bce:	f851 3023 	ldr.w	r3, [r1, r3, lsl #2]
    if (sysclk_source == RCC_SYSCLKSOURCE_STATUS_MSI)
 c004bd2:	2a00      	cmp	r2, #0
 c004bd4:	d0df      	beq.n	c004b96 <HAL_RCC_GetPCLK2Freq+0x22>
  if (sysclk_source == RCC_SYSCLKSOURCE_STATUS_PLLCLK)
 c004bd6:	2a0c      	cmp	r2, #12
 c004bd8:	d12b      	bne.n	c004c32 <HAL_RCC_GetPCLK2Freq+0xbe>
    pllsource = (RCC->PLLCFGR & RCC_PLLCFGR_PLLSRC);
 c004bda:	4817      	ldr	r0, [pc, #92]	@ (c004c38 <HAL_RCC_GetPCLK2Freq+0xc4>)
 c004bdc:	68c1      	ldr	r1, [r0, #12]
    pllm = ((RCC->PLLCFGR & RCC_PLLCFGR_PLLM) >> RCC_PLLCFGR_PLLM_Pos) + 1U ;
 c004bde:	68c2      	ldr	r2, [r0, #12]
    pllsource = (RCC->PLLCFGR & RCC_PLLCFGR_PLLSRC);
 c004be0:	f001 0103 	and.w	r1, r1, #3
    pllm = ((RCC->PLLCFGR & RCC_PLLCFGR_PLLM) >> RCC_PLLCFGR_PLLM_Pos) + 1U ;
 c004be4:	f3c2 1203 	ubfx	r2, r2, #4, #4
    switch (pllsource)
 c004be8:	2902      	cmp	r1, #2
    pllm = ((RCC->PLLCFGR & RCC_PLLCFGR_PLLM) >> RCC_PLLCFGR_PLLM_Pos) + 1U ;
 c004bea:	f102 0201 	add.w	r2, r2, #1
    switch (pllsource)
 c004bee:	d001      	beq.n	c004bf4 <HAL_RCC_GetPCLK2Freq+0x80>
 c004bf0:	2903      	cmp	r1, #3
 c004bf2:	d116      	bne.n	c004c22 <HAL_RCC_GetPCLK2Freq+0xae>
        pllvco = (HSE_VALUE / pllm) * ((RCC->PLLCFGR & RCC_PLLCFGR_PLLN) >> RCC_PLLCFGR_PLLN_Pos);
 c004bf4:	4911      	ldr	r1, [pc, #68]	@ (c004c3c <HAL_RCC_GetPCLK2Freq+0xc8>)
 c004bf6:	68c3      	ldr	r3, [r0, #12]
 c004bf8:	fbb1 f2f2 	udiv	r2, r1, r2
 c004bfc:	f3c3 2306 	ubfx	r3, r3, #8, #7
 c004c00:	fb02 f303 	mul.w	r3, r2, r3
    pllr = (((RCC->PLLCFGR & RCC_PLLCFGR_PLLR) >> RCC_PLLCFGR_PLLR_Pos) + 1U) * 2U;
 c004c04:	4a0c      	ldr	r2, [pc, #48]	@ (c004c38 <HAL_RCC_GetPCLK2Freq+0xc4>)
 c004c06:	68d2      	ldr	r2, [r2, #12]
 c004c08:	f3c2 6241 	ubfx	r2, r2, #25, #2
 c004c0c:	3201      	adds	r2, #1
 c004c0e:	0052      	lsls	r2, r2, #1
    sysclockfreq = pllvco / pllr;
 c004c10:	fbb3 f3f2 	udiv	r3, r3, r2
 c004c14:	e7bf      	b.n	c004b96 <HAL_RCC_GetPCLK2Freq+0x22>
  pll_oscsource = __HAL_RCC_GET_PLL_OSCSOURCE();
 c004c16:	f001 0103 	and.w	r1, r1, #3
      ((sysclk_source == RCC_SYSCLKSOURCE_STATUS_PLLCLK) && (pll_oscsource == RCC_PLLSOURCE_MSI)))
 c004c1a:	2901      	cmp	r1, #1
 c004c1c:	d0ca      	beq.n	c004bb4 <HAL_RCC_GetPCLK2Freq+0x40>
  uint32_t msirange = 0U, sysclockfreq = 0U;
 c004c1e:	2300      	movs	r3, #0
 c004c20:	e7db      	b.n	c004bda <HAL_RCC_GetPCLK2Freq+0x66>
        pllvco = (msirange / pllm) * ((RCC->PLLCFGR & RCC_PLLCFGR_PLLN) >> RCC_PLLCFGR_PLLN_Pos);
 c004c22:	fbb3 f2f2 	udiv	r2, r3, r2
 c004c26:	68c3      	ldr	r3, [r0, #12]
 c004c28:	f3c3 2306 	ubfx	r3, r3, #8, #7
 c004c2c:	fb02 f303 	mul.w	r3, r2, r3
        break;
 c004c30:	e7e8      	b.n	c004c04 <HAL_RCC_GetPCLK2Freq+0x90>
  uint32_t msirange = 0U, sysclockfreq = 0U;
 c004c32:	2300      	movs	r3, #0
 c004c34:	e7af      	b.n	c004b96 <HAL_RCC_GetPCLK2Freq+0x22>
 c004c36:	bf00      	nop
 c004c38:	50021000 	.word	0x50021000
 c004c3c:	00f42400 	.word	0x00f42400
 c004c40:	0c006490 	.word	0x0c006490
 c004c44:	0c006488 	.word	0x0c006488
 c004c48:	0c006448 	.word	0x0c006448

0c004c4c <RCCEx_PLLSAI1_Config>:
  * @note   PLLSAI1 is temporary disable to apply new parameters
  *
  * @retval HAL status
  */
static HAL_StatusTypeDef RCCEx_PLLSAI1_Config(RCC_PLLSAI1InitTypeDef *pPllSai1, uint32_t Divider)
{
 c004c4c:	b5f8      	push	{r3, r4, r5, r6, r7, lr}
 c004c4e:	4604      	mov	r4, r0
  assert_param(IS_RCC_PLLSAI1M_VALUE(pPllSai1->PLLSAI1M));
  assert_param(IS_RCC_PLLSAI1N_VALUE(pPllSai1->PLLSAI1N));
  assert_param(IS_RCC_PLLSAI1CLOCKOUT_VALUE(pPllSai1->PLLSAI1ClockOut));

  /* Check PLLSAI1 clock source availability */
  switch (pPllSai1->PLLSAI1Source)
 c004c50:	6800      	ldr	r0, [r0, #0]
{
 c004c52:	460f      	mov	r7, r1
  switch (pPllSai1->PLLSAI1Source)
 c004c54:	2802      	cmp	r0, #2
 c004c56:	d005      	beq.n	c004c64 <RCCEx_PLLSAI1_Config+0x18>
 c004c58:	2803      	cmp	r0, #3
 c004c5a:	d04c      	beq.n	c004cf6 <RCCEx_PLLSAI1_Config+0xaa>
 c004c5c:	2801      	cmp	r0, #1
 c004c5e:	d045      	beq.n	c004cec <RCCEx_PLLSAI1_Config+0xa0>
 c004c60:	2001      	movs	r0, #1
      }
    }
  }

  return status;
}
 c004c62:	bdf8      	pop	{r3, r4, r5, r6, r7, pc}
      if (HAL_IS_BIT_CLR(RCC->CR, RCC_CR_HSIRDY))
 c004c64:	4b38      	ldr	r3, [pc, #224]	@ (c004d48 <RCCEx_PLLSAI1_Config+0xfc>)
 c004c66:	681b      	ldr	r3, [r3, #0]
 c004c68:	055d      	lsls	r5, r3, #21
 c004c6a:	d5f9      	bpl.n	c004c60 <RCCEx_PLLSAI1_Config+0x14>
    __HAL_RCC_PLLSAI1_DISABLE();
 c004c6c:	4d36      	ldr	r5, [pc, #216]	@ (c004d48 <RCCEx_PLLSAI1_Config+0xfc>)
 c004c6e:	682b      	ldr	r3, [r5, #0]
 c004c70:	f023 6380 	bic.w	r3, r3, #67108864	@ 0x4000000
 c004c74:	602b      	str	r3, [r5, #0]
    tickstart = HAL_GetTick();
 c004c76:	f7fe fe23 	bl	c0038c0 <HAL_GetTick>
 c004c7a:	4606      	mov	r6, r0
    while (READ_BIT(RCC->CR, RCC_CR_PLLSAI1RDY) != 0U)
 c004c7c:	e004      	b.n	c004c88 <RCCEx_PLLSAI1_Config+0x3c>
      if ((HAL_GetTick() - tickstart) > PLLSAI1_TIMEOUT_VALUE)
 c004c7e:	f7fe fe1f 	bl	c0038c0 <HAL_GetTick>
 c004c82:	1b83      	subs	r3, r0, r6
 c004c84:	2b02      	cmp	r3, #2
 c004c86:	d848      	bhi.n	c004d1a <RCCEx_PLLSAI1_Config+0xce>
    while (READ_BIT(RCC->CR, RCC_CR_PLLSAI1RDY) != 0U)
 c004c88:	682b      	ldr	r3, [r5, #0]
 c004c8a:	0119      	lsls	r1, r3, #4
 c004c8c:	d4f7      	bmi.n	c004c7e <RCCEx_PLLSAI1_Config+0x32>
        MODIFY_REG(RCC->PLLSAI1CFGR,
 c004c8e:	e9d4 3201 	ldrd	r3, r2, [r4, #4]
 c004c92:	3b01      	subs	r3, #1
 c004c94:	0210      	lsls	r0, r2, #8
 c004c96:	6821      	ldr	r1, [r4, #0]
 c004c98:	011a      	lsls	r2, r3, #4
      if (Divider == DIVIDER_P_UPDATE)
 c004c9a:	2f00      	cmp	r7, #0
 c004c9c:	d031      	beq.n	c004d02 <RCCEx_PLLSAI1_Config+0xb6>
      else if (Divider == DIVIDER_Q_UPDATE)
 c004c9e:	2f01      	cmp	r7, #1
        MODIFY_REG(RCC->PLLSAI1CFGR,
 c004ca0:	4d29      	ldr	r5, [pc, #164]	@ (c004d48 <RCCEx_PLLSAI1_Config+0xfc>)
      else if (Divider == DIVIDER_Q_UPDATE)
 c004ca2:	d043      	beq.n	c004d2c <RCCEx_PLLSAI1_Config+0xe0>
        MODIFY_REG(RCC->PLLSAI1CFGR,
 c004ca4:	692e      	ldr	r6, [r5, #16]
 c004ca6:	4b29      	ldr	r3, [pc, #164]	@ (c004d4c <RCCEx_PLLSAI1_Config+0x100>)
 c004ca8:	4033      	ands	r3, r6
 c004caa:	430b      	orrs	r3, r1
 c004cac:	4303      	orrs	r3, r0
 c004cae:	4313      	orrs	r3, r2
 c004cb0:	6962      	ldr	r2, [r4, #20]
 c004cb2:	0852      	lsrs	r2, r2, #1
 c004cb4:	3a01      	subs	r2, #1
 c004cb6:	ea43 6342 	orr.w	r3, r3, r2, lsl #25
 c004cba:	612b      	str	r3, [r5, #16]
      __HAL_RCC_PLLSAI1_ENABLE();
 c004cbc:	4d22      	ldr	r5, [pc, #136]	@ (c004d48 <RCCEx_PLLSAI1_Config+0xfc>)
 c004cbe:	682b      	ldr	r3, [r5, #0]
 c004cc0:	f043 6380 	orr.w	r3, r3, #67108864	@ 0x4000000
 c004cc4:	602b      	str	r3, [r5, #0]
      tickstart = HAL_GetTick();
 c004cc6:	f7fe fdfb 	bl	c0038c0 <HAL_GetTick>
 c004cca:	4606      	mov	r6, r0
      while (READ_BIT(RCC->CR, RCC_CR_PLLSAI1RDY) == 0U)
 c004ccc:	e004      	b.n	c004cd8 <RCCEx_PLLSAI1_Config+0x8c>
        if ((HAL_GetTick() - tickstart) > PLLSAI1_TIMEOUT_VALUE)
 c004cce:	f7fe fdf7 	bl	c0038c0 <HAL_GetTick>
 c004cd2:	1b83      	subs	r3, r0, r6
 c004cd4:	2b02      	cmp	r3, #2
 c004cd6:	d825      	bhi.n	c004d24 <RCCEx_PLLSAI1_Config+0xd8>
      while (READ_BIT(RCC->CR, RCC_CR_PLLSAI1RDY) == 0U)
 c004cd8:	682b      	ldr	r3, [r5, #0]
 c004cda:	011b      	lsls	r3, r3, #4
 c004cdc:	d5f7      	bpl.n	c004cce <RCCEx_PLLSAI1_Config+0x82>
        __HAL_RCC_PLLSAI1CLKOUT_ENABLE(pPllSai1->PLLSAI1ClockOut);
 c004cde:	4a1a      	ldr	r2, [pc, #104]	@ (c004d48 <RCCEx_PLLSAI1_Config+0xfc>)
 c004ce0:	69a1      	ldr	r1, [r4, #24]
 c004ce2:	6913      	ldr	r3, [r2, #16]
 c004ce4:	2000      	movs	r0, #0
 c004ce6:	430b      	orrs	r3, r1
 c004ce8:	6113      	str	r3, [r2, #16]
}
 c004cea:	bdf8      	pop	{r3, r4, r5, r6, r7, pc}
      if (HAL_IS_BIT_CLR(RCC->CR, RCC_CR_MSIRDY))
 c004cec:	4a16      	ldr	r2, [pc, #88]	@ (c004d48 <RCCEx_PLLSAI1_Config+0xfc>)
 c004cee:	6812      	ldr	r2, [r2, #0]
 c004cf0:	0796      	lsls	r6, r2, #30
 c004cf2:	d4bb      	bmi.n	c004c6c <RCCEx_PLLSAI1_Config+0x20>
}
 c004cf4:	bdf8      	pop	{r3, r4, r5, r6, r7, pc}
      if (HAL_IS_BIT_CLR(RCC->CR, (RCC_CR_HSERDY | RCC_CR_HSEBYP)))
 c004cf6:	4b14      	ldr	r3, [pc, #80]	@ (c004d48 <RCCEx_PLLSAI1_Config+0xfc>)
 c004cf8:	681b      	ldr	r3, [r3, #0]
 c004cfa:	f413 2fc0 	tst.w	r3, #393216	@ 0x60000
 c004cfe:	d0af      	beq.n	c004c60 <RCCEx_PLLSAI1_Config+0x14>
 c004d00:	e7b4      	b.n	c004c6c <RCCEx_PLLSAI1_Config+0x20>
        MODIFY_REG(RCC->PLLSAI1CFGR,
 c004d02:	4d11      	ldr	r5, [pc, #68]	@ (c004d48 <RCCEx_PLLSAI1_Config+0xfc>)
 c004d04:	4b12      	ldr	r3, [pc, #72]	@ (c004d50 <RCCEx_PLLSAI1_Config+0x104>)
 c004d06:	692e      	ldr	r6, [r5, #16]
 c004d08:	4033      	ands	r3, r6
 c004d0a:	430b      	orrs	r3, r1
 c004d0c:	68e1      	ldr	r1, [r4, #12]
 c004d0e:	4303      	orrs	r3, r0
 c004d10:	ea43 63c1 	orr.w	r3, r3, r1, lsl #27
 c004d14:	4313      	orrs	r3, r2
 c004d16:	612b      	str	r3, [r5, #16]
 c004d18:	e7d0      	b.n	c004cbc <RCCEx_PLLSAI1_Config+0x70>
        if (READ_BIT(RCC->CR, RCC_CR_PLLSAI1RDY) != 0U)
 c004d1a:	682b      	ldr	r3, [r5, #0]
 c004d1c:	0118      	lsls	r0, r3, #4
 c004d1e:	d5b6      	bpl.n	c004c8e <RCCEx_PLLSAI1_Config+0x42>
            status = HAL_TIMEOUT;
 c004d20:	2003      	movs	r0, #3
}
 c004d22:	bdf8      	pop	{r3, r4, r5, r6, r7, pc}
          if (READ_BIT(RCC->CR, RCC_CR_PLLSAI1RDY) == 0U)
 c004d24:	682b      	ldr	r3, [r5, #0]
 c004d26:	011a      	lsls	r2, r3, #4
 c004d28:	d5fa      	bpl.n	c004d20 <RCCEx_PLLSAI1_Config+0xd4>
 c004d2a:	e7d8      	b.n	c004cde <RCCEx_PLLSAI1_Config+0x92>
        MODIFY_REG(RCC->PLLSAI1CFGR,
 c004d2c:	692e      	ldr	r6, [r5, #16]
 c004d2e:	4b09      	ldr	r3, [pc, #36]	@ (c004d54 <RCCEx_PLLSAI1_Config+0x108>)
 c004d30:	4033      	ands	r3, r6
 c004d32:	430b      	orrs	r3, r1
 c004d34:	6921      	ldr	r1, [r4, #16]
 c004d36:	4303      	orrs	r3, r0
 c004d38:	4313      	orrs	r3, r2
 c004d3a:	084a      	lsrs	r2, r1, #1
 c004d3c:	3a01      	subs	r2, #1
 c004d3e:	ea43 5342 	orr.w	r3, r3, r2, lsl #21
 c004d42:	612b      	str	r3, [r5, #16]
 c004d44:	e7ba      	b.n	c004cbc <RCCEx_PLLSAI1_Config+0x70>
 c004d46:	bf00      	nop
 c004d48:	50021000 	.word	0x50021000
 c004d4c:	f9ff800c 	.word	0xf9ff800c
 c004d50:	07ff800c 	.word	0x07ff800c
 c004d54:	ff9f800c 	.word	0xff9f800c

0c004d58 <RCCEx_PLLSAI2_Config.constprop.0>:
  *
  * @note   PLLSAI2 is temporary disable to apply new parameters
  *
  * @retval HAL status
  */
static HAL_StatusTypeDef RCCEx_PLLSAI2_Config(RCC_PLLSAI2InitTypeDef *pPllSai2, uint32_t Divider)
 c004d58:	b570      	push	{r4, r5, r6, lr}
 c004d5a:	4604      	mov	r4, r0
  assert_param(IS_RCC_PLLSAI2M_VALUE(pPllSai2->PLLSAI2M));
  assert_param(IS_RCC_PLLSAI2N_VALUE(pPllSai2->PLLSAI2N));
  assert_param(IS_RCC_PLLSAI2CLOCKOUT_VALUE(pPllSai2->PLLSAI2ClockOut));

  /* Check PLLSAI2 clock source availability */
  switch (pPllSai2->PLLSAI2Source)
 c004d5c:	6800      	ldr	r0, [r0, #0]
 c004d5e:	2802      	cmp	r0, #2
 c004d60:	d005      	beq.n	c004d6e <RCCEx_PLLSAI2_Config.constprop.0+0x16>
 c004d62:	2803      	cmp	r0, #3
 c004d64:	d045      	beq.n	c004df2 <RCCEx_PLLSAI2_Config.constprop.0+0x9a>
 c004d66:	2801      	cmp	r0, #1
 c004d68:	d03e      	beq.n	c004de8 <RCCEx_PLLSAI2_Config.constprop.0+0x90>
      }
      break;
    case RCC_PLLSOURCE_HSI:
      if (HAL_IS_BIT_CLR(RCC->CR, RCC_CR_HSIRDY))
      {
        status = HAL_ERROR;
 c004d6a:	2001      	movs	r0, #1
      }
    }
  }

  return status;
}
 c004d6c:	bd70      	pop	{r4, r5, r6, pc}
      if (HAL_IS_BIT_CLR(RCC->CR, RCC_CR_HSIRDY))
 c004d6e:	4b28      	ldr	r3, [pc, #160]	@ (c004e10 <RCCEx_PLLSAI2_Config.constprop.0+0xb8>)
 c004d70:	681b      	ldr	r3, [r3, #0]
 c004d72:	055d      	lsls	r5, r3, #21
 c004d74:	d5f9      	bpl.n	c004d6a <RCCEx_PLLSAI2_Config.constprop.0+0x12>
    __HAL_RCC_PLLSAI2_DISABLE();
 c004d76:	4d26      	ldr	r5, [pc, #152]	@ (c004e10 <RCCEx_PLLSAI2_Config.constprop.0+0xb8>)
 c004d78:	682b      	ldr	r3, [r5, #0]
 c004d7a:	f023 5380 	bic.w	r3, r3, #268435456	@ 0x10000000
 c004d7e:	602b      	str	r3, [r5, #0]
    tickstart = HAL_GetTick();
 c004d80:	f7fe fd9e 	bl	c0038c0 <HAL_GetTick>
 c004d84:	4606      	mov	r6, r0
    while (READ_BIT(RCC->CR, RCC_CR_PLLSAI2RDY) != 0U)
 c004d86:	e004      	b.n	c004d92 <RCCEx_PLLSAI2_Config.constprop.0+0x3a>
      if ((HAL_GetTick() - tickstart) > PLLSAI2_TIMEOUT_VALUE)
 c004d88:	f7fe fd9a 	bl	c0038c0 <HAL_GetTick>
 c004d8c:	1b83      	subs	r3, r0, r6
 c004d8e:	2b02      	cmp	r3, #2
 c004d90:	d835      	bhi.n	c004dfe <RCCEx_PLLSAI2_Config.constprop.0+0xa6>
    while (READ_BIT(RCC->CR, RCC_CR_PLLSAI2RDY) != 0U)
 c004d92:	682b      	ldr	r3, [r5, #0]
 c004d94:	0099      	lsls	r1, r3, #2
 c004d96:	d4f7      	bmi.n	c004d88 <RCCEx_PLLSAI2_Config.constprop.0+0x30>
        MODIFY_REG(RCC->PLLSAI2CFGR,
 c004d98:	4d1d      	ldr	r5, [pc, #116]	@ (c004e10 <RCCEx_PLLSAI2_Config.constprop.0+0xb8>)
 c004d9a:	4b1e      	ldr	r3, [pc, #120]	@ (c004e14 <RCCEx_PLLSAI2_Config.constprop.0+0xbc>)
 c004d9c:	6969      	ldr	r1, [r5, #20]
 c004d9e:	6822      	ldr	r2, [r4, #0]
 c004da0:	400b      	ands	r3, r1
 c004da2:	4313      	orrs	r3, r2
 c004da4:	e9d4 1202 	ldrd	r1, r2, [r4, #8]
 c004da8:	ea43 2301 	orr.w	r3, r3, r1, lsl #8
 c004dac:	ea43 63c2 	orr.w	r3, r3, r2, lsl #27
 c004db0:	6862      	ldr	r2, [r4, #4]
 c004db2:	3a01      	subs	r2, #1
 c004db4:	ea43 1302 	orr.w	r3, r3, r2, lsl #4
 c004db8:	616b      	str	r3, [r5, #20]
      __HAL_RCC_PLLSAI2_ENABLE();
 c004dba:	682b      	ldr	r3, [r5, #0]
 c004dbc:	f043 5380 	orr.w	r3, r3, #268435456	@ 0x10000000
 c004dc0:	602b      	str	r3, [r5, #0]
      tickstart = HAL_GetTick();
 c004dc2:	f7fe fd7d 	bl	c0038c0 <HAL_GetTick>
 c004dc6:	4606      	mov	r6, r0
      while (READ_BIT(RCC->CR, RCC_CR_PLLSAI2RDY) == 0U)
 c004dc8:	e004      	b.n	c004dd4 <RCCEx_PLLSAI2_Config.constprop.0+0x7c>
        if ((HAL_GetTick() - tickstart) > PLLSAI2_TIMEOUT_VALUE)
 c004dca:	f7fe fd79 	bl	c0038c0 <HAL_GetTick>
 c004dce:	1b83      	subs	r3, r0, r6
 c004dd0:	2b02      	cmp	r3, #2
 c004dd2:	d819      	bhi.n	c004e08 <RCCEx_PLLSAI2_Config.constprop.0+0xb0>
      while (READ_BIT(RCC->CR, RCC_CR_PLLSAI2RDY) == 0U)
 c004dd4:	682b      	ldr	r3, [r5, #0]
 c004dd6:	009b      	lsls	r3, r3, #2
 c004dd8:	d5f7      	bpl.n	c004dca <RCCEx_PLLSAI2_Config.constprop.0+0x72>
        __HAL_RCC_PLLSAI2CLKOUT_ENABLE(pPllSai2->PLLSAI2ClockOut);
 c004dda:	4a0d      	ldr	r2, [pc, #52]	@ (c004e10 <RCCEx_PLLSAI2_Config.constprop.0+0xb8>)
 c004ddc:	6921      	ldr	r1, [r4, #16]
 c004dde:	6953      	ldr	r3, [r2, #20]
 c004de0:	2000      	movs	r0, #0
 c004de2:	430b      	orrs	r3, r1
 c004de4:	6153      	str	r3, [r2, #20]
}
 c004de6:	bd70      	pop	{r4, r5, r6, pc}
      if (HAL_IS_BIT_CLR(RCC->CR, RCC_CR_MSIRDY))
 c004de8:	4a09      	ldr	r2, [pc, #36]	@ (c004e10 <RCCEx_PLLSAI2_Config.constprop.0+0xb8>)
 c004dea:	6812      	ldr	r2, [r2, #0]
 c004dec:	0796      	lsls	r6, r2, #30
 c004dee:	d4c2      	bmi.n	c004d76 <RCCEx_PLLSAI2_Config.constprop.0+0x1e>
}
 c004df0:	bd70      	pop	{r4, r5, r6, pc}
      if (HAL_IS_BIT_CLR(RCC->CR, (RCC_CR_HSERDY | RCC_CR_HSEBYP)))
 c004df2:	4b07      	ldr	r3, [pc, #28]	@ (c004e10 <RCCEx_PLLSAI2_Config.constprop.0+0xb8>)
 c004df4:	681b      	ldr	r3, [r3, #0]
 c004df6:	f413 2fc0 	tst.w	r3, #393216	@ 0x60000
 c004dfa:	d0b6      	beq.n	c004d6a <RCCEx_PLLSAI2_Config.constprop.0+0x12>
 c004dfc:	e7bb      	b.n	c004d76 <RCCEx_PLLSAI2_Config.constprop.0+0x1e>
        if (READ_BIT(RCC->CR, RCC_CR_PLLSAI2RDY) != 0U)
 c004dfe:	682b      	ldr	r3, [r5, #0]
 c004e00:	0098      	lsls	r0, r3, #2
 c004e02:	d5c9      	bpl.n	c004d98 <RCCEx_PLLSAI2_Config.constprop.0+0x40>
            status = HAL_TIMEOUT;
 c004e04:	2003      	movs	r0, #3
}
 c004e06:	bd70      	pop	{r4, r5, r6, pc}
          if (READ_BIT(RCC->CR, RCC_CR_PLLSAI2RDY) == 0U)
 c004e08:	682b      	ldr	r3, [r5, #0]
 c004e0a:	009a      	lsls	r2, r3, #2
 c004e0c:	d5fa      	bpl.n	c004e04 <RCCEx_PLLSAI2_Config.constprop.0+0xac>
 c004e0e:	e7e4      	b.n	c004dda <RCCEx_PLLSAI2_Config.constprop.0+0x82>
 c004e10:	50021000 	.word	0x50021000
 c004e14:	07ff800c 	.word	0x07ff800c

0c004e18 <HAL_RCCEx_PeriphCLKConfig>:
{
 c004e18:	e92d 47f0 	stmdb	sp!, {r4, r5, r6, r7, r8, r9, sl, lr}
  if ((((PeriphClkInit->PeriphClockSelection) & RCC_PERIPHCLK_SAI1) == RCC_PERIPHCLK_SAI1))
 c004e1c:	6803      	ldr	r3, [r0, #0]
{
 c004e1e:	4604      	mov	r4, r0
  if ((((PeriphClkInit->PeriphClockSelection) & RCC_PERIPHCLK_SAI1) == RCC_PERIPHCLK_SAI1))
 c004e20:	f413 6600 	ands.w	r6, r3, #2048	@ 0x800
{
 c004e24:	b082      	sub	sp, #8
  if ((((PeriphClkInit->PeriphClockSelection) & RCC_PERIPHCLK_SAI1) == RCC_PERIPHCLK_SAI1))
 c004e26:	d013      	beq.n	c004e50 <HAL_RCCEx_PeriphCLKConfig+0x38>
    switch (PeriphClkInit->Sai1ClockSelection)
 c004e28:	6ec1      	ldr	r1, [r0, #108]	@ 0x6c
 c004e2a:	2940      	cmp	r1, #64	@ 0x40
 c004e2c:	f000 8246 	beq.w	c0052bc <HAL_RCCEx_PeriphCLKConfig+0x4a4>
 c004e30:	f200 8157 	bhi.w	c0050e2 <HAL_RCCEx_PeriphCLKConfig+0x2ca>
 c004e34:	2900      	cmp	r1, #0
 c004e36:	f000 81f4 	beq.w	c005222 <HAL_RCCEx_PeriphCLKConfig+0x40a>
 c004e3a:	2920      	cmp	r1, #32
 c004e3c:	f040 826f 	bne.w	c00531e <HAL_RCCEx_PeriphCLKConfig+0x506>
        ret = RCCEx_PLLSAI2_Config(&(PeriphClkInit->PLLSAI2), DIVIDER_P_UPDATE);
 c004e40:	3020      	adds	r0, #32
 c004e42:	f7ff ff89 	bl	c004d58 <RCCEx_PLLSAI2_Config.constprop.0>
 c004e46:	4606      	mov	r6, r0
  if ((((PeriphClkInit->PeriphClockSelection) & RCC_PERIPHCLK_SAI2) == RCC_PERIPHCLK_SAI2))
 c004e48:	6823      	ldr	r3, [r4, #0]
    if (ret == HAL_OK)
 c004e4a:	2e00      	cmp	r6, #0
 c004e4c:	f000 8234 	beq.w	c0052b8 <HAL_RCCEx_PeriphCLKConfig+0x4a0>
  if ((((PeriphClkInit->PeriphClockSelection) & RCC_PERIPHCLK_SAI2) == RCC_PERIPHCLK_SAI2))
 c004e50:	04df      	lsls	r7, r3, #19
 c004e52:	f140 8159 	bpl.w	c005108 <HAL_RCCEx_PeriphCLKConfig+0x2f0>
    switch (PeriphClkInit->Sai2ClockSelection)
 c004e56:	6f21      	ldr	r1, [r4, #112]	@ 0x70
 c004e58:	f5b1 7f00 	cmp.w	r1, #512	@ 0x200
 c004e5c:	f000 8234 	beq.w	c0052c8 <HAL_RCCEx_PeriphCLKConfig+0x4b0>
 c004e60:	f200 81af 	bhi.w	c0051c2 <HAL_RCCEx_PeriphCLKConfig+0x3aa>
 c004e64:	2900      	cmp	r1, #0
 c004e66:	f000 81e5 	beq.w	c005234 <HAL_RCCEx_PeriphCLKConfig+0x41c>
 c004e6a:	f5b1 7f80 	cmp.w	r1, #256	@ 0x100
 c004e6e:	f040 8254 	bne.w	c00531a <HAL_RCCEx_PeriphCLKConfig+0x502>
        ret = RCCEx_PLLSAI2_Config(&(PeriphClkInit->PLLSAI2), DIVIDER_P_UPDATE);
 c004e72:	f104 0020 	add.w	r0, r4, #32
 c004e76:	f7ff ff6f 	bl	c004d58 <RCCEx_PLLSAI2_Config.constprop.0>
 c004e7a:	4607      	mov	r7, r0
  if ((PeriphClkInit->PeriphClockSelection & RCC_PERIPHCLK_RTC) == RCC_PERIPHCLK_RTC)
 c004e7c:	6823      	ldr	r3, [r4, #0]
    if (ret == HAL_OK)
 c004e7e:	2f00      	cmp	r7, #0
 c004e80:	f040 81aa 	bne.w	c0051d8 <HAL_RCCEx_PeriphCLKConfig+0x3c0>
      __HAL_RCC_SAI2_CONFIG(PeriphClkInit->Sai2ClockSelection);
 c004e84:	49aa      	ldr	r1, [pc, #680]	@ (c005130 <HAL_RCCEx_PeriphCLKConfig+0x318>)
 c004e86:	6f20      	ldr	r0, [r4, #112]	@ 0x70
 c004e88:	f8d1 209c 	ldr.w	r2, [r1, #156]	@ 0x9c
  if ((PeriphClkInit->PeriphClockSelection & RCC_PERIPHCLK_RTC) == RCC_PERIPHCLK_RTC)
 c004e8c:	039d      	lsls	r5, r3, #14
      __HAL_RCC_SAI2_CONFIG(PeriphClkInit->Sai2ClockSelection);
 c004e8e:	f422 62e0 	bic.w	r2, r2, #1792	@ 0x700
 c004e92:	ea42 0200 	orr.w	r2, r2, r0
 c004e96:	f8c1 209c 	str.w	r2, [r1, #156]	@ 0x9c
  if ((PeriphClkInit->PeriphClockSelection & RCC_PERIPHCLK_RTC) == RCC_PERIPHCLK_RTC)
 c004e9a:	f100 8139 	bmi.w	c005110 <HAL_RCCEx_PeriphCLKConfig+0x2f8>
  if (((PeriphClkInit->PeriphClockSelection) & RCC_PERIPHCLK_USART1) == RCC_PERIPHCLK_USART1)
 c004e9e:	07d9      	lsls	r1, r3, #31
 c004ea0:	d508      	bpl.n	c004eb4 <HAL_RCCEx_PeriphCLKConfig+0x9c>
    __HAL_RCC_USART1_CONFIG(PeriphClkInit->Usart1ClockSelection);
 c004ea2:	49a3      	ldr	r1, [pc, #652]	@ (c005130 <HAL_RCCEx_PeriphCLKConfig+0x318>)
 c004ea4:	6b60      	ldr	r0, [r4, #52]	@ 0x34
 c004ea6:	f8d1 2088 	ldr.w	r2, [r1, #136]	@ 0x88
 c004eaa:	f022 0203 	bic.w	r2, r2, #3
 c004eae:	4302      	orrs	r2, r0
 c004eb0:	f8c1 2088 	str.w	r2, [r1, #136]	@ 0x88
  if (((PeriphClkInit->PeriphClockSelection) & RCC_PERIPHCLK_USART2) == RCC_PERIPHCLK_USART2)
 c004eb4:	079a      	lsls	r2, r3, #30
 c004eb6:	d508      	bpl.n	c004eca <HAL_RCCEx_PeriphCLKConfig+0xb2>
    __HAL_RCC_USART2_CONFIG(PeriphClkInit->Usart2ClockSelection);
 c004eb8:	499d      	ldr	r1, [pc, #628]	@ (c005130 <HAL_RCCEx_PeriphCLKConfig+0x318>)
 c004eba:	6ba0      	ldr	r0, [r4, #56]	@ 0x38
 c004ebc:	f8d1 2088 	ldr.w	r2, [r1, #136]	@ 0x88
 c004ec0:	f022 020c 	bic.w	r2, r2, #12
 c004ec4:	4302      	orrs	r2, r0
 c004ec6:	f8c1 2088 	str.w	r2, [r1, #136]	@ 0x88
  if (((PeriphClkInit->PeriphClockSelection) & RCC_PERIPHCLK_USART3) == RCC_PERIPHCLK_USART3)
 c004eca:	075d      	lsls	r5, r3, #29
 c004ecc:	d508      	bpl.n	c004ee0 <HAL_RCCEx_PeriphCLKConfig+0xc8>
    __HAL_RCC_USART3_CONFIG(PeriphClkInit->Usart3ClockSelection);
 c004ece:	4998      	ldr	r1, [pc, #608]	@ (c005130 <HAL_RCCEx_PeriphCLKConfig+0x318>)
 c004ed0:	6be0      	ldr	r0, [r4, #60]	@ 0x3c
 c004ed2:	f8d1 2088 	ldr.w	r2, [r1, #136]	@ 0x88
 c004ed6:	f022 0230 	bic.w	r2, r2, #48	@ 0x30
 c004eda:	4302      	orrs	r2, r0
 c004edc:	f8c1 2088 	str.w	r2, [r1, #136]	@ 0x88
  if (((PeriphClkInit->PeriphClockSelection) & RCC_PERIPHCLK_UART4) == RCC_PERIPHCLK_UART4)
 c004ee0:	0718      	lsls	r0, r3, #28
 c004ee2:	d508      	bpl.n	c004ef6 <HAL_RCCEx_PeriphCLKConfig+0xde>
    __HAL_RCC_UART4_CONFIG(PeriphClkInit->Uart4ClockSelection);
 c004ee4:	4992      	ldr	r1, [pc, #584]	@ (c005130 <HAL_RCCEx_PeriphCLKConfig+0x318>)
 c004ee6:	6c20      	ldr	r0, [r4, #64]	@ 0x40
 c004ee8:	f8d1 2088 	ldr.w	r2, [r1, #136]	@ 0x88
 c004eec:	f022 02c0 	bic.w	r2, r2, #192	@ 0xc0
 c004ef0:	4302      	orrs	r2, r0
 c004ef2:	f8c1 2088 	str.w	r2, [r1, #136]	@ 0x88
  if (((PeriphClkInit->PeriphClockSelection) & RCC_PERIPHCLK_UART5) == RCC_PERIPHCLK_UART5)
 c004ef6:	06d9      	lsls	r1, r3, #27
 c004ef8:	d508      	bpl.n	c004f0c <HAL_RCCEx_PeriphCLKConfig+0xf4>
    __HAL_RCC_UART5_CONFIG(PeriphClkInit->Uart5ClockSelection);
 c004efa:	498d      	ldr	r1, [pc, #564]	@ (c005130 <HAL_RCCEx_PeriphCLKConfig+0x318>)
 c004efc:	6c60      	ldr	r0, [r4, #68]	@ 0x44
 c004efe:	f8d1 2088 	ldr.w	r2, [r1, #136]	@ 0x88
 c004f02:	f422 7240 	bic.w	r2, r2, #768	@ 0x300
 c004f06:	4302      	orrs	r2, r0
 c004f08:	f8c1 2088 	str.w	r2, [r1, #136]	@ 0x88
  if (((PeriphClkInit->PeriphClockSelection) & RCC_PERIPHCLK_LPUART1) == RCC_PERIPHCLK_LPUART1)
 c004f0c:	069a      	lsls	r2, r3, #26
 c004f0e:	d508      	bpl.n	c004f22 <HAL_RCCEx_PeriphCLKConfig+0x10a>
    __HAL_RCC_LPUART1_CONFIG(PeriphClkInit->Lpuart1ClockSelection);
 c004f10:	4987      	ldr	r1, [pc, #540]	@ (c005130 <HAL_RCCEx_PeriphCLKConfig+0x318>)
 c004f12:	6ca0      	ldr	r0, [r4, #72]	@ 0x48
 c004f14:	f8d1 2088 	ldr.w	r2, [r1, #136]	@ 0x88
 c004f18:	f422 6240 	bic.w	r2, r2, #3072	@ 0xc00
 c004f1c:	4302      	orrs	r2, r0
 c004f1e:	f8c1 2088 	str.w	r2, [r1, #136]	@ 0x88
  if (((PeriphClkInit->PeriphClockSelection) & RCC_PERIPHCLK_LPTIM1) == (RCC_PERIPHCLK_LPTIM1))
 c004f22:	059d      	lsls	r5, r3, #22
 c004f24:	d508      	bpl.n	c004f38 <HAL_RCCEx_PeriphCLKConfig+0x120>
    __HAL_RCC_LPTIM1_CONFIG(PeriphClkInit->Lptim1ClockSelection);
 c004f26:	4982      	ldr	r1, [pc, #520]	@ (c005130 <HAL_RCCEx_PeriphCLKConfig+0x318>)
 c004f28:	6de0      	ldr	r0, [r4, #92]	@ 0x5c
 c004f2a:	f8d1 2088 	ldr.w	r2, [r1, #136]	@ 0x88
 c004f2e:	f422 2240 	bic.w	r2, r2, #786432	@ 0xc0000
 c004f32:	4302      	orrs	r2, r0
 c004f34:	f8c1 2088 	str.w	r2, [r1, #136]	@ 0x88
  if (((PeriphClkInit->PeriphClockSelection) & RCC_PERIPHCLK_LPTIM2) == (RCC_PERIPHCLK_LPTIM2))
 c004f38:	0558      	lsls	r0, r3, #21
 c004f3a:	d508      	bpl.n	c004f4e <HAL_RCCEx_PeriphCLKConfig+0x136>
    __HAL_RCC_LPTIM2_CONFIG(PeriphClkInit->Lptim2ClockSelection);
 c004f3c:	497c      	ldr	r1, [pc, #496]	@ (c005130 <HAL_RCCEx_PeriphCLKConfig+0x318>)
 c004f3e:	6e20      	ldr	r0, [r4, #96]	@ 0x60
 c004f40:	f8d1 2088 	ldr.w	r2, [r1, #136]	@ 0x88
 c004f44:	f422 1240 	bic.w	r2, r2, #3145728	@ 0x300000
 c004f48:	4302      	orrs	r2, r0
 c004f4a:	f8c1 2088 	str.w	r2, [r1, #136]	@ 0x88
  if (((PeriphClkInit->PeriphClockSelection) & RCC_PERIPHCLK_LPTIM3) == (RCC_PERIPHCLK_LPTIM3))
 c004f4e:	0259      	lsls	r1, r3, #9
 c004f50:	d508      	bpl.n	c004f64 <HAL_RCCEx_PeriphCLKConfig+0x14c>
    __HAL_RCC_LPTIM3_CONFIG(PeriphClkInit->Lptim3ClockSelection);
 c004f52:	4977      	ldr	r1, [pc, #476]	@ (c005130 <HAL_RCCEx_PeriphCLKConfig+0x318>)
 c004f54:	6e60      	ldr	r0, [r4, #100]	@ 0x64
 c004f56:	f8d1 2088 	ldr.w	r2, [r1, #136]	@ 0x88
 c004f5a:	f422 0240 	bic.w	r2, r2, #12582912	@ 0xc00000
 c004f5e:	4302      	orrs	r2, r0
 c004f60:	f8c1 2088 	str.w	r2, [r1, #136]	@ 0x88
  if (((PeriphClkInit->PeriphClockSelection) & RCC_PERIPHCLK_FDCAN) == (RCC_PERIPHCLK_FDCAN))
 c004f64:	019a      	lsls	r2, r3, #6
 c004f66:	d50c      	bpl.n	c004f82 <HAL_RCCEx_PeriphCLKConfig+0x16a>
    switch (PeriphClkInit->FdcanClockSelection)
 c004f68:	6ea2      	ldr	r2, [r4, #104]	@ 0x68
 c004f6a:	f1b2 7f80 	cmp.w	r2, #16777216	@ 0x1000000
 c004f6e:	f000 8193 	beq.w	c005298 <HAL_RCCEx_PeriphCLKConfig+0x480>
 c004f72:	f1b2 7f00 	cmp.w	r2, #33554432	@ 0x2000000
 c004f76:	f000 813d 	beq.w	c0051f4 <HAL_RCCEx_PeriphCLKConfig+0x3dc>
 c004f7a:	2a00      	cmp	r2, #0
 c004f7c:	f000 8140 	beq.w	c005200 <HAL_RCCEx_PeriphCLKConfig+0x3e8>
 c004f80:	2601      	movs	r6, #1
  if (((PeriphClkInit->PeriphClockSelection) & RCC_PERIPHCLK_I2C1) == RCC_PERIPHCLK_I2C1)
 c004f82:	065f      	lsls	r7, r3, #25
 c004f84:	d508      	bpl.n	c004f98 <HAL_RCCEx_PeriphCLKConfig+0x180>
    __HAL_RCC_I2C1_CONFIG(PeriphClkInit->I2c1ClockSelection);
 c004f86:	496a      	ldr	r1, [pc, #424]	@ (c005130 <HAL_RCCEx_PeriphCLKConfig+0x318>)
 c004f88:	6ce0      	ldr	r0, [r4, #76]	@ 0x4c
 c004f8a:	f8d1 2088 	ldr.w	r2, [r1, #136]	@ 0x88
 c004f8e:	f422 5240 	bic.w	r2, r2, #12288	@ 0x3000
 c004f92:	4302      	orrs	r2, r0
 c004f94:	f8c1 2088 	str.w	r2, [r1, #136]	@ 0x88
  if (((PeriphClkInit->PeriphClockSelection) & RCC_PERIPHCLK_I2C2) == RCC_PERIPHCLK_I2C2)
 c004f98:	061d      	lsls	r5, r3, #24
 c004f9a:	d508      	bpl.n	c004fae <HAL_RCCEx_PeriphCLKConfig+0x196>
    __HAL_RCC_I2C2_CONFIG(PeriphClkInit->I2c2ClockSelection);
 c004f9c:	4964      	ldr	r1, [pc, #400]	@ (c005130 <HAL_RCCEx_PeriphCLKConfig+0x318>)
 c004f9e:	6d20      	ldr	r0, [r4, #80]	@ 0x50
 c004fa0:	f8d1 2088 	ldr.w	r2, [r1, #136]	@ 0x88
 c004fa4:	f422 4240 	bic.w	r2, r2, #49152	@ 0xc000
 c004fa8:	4302      	orrs	r2, r0
 c004faa:	f8c1 2088 	str.w	r2, [r1, #136]	@ 0x88
  if (((PeriphClkInit->PeriphClockSelection) & RCC_PERIPHCLK_I2C3) == RCC_PERIPHCLK_I2C3)
 c004fae:	05d8      	lsls	r0, r3, #23
 c004fb0:	d508      	bpl.n	c004fc4 <HAL_RCCEx_PeriphCLKConfig+0x1ac>
    __HAL_RCC_I2C3_CONFIG(PeriphClkInit->I2c3ClockSelection);
 c004fb2:	495f      	ldr	r1, [pc, #380]	@ (c005130 <HAL_RCCEx_PeriphCLKConfig+0x318>)
 c004fb4:	6d60      	ldr	r0, [r4, #84]	@ 0x54
 c004fb6:	f8d1 2088 	ldr.w	r2, [r1, #136]	@ 0x88
 c004fba:	f422 3240 	bic.w	r2, r2, #196608	@ 0x30000
 c004fbe:	4302      	orrs	r2, r0
 c004fc0:	f8c1 2088 	str.w	r2, [r1, #136]	@ 0x88
  if (((PeriphClkInit->PeriphClockSelection) & RCC_PERIPHCLK_I2C4) == RCC_PERIPHCLK_I2C4)
 c004fc4:	02d9      	lsls	r1, r3, #11
 c004fc6:	d508      	bpl.n	c004fda <HAL_RCCEx_PeriphCLKConfig+0x1c2>
    __HAL_RCC_I2C4_CONFIG(PeriphClkInit->I2c4ClockSelection);
 c004fc8:	4959      	ldr	r1, [pc, #356]	@ (c005130 <HAL_RCCEx_PeriphCLKConfig+0x318>)
 c004fca:	6da0      	ldr	r0, [r4, #88]	@ 0x58
 c004fcc:	f8d1 209c 	ldr.w	r2, [r1, #156]	@ 0x9c
 c004fd0:	f022 0203 	bic.w	r2, r2, #3
 c004fd4:	4302      	orrs	r2, r0
 c004fd6:	f8c1 209c 	str.w	r2, [r1, #156]	@ 0x9c
  if (((PeriphClkInit->PeriphClockSelection) & RCC_PERIPHCLK_USB) == (RCC_PERIPHCLK_USB))
 c004fda:	049a      	lsls	r2, r3, #18
 c004fdc:	d511      	bpl.n	c005002 <HAL_RCCEx_PeriphCLKConfig+0x1ea>
    __HAL_RCC_USB_CONFIG(PeriphClkInit->UsbClockSelection);
 c004fde:	4954      	ldr	r1, [pc, #336]	@ (c005130 <HAL_RCCEx_PeriphCLKConfig+0x318>)
 c004fe0:	6f60      	ldr	r0, [r4, #116]	@ 0x74
 c004fe2:	f8d1 2088 	ldr.w	r2, [r1, #136]	@ 0x88
    if (PeriphClkInit->UsbClockSelection == RCC_USBCLKSOURCE_PLL)
 c004fe6:	f1b0 6f00 	cmp.w	r0, #134217728	@ 0x8000000
    __HAL_RCC_USB_CONFIG(PeriphClkInit->UsbClockSelection);
 c004fea:	f022 6240 	bic.w	r2, r2, #201326592	@ 0xc000000
 c004fee:	ea42 0200 	orr.w	r2, r2, r0
 c004ff2:	f8c1 2088 	str.w	r2, [r1, #136]	@ 0x88
    if (PeriphClkInit->UsbClockSelection == RCC_USBCLKSOURCE_PLL)
 c004ff6:	f000 8131 	beq.w	c00525c <HAL_RCCEx_PeriphCLKConfig+0x444>
      if (PeriphClkInit->UsbClockSelection == RCC_USBCLKSOURCE_PLLSAI1)
 c004ffa:	f1b0 6f80 	cmp.w	r0, #67108864	@ 0x4000000
 c004ffe:	f000 8177 	beq.w	c0052f0 <HAL_RCCEx_PeriphCLKConfig+0x4d8>
  if (((PeriphClkInit->PeriphClockSelection) & RCC_PERIPHCLK_SDMMC1) == (RCC_PERIPHCLK_SDMMC1))
 c005002:	031f      	lsls	r7, r3, #12
 c005004:	d51b      	bpl.n	c00503e <HAL_RCCEx_PeriphCLKConfig+0x226>
    __HAL_RCC_SDMMC1_CONFIG(PeriphClkInit->Sdmmc1ClockSelection);
 c005006:	6fa1      	ldr	r1, [r4, #120]	@ 0x78
 c005008:	f5b1 4f80 	cmp.w	r1, #16384	@ 0x4000
 c00500c:	f000 812b 	beq.w	c005266 <HAL_RCCEx_PeriphCLKConfig+0x44e>
 c005010:	4847      	ldr	r0, [pc, #284]	@ (c005130 <HAL_RCCEx_PeriphCLKConfig+0x318>)
    if (PeriphClkInit->Sdmmc1ClockSelection == RCC_SDMMC1CLKSOURCE_PLLSAI1)
 c005012:	f1b1 6f80 	cmp.w	r1, #67108864	@ 0x4000000
    __HAL_RCC_SDMMC1_CONFIG(PeriphClkInit->Sdmmc1ClockSelection);
 c005016:	f8d0 2088 	ldr.w	r2, [r0, #136]	@ 0x88
 c00501a:	f022 6240 	bic.w	r2, r2, #201326592	@ 0xc000000
 c00501e:	ea42 0201 	orr.w	r2, r2, r1
 c005022:	f8c0 2088 	str.w	r2, [r0, #136]	@ 0x88
 c005026:	f8d0 209c 	ldr.w	r2, [r0, #156]	@ 0x9c
 c00502a:	f422 4280 	bic.w	r2, r2, #16384	@ 0x4000
 c00502e:	f8c0 209c 	str.w	r2, [r0, #156]	@ 0x9c
    if (PeriphClkInit->Sdmmc1ClockSelection == RCC_SDMMC1CLKSOURCE_PLLSAI1)
 c005032:	f000 8165 	beq.w	c005300 <HAL_RCCEx_PeriphCLKConfig+0x4e8>
    else if (PeriphClkInit->Sdmmc1ClockSelection == RCC_SDMMC1CLKSOURCE_PLL)
 c005036:	f1b1 6f00 	cmp.w	r1, #134217728	@ 0x8000000
 c00503a:	f000 814c 	beq.w	c0052d6 <HAL_RCCEx_PeriphCLKConfig+0x4be>
  if (((PeriphClkInit->PeriphClockSelection) & RCC_PERIPHCLK_RNG) == (RCC_PERIPHCLK_RNG))
 c00503e:	035d      	lsls	r5, r3, #13
 c005040:	d511      	bpl.n	c005066 <HAL_RCCEx_PeriphCLKConfig+0x24e>
    __HAL_RCC_RNG_CONFIG(PeriphClkInit->RngClockSelection);
 c005042:	493b      	ldr	r1, [pc, #236]	@ (c005130 <HAL_RCCEx_PeriphCLKConfig+0x318>)
 c005044:	6fe0      	ldr	r0, [r4, #124]	@ 0x7c
 c005046:	f8d1 2088 	ldr.w	r2, [r1, #136]	@ 0x88
    if (PeriphClkInit->RngClockSelection == RCC_RNGCLKSOURCE_PLL)
 c00504a:	f1b0 6f00 	cmp.w	r0, #134217728	@ 0x8000000
    __HAL_RCC_RNG_CONFIG(PeriphClkInit->RngClockSelection);
 c00504e:	f022 6240 	bic.w	r2, r2, #201326592	@ 0xc000000
 c005052:	ea42 0200 	orr.w	r2, r2, r0
 c005056:	f8c1 2088 	str.w	r2, [r1, #136]	@ 0x88
    if (PeriphClkInit->RngClockSelection == RCC_RNGCLKSOURCE_PLL)
 c00505a:	f000 8110 	beq.w	c00527e <HAL_RCCEx_PeriphCLKConfig+0x466>
    else if (PeriphClkInit->RngClockSelection == RCC_RNGCLKSOURCE_PLLSAI1)
 c00505e:	f1b0 6f80 	cmp.w	r0, #67108864	@ 0x4000000
 c005062:	f000 813d 	beq.w	c0052e0 <HAL_RCCEx_PeriphCLKConfig+0x4c8>
  if (((PeriphClkInit->PeriphClockSelection) & RCC_PERIPHCLK_ADC) == RCC_PERIPHCLK_ADC)
 c005066:	0458      	lsls	r0, r3, #17
 c005068:	d50e      	bpl.n	c005088 <HAL_RCCEx_PeriphCLKConfig+0x270>
    __HAL_RCC_ADC_CONFIG(PeriphClkInit->AdcClockSelection);
 c00506a:	4831      	ldr	r0, [pc, #196]	@ (c005130 <HAL_RCCEx_PeriphCLKConfig+0x318>)
 c00506c:	f8d4 1080 	ldr.w	r1, [r4, #128]	@ 0x80
 c005070:	f8d0 2088 	ldr.w	r2, [r0, #136]	@ 0x88
    if (PeriphClkInit->AdcClockSelection == RCC_ADCCLKSOURCE_PLLSAI1)
 c005074:	f1b1 5f80 	cmp.w	r1, #268435456	@ 0x10000000
    __HAL_RCC_ADC_CONFIG(PeriphClkInit->AdcClockSelection);
 c005078:	f022 5240 	bic.w	r2, r2, #805306368	@ 0x30000000
 c00507c:	ea42 0201 	orr.w	r2, r2, r1
 c005080:	f8c0 2088 	str.w	r2, [r0, #136]	@ 0x88
    if (PeriphClkInit->AdcClockSelection == RCC_ADCCLKSOURCE_PLLSAI1)
 c005084:	f000 8110 	beq.w	c0052a8 <HAL_RCCEx_PeriphCLKConfig+0x490>
  if (((PeriphClkInit->PeriphClockSelection) & RCC_PERIPHCLK_DFSDM1) == RCC_PERIPHCLK_DFSDM1)
 c005088:	03d9      	lsls	r1, r3, #15
 c00508a:	d509      	bpl.n	c0050a0 <HAL_RCCEx_PeriphCLKConfig+0x288>
    __HAL_RCC_DFSDM1_CONFIG(PeriphClkInit->Dfsdm1ClockSelection);
 c00508c:	4928      	ldr	r1, [pc, #160]	@ (c005130 <HAL_RCCEx_PeriphCLKConfig+0x318>)
 c00508e:	f8d4 0084 	ldr.w	r0, [r4, #132]	@ 0x84
 c005092:	f8d1 209c 	ldr.w	r2, [r1, #156]	@ 0x9c
 c005096:	f022 0204 	bic.w	r2, r2, #4
 c00509a:	4302      	orrs	r2, r0
 c00509c:	f8c1 209c 	str.w	r2, [r1, #156]	@ 0x9c
  if (((PeriphClkInit->PeriphClockSelection) & RCC_PERIPHCLK_DFSDM1AUDIO) == RCC_PERIPHCLK_DFSDM1AUDIO)
 c0050a0:	029a      	lsls	r2, r3, #10
 c0050a2:	d509      	bpl.n	c0050b8 <HAL_RCCEx_PeriphCLKConfig+0x2a0>
    __HAL_RCC_DFSDM1AUDIO_CONFIG(PeriphClkInit->Dfsdm1AudioClockSelection);
 c0050a4:	4922      	ldr	r1, [pc, #136]	@ (c005130 <HAL_RCCEx_PeriphCLKConfig+0x318>)
 c0050a6:	f8d4 0088 	ldr.w	r0, [r4, #136]	@ 0x88
 c0050aa:	f8d1 209c 	ldr.w	r2, [r1, #156]	@ 0x9c
 c0050ae:	f022 0218 	bic.w	r2, r2, #24
 c0050b2:	4302      	orrs	r2, r0
 c0050b4:	f8c1 209c 	str.w	r2, [r1, #156]	@ 0x9c
  if (((PeriphClkInit->PeriphClockSelection) & RCC_PERIPHCLK_OSPI) == RCC_PERIPHCLK_OSPI)
 c0050b8:	01db      	lsls	r3, r3, #7
 c0050ba:	d50e      	bpl.n	c0050da <HAL_RCCEx_PeriphCLKConfig+0x2c2>
    __HAL_RCC_OSPI_CONFIG(PeriphClkInit->OspiClockSelection);
 c0050bc:	4a1c      	ldr	r2, [pc, #112]	@ (c005130 <HAL_RCCEx_PeriphCLKConfig+0x318>)
 c0050be:	f8d4 108c 	ldr.w	r1, [r4, #140]	@ 0x8c
 c0050c2:	f8d2 309c 	ldr.w	r3, [r2, #156]	@ 0x9c
    if (PeriphClkInit->OspiClockSelection == RCC_OSPICLKSOURCE_PLL)
 c0050c6:	f5b1 1f00 	cmp.w	r1, #2097152	@ 0x200000
    __HAL_RCC_OSPI_CONFIG(PeriphClkInit->OspiClockSelection);
 c0050ca:	f423 1340 	bic.w	r3, r3, #3145728	@ 0x300000
 c0050ce:	ea43 0301 	orr.w	r3, r3, r1
 c0050d2:	f8c2 309c 	str.w	r3, [r2, #156]	@ 0x9c
    if (PeriphClkInit->OspiClockSelection == RCC_OSPICLKSOURCE_PLL)
 c0050d6:	f000 80d7 	beq.w	c005288 <HAL_RCCEx_PeriphCLKConfig+0x470>
}
 c0050da:	4630      	mov	r0, r6
 c0050dc:	b002      	add	sp, #8
 c0050de:	e8bd 87f0 	ldmia.w	sp!, {r4, r5, r6, r7, r8, r9, sl, pc}
    switch (PeriphClkInit->Sai1ClockSelection)
 c0050e2:	2960      	cmp	r1, #96	@ 0x60
 c0050e4:	d002      	beq.n	c0050ec <HAL_RCCEx_PeriphCLKConfig+0x2d4>
 c0050e6:	2980      	cmp	r1, #128	@ 0x80
 c0050e8:	f040 8119 	bne.w	c00531e <HAL_RCCEx_PeriphCLKConfig+0x506>
      __HAL_RCC_SAI1_CONFIG(PeriphClkInit->Sai1ClockSelection);
 c0050ec:	4810      	ldr	r0, [pc, #64]	@ (c005130 <HAL_RCCEx_PeriphCLKConfig+0x318>)
  if ((((PeriphClkInit->PeriphClockSelection) & RCC_PERIPHCLK_SAI2) == RCC_PERIPHCLK_SAI2))
 c0050ee:	04df      	lsls	r7, r3, #19
      __HAL_RCC_SAI1_CONFIG(PeriphClkInit->Sai1ClockSelection);
 c0050f0:	f8d0 209c 	ldr.w	r2, [r0, #156]	@ 0x9c
  HAL_StatusTypeDef ret = HAL_OK;      /* Intermediate status */
 c0050f4:	f04f 0600 	mov.w	r6, #0
      __HAL_RCC_SAI1_CONFIG(PeriphClkInit->Sai1ClockSelection);
 c0050f8:	f022 02e0 	bic.w	r2, r2, #224	@ 0xe0
 c0050fc:	ea42 0201 	orr.w	r2, r2, r1
 c005100:	f8c0 209c 	str.w	r2, [r0, #156]	@ 0x9c
  if ((((PeriphClkInit->PeriphClockSelection) & RCC_PERIPHCLK_SAI2) == RCC_PERIPHCLK_SAI2))
 c005104:	f53f aea7 	bmi.w	c004e56 <HAL_RCCEx_PeriphCLKConfig+0x3e>
    switch (PeriphClkInit->Sai2ClockSelection)
 c005108:	4637      	mov	r7, r6
  if ((PeriphClkInit->PeriphClockSelection & RCC_PERIPHCLK_RTC) == RCC_PERIPHCLK_RTC)
 c00510a:	039d      	lsls	r5, r3, #14
 c00510c:	f57f aec7 	bpl.w	c004e9e <HAL_RCCEx_PeriphCLKConfig+0x86>
    if (__HAL_RCC_PWR_IS_CLK_DISABLED())
 c005110:	4b07      	ldr	r3, [pc, #28]	@ (c005130 <HAL_RCCEx_PeriphCLKConfig+0x318>)
 c005112:	6d9a      	ldr	r2, [r3, #88]	@ 0x58
 c005114:	00d0      	lsls	r0, r2, #3
 c005116:	d561      	bpl.n	c0051dc <HAL_RCCEx_PeriphCLKConfig+0x3c4>
    FlagStatus       pwrclkchanged = RESET;
 c005118:	f04f 0800 	mov.w	r8, #0
    SET_BIT(PWR->CR1, PWR_CR1_DBP);
 c00511c:	4d05      	ldr	r5, [pc, #20]	@ (c005134 <HAL_RCCEx_PeriphCLKConfig+0x31c>)
 c00511e:	682b      	ldr	r3, [r5, #0]
 c005120:	f443 7380 	orr.w	r3, r3, #256	@ 0x100
 c005124:	602b      	str	r3, [r5, #0]
    tickstart = HAL_GetTick();
 c005126:	f7fe fbcb 	bl	c0038c0 <HAL_GetTick>
 c00512a:	4681      	mov	r9, r0
    while ((PWR->CR1 & PWR_CR1_DBP) == 0U)
 c00512c:	e00a      	b.n	c005144 <HAL_RCCEx_PeriphCLKConfig+0x32c>
 c00512e:	bf00      	nop
 c005130:	50021000 	.word	0x50021000
 c005134:	50007000 	.word	0x50007000
      if ((HAL_GetTick() - tickstart) > RCC_DBP_TIMEOUT_VALUE)
 c005138:	f7fe fbc2 	bl	c0038c0 <HAL_GetTick>
 c00513c:	eba0 0009 	sub.w	r0, r0, r9
 c005140:	2802      	cmp	r0, #2
 c005142:	d868      	bhi.n	c005216 <HAL_RCCEx_PeriphCLKConfig+0x3fe>
    while ((PWR->CR1 & PWR_CR1_DBP) == 0U)
 c005144:	682b      	ldr	r3, [r5, #0]
 c005146:	05da      	lsls	r2, r3, #23
 c005148:	d5f6      	bpl.n	c005138 <HAL_RCCEx_PeriphCLKConfig+0x320>
    if (ret == HAL_OK)
 c00514a:	2f00      	cmp	r7, #0
 c00514c:	d178      	bne.n	c005240 <HAL_RCCEx_PeriphCLKConfig+0x428>
      tmpregister = READ_BIT(RCC->BDCR, RCC_BDCR_RTCSEL);
 c00514e:	f8df a1d4 	ldr.w	sl, [pc, #468]	@ c005324 <HAL_RCCEx_PeriphCLKConfig+0x50c>
      if ((tmpregister != RCC_RTCCLKSOURCE_NONE) && (tmpregister != PeriphClkInit->RTCClockSelection))
 c005152:	f8d4 1090 	ldr.w	r1, [r4, #144]	@ 0x90
      tmpregister = READ_BIT(RCC->BDCR, RCC_BDCR_RTCSEL);
 c005156:	f8da 3090 	ldr.w	r3, [sl, #144]	@ 0x90
      if ((tmpregister != RCC_RTCCLKSOURCE_NONE) && (tmpregister != PeriphClkInit->RTCClockSelection))
 c00515a:	f413 7340 	ands.w	r3, r3, #768	@ 0x300
 c00515e:	d027      	beq.n	c0051b0 <HAL_RCCEx_PeriphCLKConfig+0x398>
 c005160:	428b      	cmp	r3, r1
 c005162:	d025      	beq.n	c0051b0 <HAL_RCCEx_PeriphCLKConfig+0x398>
        tmpregister = READ_BIT(RCC->BDCR, ~(RCC_BDCR_RTCSEL));
 c005164:	f8da 2090 	ldr.w	r2, [sl, #144]	@ 0x90
        __HAL_RCC_BACKUPRESET_FORCE();
 c005168:	f8da 3090 	ldr.w	r3, [sl, #144]	@ 0x90
 c00516c:	f443 3380 	orr.w	r3, r3, #65536	@ 0x10000
 c005170:	f8ca 3090 	str.w	r3, [sl, #144]	@ 0x90
        __HAL_RCC_BACKUPRESET_RELEASE();
 c005174:	f8da 3090 	ldr.w	r3, [sl, #144]	@ 0x90
 c005178:	f423 3380 	bic.w	r3, r3, #65536	@ 0x10000
 c00517c:	f8ca 3090 	str.w	r3, [sl, #144]	@ 0x90
        tmpregister = READ_BIT(RCC->BDCR, ~(RCC_BDCR_RTCSEL));
 c005180:	f422 7340 	bic.w	r3, r2, #768	@ 0x300
        RCC->BDCR = tmpregister;
 c005184:	f8ca 3090 	str.w	r3, [sl, #144]	@ 0x90
      if (HAL_IS_BIT_SET(tmpregister, RCC_BDCR_LSEON))
 c005188:	07d3      	lsls	r3, r2, #31
 c00518a:	d511      	bpl.n	c0051b0 <HAL_RCCEx_PeriphCLKConfig+0x398>
        tickstart = HAL_GetTick();
 c00518c:	f7fe fb98 	bl	c0038c0 <HAL_GetTick>
          if ((HAL_GetTick() - tickstart) > RCC_LSE_TIMEOUT_VALUE)
 c005190:	f241 3988 	movw	r9, #5000	@ 0x1388
        tickstart = HAL_GetTick();
 c005194:	4605      	mov	r5, r0
        while (READ_BIT(RCC->BDCR, RCC_BDCR_LSERDY) == 0U)
 c005196:	e005      	b.n	c0051a4 <HAL_RCCEx_PeriphCLKConfig+0x38c>
          if ((HAL_GetTick() - tickstart) > RCC_LSE_TIMEOUT_VALUE)
 c005198:	f7fe fb92 	bl	c0038c0 <HAL_GetTick>
 c00519c:	1b40      	subs	r0, r0, r5
 c00519e:	4548      	cmp	r0, r9
 c0051a0:	f200 80b6 	bhi.w	c005310 <HAL_RCCEx_PeriphCLKConfig+0x4f8>
        while (READ_BIT(RCC->BDCR, RCC_BDCR_LSERDY) == 0U)
 c0051a4:	f8da 3090 	ldr.w	r3, [sl, #144]	@ 0x90
 c0051a8:	0798      	lsls	r0, r3, #30
 c0051aa:	d5f5      	bpl.n	c005198 <HAL_RCCEx_PeriphCLKConfig+0x380>
        __HAL_RCC_RTC_CONFIG(PeriphClkInit->RTCClockSelection);
 c0051ac:	f8d4 1090 	ldr.w	r1, [r4, #144]	@ 0x90
 c0051b0:	4a5c      	ldr	r2, [pc, #368]	@ (c005324 <HAL_RCCEx_PeriphCLKConfig+0x50c>)
 c0051b2:	f8d2 3090 	ldr.w	r3, [r2, #144]	@ 0x90
 c0051b6:	f423 7340 	bic.w	r3, r3, #768	@ 0x300
 c0051ba:	430b      	orrs	r3, r1
 c0051bc:	f8c2 3090 	str.w	r3, [r2, #144]	@ 0x90
 c0051c0:	e03f      	b.n	c005242 <HAL_RCCEx_PeriphCLKConfig+0x42a>
    switch (PeriphClkInit->Sai2ClockSelection)
 c0051c2:	f5b1 7f40 	cmp.w	r1, #768	@ 0x300
 c0051c6:	d003      	beq.n	c0051d0 <HAL_RCCEx_PeriphCLKConfig+0x3b8>
 c0051c8:	f5b1 6f80 	cmp.w	r1, #1024	@ 0x400
 c0051cc:	f040 80a5 	bne.w	c00531a <HAL_RCCEx_PeriphCLKConfig+0x502>
    switch (PeriphClkInit->Sai1ClockSelection)
 c0051d0:	4637      	mov	r7, r6
    if (ret == HAL_OK)
 c0051d2:	2f00      	cmp	r7, #0
 c0051d4:	f43f ae56 	beq.w	c004e84 <HAL_RCCEx_PeriphCLKConfig+0x6c>
 c0051d8:	463e      	mov	r6, r7
 c0051da:	e796      	b.n	c00510a <HAL_RCCEx_PeriphCLKConfig+0x2f2>
      __HAL_RCC_PWR_CLK_ENABLE();
 c0051dc:	6d9a      	ldr	r2, [r3, #88]	@ 0x58
      pwrclkchanged = SET;
 c0051de:	f04f 0801 	mov.w	r8, #1
      __HAL_RCC_PWR_CLK_ENABLE();
 c0051e2:	f042 5280 	orr.w	r2, r2, #268435456	@ 0x10000000
 c0051e6:	659a      	str	r2, [r3, #88]	@ 0x58
 c0051e8:	6d9b      	ldr	r3, [r3, #88]	@ 0x58
 c0051ea:	f003 5380 	and.w	r3, r3, #268435456	@ 0x10000000
 c0051ee:	9301      	str	r3, [sp, #4]
 c0051f0:	9b01      	ldr	r3, [sp, #4]
      pwrclkchanged = SET;
 c0051f2:	e793      	b.n	c00511c <HAL_RCCEx_PeriphCLKConfig+0x304>
        ret = RCCEx_PLLSAI1_Config(&(PeriphClkInit->PLLSAI1), DIVIDER_P_UPDATE);
 c0051f4:	2100      	movs	r1, #0
 c0051f6:	1d20      	adds	r0, r4, #4
 c0051f8:	f7ff fd28 	bl	c004c4c <RCCEx_PLLSAI1_Config>
 c0051fc:	4607      	mov	r7, r0
  if (((PeriphClkInit->PeriphClockSelection) & RCC_PERIPHCLK_I2C1) == RCC_PERIPHCLK_I2C1)
 c0051fe:	6823      	ldr	r3, [r4, #0]
    if (ret == HAL_OK)
 c005200:	bb57      	cbnz	r7, c005258 <HAL_RCCEx_PeriphCLKConfig+0x440>
      __HAL_RCC_FDCAN_CONFIG(PeriphClkInit->FdcanClockSelection);
 c005202:	4948      	ldr	r1, [pc, #288]	@ (c005324 <HAL_RCCEx_PeriphCLKConfig+0x50c>)
 c005204:	6ea0      	ldr	r0, [r4, #104]	@ 0x68
 c005206:	f8d1 2088 	ldr.w	r2, [r1, #136]	@ 0x88
 c00520a:	f022 7240 	bic.w	r2, r2, #50331648	@ 0x3000000
 c00520e:	4302      	orrs	r2, r0
 c005210:	f8c1 2088 	str.w	r2, [r1, #136]	@ 0x88
 c005214:	e6b5      	b.n	c004f82 <HAL_RCCEx_PeriphCLKConfig+0x16a>
        if ((PWR->CR1 & PWR_CR1_DBP) == 0U)
 c005216:	682b      	ldr	r3, [r5, #0]
 c005218:	05d9      	lsls	r1, r3, #23
 c00521a:	d496      	bmi.n	c00514a <HAL_RCCEx_PeriphCLKConfig+0x332>
          ret = HAL_TIMEOUT;
 c00521c:	2603      	movs	r6, #3
 c00521e:	4637      	mov	r7, r6
 c005220:	e00f      	b.n	c005242 <HAL_RCCEx_PeriphCLKConfig+0x42a>
        ret = RCCEx_PLLSAI1_Config(&(PeriphClkInit->PLLSAI1), DIVIDER_P_UPDATE);
 c005222:	3004      	adds	r0, #4
 c005224:	f7ff fd12 	bl	c004c4c <RCCEx_PLLSAI1_Config>
 c005228:	4606      	mov	r6, r0
  if ((((PeriphClkInit->PeriphClockSelection) & RCC_PERIPHCLK_SAI2) == RCC_PERIPHCLK_SAI2))
 c00522a:	6823      	ldr	r3, [r4, #0]
    if (ret == HAL_OK)
 c00522c:	2e00      	cmp	r6, #0
 c00522e:	f47f ae0f 	bne.w	c004e50 <HAL_RCCEx_PeriphCLKConfig+0x38>
 c005232:	e041      	b.n	c0052b8 <HAL_RCCEx_PeriphCLKConfig+0x4a0>
        ret = RCCEx_PLLSAI1_Config(&(PeriphClkInit->PLLSAI1), DIVIDER_P_UPDATE);
 c005234:	1d20      	adds	r0, r4, #4
 c005236:	f7ff fd09 	bl	c004c4c <RCCEx_PLLSAI1_Config>
  if ((PeriphClkInit->PeriphClockSelection & RCC_PERIPHCLK_RTC) == RCC_PERIPHCLK_RTC)
 c00523a:	6823      	ldr	r3, [r4, #0]
        ret = RCCEx_PLLSAI1_Config(&(PeriphClkInit->PLLSAI1), DIVIDER_P_UPDATE);
 c00523c:	4607      	mov	r7, r0
        break;
 c00523e:	e61e      	b.n	c004e7e <HAL_RCCEx_PeriphCLKConfig+0x66>
 c005240:	463e      	mov	r6, r7
  if (((PeriphClkInit->PeriphClockSelection) & RCC_PERIPHCLK_USART1) == RCC_PERIPHCLK_USART1)
 c005242:	6823      	ldr	r3, [r4, #0]
    if (pwrclkchanged == SET)
 c005244:	f1b8 0f00 	cmp.w	r8, #0
 c005248:	f43f ae29 	beq.w	c004e9e <HAL_RCCEx_PeriphCLKConfig+0x86>
      __HAL_RCC_PWR_CLK_DISABLE();
 c00524c:	4935      	ldr	r1, [pc, #212]	@ (c005324 <HAL_RCCEx_PeriphCLKConfig+0x50c>)
 c00524e:	6d8a      	ldr	r2, [r1, #88]	@ 0x58
 c005250:	f022 5280 	bic.w	r2, r2, #268435456	@ 0x10000000
 c005254:	658a      	str	r2, [r1, #88]	@ 0x58
 c005256:	e622      	b.n	c004e9e <HAL_RCCEx_PeriphCLKConfig+0x86>
 c005258:	463e      	mov	r6, r7
 c00525a:	e692      	b.n	c004f82 <HAL_RCCEx_PeriphCLKConfig+0x16a>
      __HAL_RCC_PLLCLKOUT_ENABLE(RCC_PLL_48M1CLK);
 c00525c:	68ca      	ldr	r2, [r1, #12]
 c00525e:	f442 1280 	orr.w	r2, r2, #1048576	@ 0x100000
 c005262:	60ca      	str	r2, [r1, #12]
 c005264:	e6cd      	b.n	c005002 <HAL_RCCEx_PeriphCLKConfig+0x1ea>
    __HAL_RCC_SDMMC1_CONFIG(PeriphClkInit->Sdmmc1ClockSelection);
 c005266:	4a2f      	ldr	r2, [pc, #188]	@ (c005324 <HAL_RCCEx_PeriphCLKConfig+0x50c>)
 c005268:	f8d2 109c 	ldr.w	r1, [r2, #156]	@ 0x9c
 c00526c:	f441 4180 	orr.w	r1, r1, #16384	@ 0x4000
 c005270:	f8c2 109c 	str.w	r1, [r2, #156]	@ 0x9c
      __HAL_RCC_PLLCLKOUT_ENABLE(RCC_PLL_SAI3CLK);
 c005274:	68d1      	ldr	r1, [r2, #12]
 c005276:	f441 3180 	orr.w	r1, r1, #65536	@ 0x10000
 c00527a:	60d1      	str	r1, [r2, #12]
 c00527c:	e6df      	b.n	c00503e <HAL_RCCEx_PeriphCLKConfig+0x226>
      __HAL_RCC_PLLCLKOUT_ENABLE(RCC_PLL_48M1CLK);
 c00527e:	68ca      	ldr	r2, [r1, #12]
 c005280:	f442 1280 	orr.w	r2, r2, #1048576	@ 0x100000
 c005284:	60ca      	str	r2, [r1, #12]
 c005286:	e6ee      	b.n	c005066 <HAL_RCCEx_PeriphCLKConfig+0x24e>
}
 c005288:	4630      	mov	r0, r6
      __HAL_RCC_PLLCLKOUT_ENABLE(RCC_PLL_48M1CLK);
 c00528a:	68d3      	ldr	r3, [r2, #12]
 c00528c:	f443 1380 	orr.w	r3, r3, #1048576	@ 0x100000
 c005290:	60d3      	str	r3, [r2, #12]
}
 c005292:	b002      	add	sp, #8
 c005294:	e8bd 87f0 	ldmia.w	sp!, {r4, r5, r6, r7, r8, r9, sl, pc}
        __HAL_RCC_PLLCLKOUT_ENABLE(RCC_PLL_48M1CLK);
 c005298:	4922      	ldr	r1, [pc, #136]	@ (c005324 <HAL_RCCEx_PeriphCLKConfig+0x50c>)
 c00529a:	68ca      	ldr	r2, [r1, #12]
 c00529c:	f442 1280 	orr.w	r2, r2, #1048576	@ 0x100000
 c0052a0:	60ca      	str	r2, [r1, #12]
    if (ret == HAL_OK)
 c0052a2:	2f00      	cmp	r7, #0
 c0052a4:	d1d8      	bne.n	c005258 <HAL_RCCEx_PeriphCLKConfig+0x440>
 c0052a6:	e7ac      	b.n	c005202 <HAL_RCCEx_PeriphCLKConfig+0x3ea>
      ret = RCCEx_PLLSAI1_Config(&(PeriphClkInit->PLLSAI1), DIVIDER_R_UPDATE);
 c0052a8:	2102      	movs	r1, #2
 c0052aa:	1d20      	adds	r0, r4, #4
 c0052ac:	f7ff fcce 	bl	c004c4c <RCCEx_PLLSAI1_Config>
      if (ret != HAL_OK)
 c0052b0:	b100      	cbz	r0, c0052b4 <HAL_RCCEx_PeriphCLKConfig+0x49c>
  if (((PeriphClkInit->PeriphClockSelection) & RCC_PERIPHCLK_DFSDM1) == RCC_PERIPHCLK_DFSDM1)
 c0052b2:	4606      	mov	r6, r0
 c0052b4:	6823      	ldr	r3, [r4, #0]
 c0052b6:	e6e7      	b.n	c005088 <HAL_RCCEx_PeriphCLKConfig+0x270>
      __HAL_RCC_SAI1_CONFIG(PeriphClkInit->Sai1ClockSelection);
 c0052b8:	6ee1      	ldr	r1, [r4, #108]	@ 0x6c
 c0052ba:	e717      	b.n	c0050ec <HAL_RCCEx_PeriphCLKConfig+0x2d4>
        __HAL_RCC_PLLCLKOUT_ENABLE(RCC_PLL_SAI3CLK);
 c0052bc:	4819      	ldr	r0, [pc, #100]	@ (c005324 <HAL_RCCEx_PeriphCLKConfig+0x50c>)
 c0052be:	68c2      	ldr	r2, [r0, #12]
 c0052c0:	f442 3280 	orr.w	r2, r2, #65536	@ 0x10000
 c0052c4:	60c2      	str	r2, [r0, #12]
    if (ret == HAL_OK)
 c0052c6:	e711      	b.n	c0050ec <HAL_RCCEx_PeriphCLKConfig+0x2d4>
        __HAL_RCC_PLLCLKOUT_ENABLE(RCC_PLL_SAI3CLK);
 c0052c8:	4916      	ldr	r1, [pc, #88]	@ (c005324 <HAL_RCCEx_PeriphCLKConfig+0x50c>)
    switch (PeriphClkInit->Sai1ClockSelection)
 c0052ca:	4637      	mov	r7, r6
        __HAL_RCC_PLLCLKOUT_ENABLE(RCC_PLL_SAI3CLK);
 c0052cc:	68ca      	ldr	r2, [r1, #12]
 c0052ce:	f442 3280 	orr.w	r2, r2, #65536	@ 0x10000
 c0052d2:	60ca      	str	r2, [r1, #12]
        break;
 c0052d4:	e77d      	b.n	c0051d2 <HAL_RCCEx_PeriphCLKConfig+0x3ba>
      __HAL_RCC_PLLCLKOUT_ENABLE(RCC_PLL_48M1CLK);
 c0052d6:	68c2      	ldr	r2, [r0, #12]
 c0052d8:	f442 1280 	orr.w	r2, r2, #1048576	@ 0x100000
 c0052dc:	60c2      	str	r2, [r0, #12]
 c0052de:	e6ae      	b.n	c00503e <HAL_RCCEx_PeriphCLKConfig+0x226>
      ret = RCCEx_PLLSAI1_Config(&(PeriphClkInit->PLLSAI1), DIVIDER_Q_UPDATE);
 c0052e0:	2101      	movs	r1, #1
 c0052e2:	1d20      	adds	r0, r4, #4
 c0052e4:	f7ff fcb2 	bl	c004c4c <RCCEx_PLLSAI1_Config>
      if (ret != HAL_OK)
 c0052e8:	b100      	cbz	r0, c0052ec <HAL_RCCEx_PeriphCLKConfig+0x4d4>
  if (((PeriphClkInit->PeriphClockSelection) & RCC_PERIPHCLK_ADC) == RCC_PERIPHCLK_ADC)
 c0052ea:	4606      	mov	r6, r0
 c0052ec:	6823      	ldr	r3, [r4, #0]
 c0052ee:	e6ba      	b.n	c005066 <HAL_RCCEx_PeriphCLKConfig+0x24e>
        ret = RCCEx_PLLSAI1_Config(&(PeriphClkInit->PLLSAI1), DIVIDER_Q_UPDATE);
 c0052f0:	2101      	movs	r1, #1
 c0052f2:	1d20      	adds	r0, r4, #4
 c0052f4:	f7ff fcaa 	bl	c004c4c <RCCEx_PLLSAI1_Config>
        if (ret != HAL_OK)
 c0052f8:	b100      	cbz	r0, c0052fc <HAL_RCCEx_PeriphCLKConfig+0x4e4>
  if (((PeriphClkInit->PeriphClockSelection) & RCC_PERIPHCLK_SDMMC1) == (RCC_PERIPHCLK_SDMMC1))
 c0052fa:	4606      	mov	r6, r0
 c0052fc:	6823      	ldr	r3, [r4, #0]
 c0052fe:	e680      	b.n	c005002 <HAL_RCCEx_PeriphCLKConfig+0x1ea>
      ret = RCCEx_PLLSAI1_Config(&(PeriphClkInit->PLLSAI1), DIVIDER_Q_UPDATE);
 c005300:	2101      	movs	r1, #1
 c005302:	1d20      	adds	r0, r4, #4
 c005304:	f7ff fca2 	bl	c004c4c <RCCEx_PLLSAI1_Config>
      if (ret != HAL_OK)
 c005308:	b100      	cbz	r0, c00530c <HAL_RCCEx_PeriphCLKConfig+0x4f4>
  if (((PeriphClkInit->PeriphClockSelection) & RCC_PERIPHCLK_RNG) == (RCC_PERIPHCLK_RNG))
 c00530a:	4606      	mov	r6, r0
 c00530c:	6823      	ldr	r3, [r4, #0]
 c00530e:	e696      	b.n	c00503e <HAL_RCCEx_PeriphCLKConfig+0x226>
            if (READ_BIT(RCC->BDCR, RCC_BDCR_LSERDY) == 0U)
 c005310:	f8da 3090 	ldr.w	r3, [sl, #144]	@ 0x90
 c005314:	079d      	lsls	r5, r3, #30
 c005316:	d581      	bpl.n	c00521c <HAL_RCCEx_PeriphCLKConfig+0x404>
 c005318:	e748      	b.n	c0051ac <HAL_RCCEx_PeriphCLKConfig+0x394>
    switch (PeriphClkInit->Sai2ClockSelection)
 c00531a:	2601      	movs	r6, #1
 c00531c:	e6f4      	b.n	c005108 <HAL_RCCEx_PeriphCLKConfig+0x2f0>
    switch (PeriphClkInit->Sai1ClockSelection)
 c00531e:	2601      	movs	r6, #1
 c005320:	e596      	b.n	c004e50 <HAL_RCCEx_PeriphCLKConfig+0x38>
 c005322:	bf00      	nop
 c005324:	50021000 	.word	0x50021000

0c005328 <HAL_TIM_Base_Init>:
  * @retval HAL status
  */
HAL_StatusTypeDef HAL_TIM_Base_Init(TIM_HandleTypeDef *htim)
{
  /* Check the TIM handle allocation */
  if (htim == NULL)
 c005328:	2800      	cmp	r0, #0
 c00532a:	f000 8084 	beq.w	c005436 <HAL_TIM_Base_Init+0x10e>
{
 c00532e:	b538      	push	{r3, r4, r5, lr}
  assert_param(IS_TIM_INSTANCE(htim->Instance));
  assert_param(IS_TIM_COUNTER_MODE(htim->Init.CounterMode));
  assert_param(IS_TIM_CLOCKDIVISION_DIV(htim->Init.ClockDivision));
  assert_param(IS_TIM_AUTORELOAD_PRELOAD(htim->Init.AutoReloadPreload));

  if (htim->State == HAL_TIM_STATE_RESET)
 c005330:	f890 303d 	ldrb.w	r3, [r0, #61]	@ 0x3d
 c005334:	4604      	mov	r4, r0
 c005336:	f003 02ff 	and.w	r2, r3, #255	@ 0xff
 c00533a:	2b00      	cmp	r3, #0
 c00533c:	d070      	beq.n	c005420 <HAL_TIM_Base_Init+0xf8>
    HAL_TIM_Base_MspInit(htim);
#endif /* USE_HAL_TIM_REGISTER_CALLBACKS */
  }

  /* Set the TIM state */
  htim->State = HAL_TIM_STATE_BUSY;
 c00533e:	2302      	movs	r3, #2

  /* Set the Time Base configuration */
  TIM_Base_SetConfig(htim->Instance, &htim->Init);
 c005340:	6822      	ldr	r2, [r4, #0]
{
  uint32_t tmpcr1;
  tmpcr1 = TIMx->CR1;

  /* Set TIM Time Base Unit parameters ---------------------------------------*/
  if (IS_TIM_COUNTER_MODE_SELECT_INSTANCE(TIMx))
 c005342:	493e      	ldr	r1, [pc, #248]	@ (c00543c <HAL_TIM_Base_Init+0x114>)
  htim->State = HAL_TIM_STATE_BUSY;
 c005344:	f884 303d 	strb.w	r3, [r4, #61]	@ 0x3d
  if (IS_TIM_COUNTER_MODE_SELECT_INSTANCE(TIMx))
 c005348:	428a      	cmp	r2, r1
  tmpcr1 = TIMx->CR1;
 c00534a:	6813      	ldr	r3, [r2, #0]
  if (IS_TIM_COUNTER_MODE_SELECT_INSTANCE(TIMx))
 c00534c:	d054      	beq.n	c0053f8 <HAL_TIM_Base_Init+0xd0>
 c00534e:	f1b2 4fa0 	cmp.w	r2, #1342177280	@ 0x50000000
 c005352:	d024      	beq.n	c00539e <HAL_TIM_Base_Init+0x76>
 c005354:	f5a1 3194 	sub.w	r1, r1, #75776	@ 0x12800
 c005358:	428a      	cmp	r2, r1
 c00535a:	d020      	beq.n	c00539e <HAL_TIM_Base_Init+0x76>
 c00535c:	f501 6180 	add.w	r1, r1, #1024	@ 0x400
 c005360:	428a      	cmp	r2, r1
 c005362:	d01c      	beq.n	c00539e <HAL_TIM_Base_Init+0x76>
 c005364:	f501 6180 	add.w	r1, r1, #1024	@ 0x400
 c005368:	428a      	cmp	r2, r1
 c00536a:	d018      	beq.n	c00539e <HAL_TIM_Base_Init+0x76>
 c00536c:	f501 3194 	add.w	r1, r1, #75776	@ 0x12800
 c005370:	428a      	cmp	r2, r1
 c005372:	d041      	beq.n	c0053f8 <HAL_TIM_Base_Init+0xd0>
    /* Select the Counter Mode */
    tmpcr1 &= ~(TIM_CR1_DIR | TIM_CR1_CMS);
    tmpcr1 |= Structure->CounterMode;
  }

  if (IS_TIM_CLOCK_DIVISION_INSTANCE(TIMx))
 c005374:	f501 6140 	add.w	r1, r1, #3072	@ 0xc00
 c005378:	428a      	cmp	r2, r1
 c00537a:	d056      	beq.n	c00542a <HAL_TIM_Base_Init+0x102>
 c00537c:	4930      	ldr	r1, [pc, #192]	@ (c005440 <HAL_TIM_Base_Init+0x118>)
 c00537e:	428a      	cmp	r2, r1
 c005380:	d053      	beq.n	c00542a <HAL_TIM_Base_Init+0x102>
 c005382:	f501 6180 	add.w	r1, r1, #1024	@ 0x400
 c005386:	428a      	cmp	r2, r1
 c005388:	d04f      	beq.n	c00542a <HAL_TIM_Base_Init+0x102>
    tmpcr1 &= ~TIM_CR1_CKD;
    tmpcr1 |= (uint32_t)Structure->ClockDivision;
  }

  /* Set the auto-reload preload */
  MODIFY_REG(tmpcr1, TIM_CR1_ARPE, Structure->AutoReloadPreload);
 c00538a:	69a5      	ldr	r5, [r4, #24]

  /* Set the Autoreload value */
  TIMx->ARR = (uint32_t)Structure->Period ;

  /* Set the Prescaler value */
  TIMx->PSC = Structure->Prescaler;
 c00538c:	6861      	ldr	r1, [r4, #4]
  TIMx->ARR = (uint32_t)Structure->Period ;
 c00538e:	68e0      	ldr	r0, [r4, #12]
  MODIFY_REG(tmpcr1, TIM_CR1_ARPE, Structure->AutoReloadPreload);
 c005390:	f023 0380 	bic.w	r3, r3, #128	@ 0x80
 c005394:	432b      	orrs	r3, r5
  TIMx->CR1 = tmpcr1;
 c005396:	6013      	str	r3, [r2, #0]
  TIMx->ARR = (uint32_t)Structure->Period ;
 c005398:	62d0      	str	r0, [r2, #44]	@ 0x2c
  TIMx->PSC = Structure->Prescaler;
 c00539a:	6291      	str	r1, [r2, #40]	@ 0x28

  if (IS_TIM_REPETITION_COUNTER_INSTANCE(TIMx))
 c00539c:	e010      	b.n	c0053c0 <HAL_TIM_Base_Init+0x98>
    tmpcr1 |= Structure->CounterMode;
 c00539e:	68a1      	ldr	r1, [r4, #8]
    tmpcr1 &= ~(TIM_CR1_DIR | TIM_CR1_CMS);
 c0053a0:	f023 0370 	bic.w	r3, r3, #112	@ 0x70
    tmpcr1 |= (uint32_t)Structure->ClockDivision;
 c0053a4:	6920      	ldr	r0, [r4, #16]
    tmpcr1 |= Structure->CounterMode;
 c0053a6:	430b      	orrs	r3, r1
    tmpcr1 &= ~TIM_CR1_CKD;
 c0053a8:	f423 7340 	bic.w	r3, r3, #768	@ 0x300
  MODIFY_REG(tmpcr1, TIM_CR1_ARPE, Structure->AutoReloadPreload);
 c0053ac:	69a1      	ldr	r1, [r4, #24]
    tmpcr1 |= (uint32_t)Structure->ClockDivision;
 c0053ae:	4303      	orrs	r3, r0
  MODIFY_REG(tmpcr1, TIM_CR1_ARPE, Structure->AutoReloadPreload);
 c0053b0:	f023 0380 	bic.w	r3, r3, #128	@ 0x80
  TIMx->ARR = (uint32_t)Structure->Period ;
 c0053b4:	68e0      	ldr	r0, [r4, #12]
  MODIFY_REG(tmpcr1, TIM_CR1_ARPE, Structure->AutoReloadPreload);
 c0053b6:	430b      	orrs	r3, r1
  TIMx->PSC = Structure->Prescaler;
 c0053b8:	6861      	ldr	r1, [r4, #4]
  TIMx->CR1 = tmpcr1;
 c0053ba:	6013      	str	r3, [r2, #0]
  TIMx->ARR = (uint32_t)Structure->Period ;
 c0053bc:	62d0      	str	r0, [r2, #44]	@ 0x2c
  TIMx->PSC = Structure->Prescaler;
 c0053be:	6291      	str	r1, [r2, #40]	@ 0x28
    TIMx->RCR = Structure->RepetitionCounter;
  }

  /* Generate an update event to reload the Prescaler
     and the repetition counter (only for advanced timer) value immediately */
  TIMx->EGR = TIM_EGR_UG;
 c0053c0:	2301      	movs	r3, #1
 c0053c2:	6153      	str	r3, [r2, #20]
  htim->DMABurstState = HAL_DMA_BURST_STATE_READY;
 c0053c4:	f884 3048 	strb.w	r3, [r4, #72]	@ 0x48
  TIM_CHANNEL_STATE_SET_ALL(htim, HAL_TIM_CHANNEL_STATE_READY);
 c0053c8:	f884 303e 	strb.w	r3, [r4, #62]	@ 0x3e
 c0053cc:	f884 303f 	strb.w	r3, [r4, #63]	@ 0x3f
 c0053d0:	f884 3040 	strb.w	r3, [r4, #64]	@ 0x40
 c0053d4:	f884 3041 	strb.w	r3, [r4, #65]	@ 0x41
 c0053d8:	f884 3042 	strb.w	r3, [r4, #66]	@ 0x42
 c0053dc:	f884 3043 	strb.w	r3, [r4, #67]	@ 0x43
  TIM_CHANNEL_N_STATE_SET_ALL(htim, HAL_TIM_CHANNEL_STATE_READY);
 c0053e0:	f884 3044 	strb.w	r3, [r4, #68]	@ 0x44
 c0053e4:	f884 3045 	strb.w	r3, [r4, #69]	@ 0x45
 c0053e8:	f884 3046 	strb.w	r3, [r4, #70]	@ 0x46
 c0053ec:	f884 3047 	strb.w	r3, [r4, #71]	@ 0x47
  htim->State = HAL_TIM_STATE_READY;
 c0053f0:	f884 303d 	strb.w	r3, [r4, #61]	@ 0x3d
  return HAL_OK;
 c0053f4:	2000      	movs	r0, #0
}
 c0053f6:	bd38      	pop	{r3, r4, r5, pc}
    tmpcr1 |= Structure->CounterMode;
 c0053f8:	68a0      	ldr	r0, [r4, #8]
    tmpcr1 &= ~(TIM_CR1_DIR | TIM_CR1_CMS);
 c0053fa:	f023 0370 	bic.w	r3, r3, #112	@ 0x70
    tmpcr1 |= (uint32_t)Structure->ClockDivision;
 c0053fe:	6921      	ldr	r1, [r4, #16]
    tmpcr1 |= Structure->CounterMode;
 c005400:	4303      	orrs	r3, r0
    tmpcr1 &= ~TIM_CR1_CKD;
 c005402:	f423 7340 	bic.w	r3, r3, #768	@ 0x300
    tmpcr1 |= (uint32_t)Structure->ClockDivision;
 c005406:	430b      	orrs	r3, r1
  MODIFY_REG(tmpcr1, TIM_CR1_ARPE, Structure->AutoReloadPreload);
 c005408:	69a1      	ldr	r1, [r4, #24]
 c00540a:	f023 0380 	bic.w	r3, r3, #128	@ 0x80
 c00540e:	430b      	orrs	r3, r1
  TIMx->CR1 = tmpcr1;
 c005410:	6013      	str	r3, [r2, #0]
  TIMx->ARR = (uint32_t)Structure->Period ;
 c005412:	68e3      	ldr	r3, [r4, #12]
 c005414:	62d3      	str	r3, [r2, #44]	@ 0x2c
  TIMx->PSC = Structure->Prescaler;
 c005416:	6863      	ldr	r3, [r4, #4]
 c005418:	6293      	str	r3, [r2, #40]	@ 0x28
    TIMx->RCR = Structure->RepetitionCounter;
 c00541a:	6963      	ldr	r3, [r4, #20]
 c00541c:	6313      	str	r3, [r2, #48]	@ 0x30
 c00541e:	e7cf      	b.n	c0053c0 <HAL_TIM_Base_Init+0x98>
    htim->Lock = HAL_UNLOCKED;
 c005420:	f880 203c 	strb.w	r2, [r0, #60]	@ 0x3c
    HAL_TIM_Base_MspInit(htim);
 c005424:	f7fe f908 	bl	c003638 <HAL_TIM_Base_MspInit>
 c005428:	e789      	b.n	c00533e <HAL_TIM_Base_Init+0x16>
    tmpcr1 |= (uint32_t)Structure->ClockDivision;
 c00542a:	6920      	ldr	r0, [r4, #16]
    tmpcr1 &= ~TIM_CR1_CKD;
 c00542c:	f423 7340 	bic.w	r3, r3, #768	@ 0x300
  MODIFY_REG(tmpcr1, TIM_CR1_ARPE, Structure->AutoReloadPreload);
 c005430:	69a1      	ldr	r1, [r4, #24]
    tmpcr1 |= (uint32_t)Structure->ClockDivision;
 c005432:	4303      	orrs	r3, r0
 c005434:	e7e9      	b.n	c00540a <HAL_TIM_Base_Init+0xe2>
    return HAL_ERROR;
 c005436:	2001      	movs	r0, #1
}
 c005438:	4770      	bx	lr
 c00543a:	bf00      	nop
 c00543c:	50012c00 	.word	0x50012c00
 c005440:	50014400 	.word	0x50014400

0c005444 <HAL_TIM_ConfigClockSource>:
  __HAL_LOCK(htim);
 c005444:	f890 203c 	ldrb.w	r2, [r0, #60]	@ 0x3c
 c005448:	2a01      	cmp	r2, #1
 c00544a:	d07a      	beq.n	c005542 <HAL_TIM_ConfigClockSource+0xfe>
 c00544c:	4603      	mov	r3, r0
  htim->State = HAL_TIM_STATE_BUSY;
 c00544e:	2202      	movs	r2, #2
  __HAL_LOCK(htim);
 c005450:	f04f 0c01 	mov.w	ip, #1
  tmpsmcr = htim->Instance->SMCR;
 c005454:	6800      	ldr	r0, [r0, #0]
{
 c005456:	b430      	push	{r4, r5}
  __HAL_LOCK(htim);
 c005458:	f883 c03c 	strb.w	ip, [r3, #60]	@ 0x3c
  htim->State = HAL_TIM_STATE_BUSY;
 c00545c:	f883 203d 	strb.w	r2, [r3, #61]	@ 0x3d
  tmpsmcr = htim->Instance->SMCR;
 c005460:	6882      	ldr	r2, [r0, #8]
  tmpsmcr &= ~(TIM_SMCR_ETF | TIM_SMCR_ETPS | TIM_SMCR_ECE | TIM_SMCR_ETP);
 c005462:	4c4e      	ldr	r4, [pc, #312]	@ (c00559c <HAL_TIM_ConfigClockSource+0x158>)
 c005464:	4014      	ands	r4, r2
  switch (sClockSourceConfig->ClockSource)
 c005466:	680a      	ldr	r2, [r1, #0]
  htim->Instance->SMCR = tmpsmcr;
 c005468:	6084      	str	r4, [r0, #8]
  switch (sClockSourceConfig->ClockSource)
 c00546a:	2a60      	cmp	r2, #96	@ 0x60
 c00546c:	d06b      	beq.n	c005546 <HAL_TIM_ConfigClockSource+0x102>
 c00546e:	d835      	bhi.n	c0054dc <HAL_TIM_ConfigClockSource+0x98>
 c005470:	2a40      	cmp	r2, #64	@ 0x40
 c005472:	d04c      	beq.n	c00550e <HAL_TIM_ConfigClockSource+0xca>
 c005474:	d923      	bls.n	c0054be <HAL_TIM_ConfigClockSource+0x7a>
 c005476:	2a50      	cmp	r2, #80	@ 0x50
 c005478:	d118      	bne.n	c0054ac <HAL_TIM_ConfigClockSource+0x68>
      TIM_TI1_ConfigInputStage(htim->Instance,
 c00547a:	684a      	ldr	r2, [r1, #4]
 c00547c:	68cc      	ldr	r4, [r1, #12]
{
  uint32_t tmpccmr1;
  uint32_t tmpccer;

  /* Disable the Channel 1: Reset the CC1E Bit */
  tmpccer = TIMx->CCER;
 c00547e:	6a01      	ldr	r1, [r0, #32]
  /* Set the filter */
  tmpccmr1 &= ~TIM_CCMR1_IC1F;
  tmpccmr1 |= (TIM_ICFilter << 4U);

  /* Select the Polarity and set the CC1E Bit */
  tmpccer &= ~(TIM_CCER_CC1P | TIM_CCER_CC1NP);
 c005480:	f021 010a 	bic.w	r1, r1, #10
  tmpccer |= TIM_ICPolarity;
 c005484:	4311      	orrs	r1, r2
  TIMx->CCER &= ~TIM_CCER_CC1E;
 c005486:	6a02      	ldr	r2, [r0, #32]
 c005488:	f022 0201 	bic.w	r2, r2, #1
 c00548c:	6202      	str	r2, [r0, #32]
  tmpccmr1 = TIMx->CCMR1;
 c00548e:	6982      	ldr	r2, [r0, #24]
  tmpccmr1 &= ~TIM_CCMR1_IC1F;
 c005490:	f022 02f0 	bic.w	r2, r2, #240	@ 0xf0
  tmpccmr1 |= (TIM_ICFilter << 4U);
 c005494:	ea42 1204 	orr.w	r2, r2, r4, lsl #4

  /* Write to TIMx CCMR1 and CCER registers */
  TIMx->CCMR1 = tmpccmr1;
 c005498:	6182      	str	r2, [r0, #24]
  TIMx->CCER = tmpccer;
 c00549a:	6201      	str	r1, [r0, #32]
static void TIM_ITRx_SetConfig(TIM_TypeDef *TIMx, uint32_t InputTriggerSource)
{
  uint32_t tmpsmcr;

  /* Get the TIMx SMCR register value */
  tmpsmcr = TIMx->SMCR;
 c00549c:	6882      	ldr	r2, [r0, #8]
  /* Reset the TS Bits */
  tmpsmcr &= ~TIM_SMCR_TS;
 c00549e:	f422 1240 	bic.w	r2, r2, #3145728	@ 0x300000
 c0054a2:	f022 0270 	bic.w	r2, r2, #112	@ 0x70
  /* Set the Input Trigger source and the slave mode*/
  tmpsmcr |= (InputTriggerSource | TIM_SLAVEMODE_EXTERNAL1);
 c0054a6:	f042 0257 	orr.w	r2, r2, #87	@ 0x57
  /* Write to TIMx SMCR */
  TIMx->SMCR = tmpsmcr;
 c0054aa:	6082      	str	r2, [r0, #8]
  __HAL_UNLOCK(htim);
 c0054ac:	2200      	movs	r2, #0
  htim->State = HAL_TIM_STATE_READY;
 c0054ae:	2101      	movs	r1, #1
  __HAL_UNLOCK(htim);
 c0054b0:	f883 203c 	strb.w	r2, [r3, #60]	@ 0x3c
  htim->State = HAL_TIM_STATE_READY;
 c0054b4:	f883 103d 	strb.w	r1, [r3, #61]	@ 0x3d
  return HAL_OK;
 c0054b8:	4610      	mov	r0, r2
}
 c0054ba:	bc30      	pop	{r4, r5}
 c0054bc:	4770      	bx	lr
  switch (sClockSourceConfig->ClockSource)
 c0054be:	2a20      	cmp	r2, #32
 c0054c0:	d002      	beq.n	c0054c8 <HAL_TIM_ConfigClockSource+0x84>
 c0054c2:	d920      	bls.n	c005506 <HAL_TIM_ConfigClockSource+0xc2>
 c0054c4:	2a30      	cmp	r2, #48	@ 0x30
 c0054c6:	d1f1      	bne.n	c0054ac <HAL_TIM_ConfigClockSource+0x68>
  tmpsmcr = TIMx->SMCR;
 c0054c8:	6881      	ldr	r1, [r0, #8]
  tmpsmcr &= ~TIM_SMCR_TS;
 c0054ca:	f421 1140 	bic.w	r1, r1, #3145728	@ 0x300000
 c0054ce:	f021 0170 	bic.w	r1, r1, #112	@ 0x70
  tmpsmcr |= (InputTriggerSource | TIM_SLAVEMODE_EXTERNAL1);
 c0054d2:	4311      	orrs	r1, r2
 c0054d4:	f041 0107 	orr.w	r1, r1, #7
  TIMx->SMCR = tmpsmcr;
 c0054d8:	6081      	str	r1, [r0, #8]
}
 c0054da:	e7e7      	b.n	c0054ac <HAL_TIM_ConfigClockSource+0x68>
  switch (sClockSourceConfig->ClockSource)
 c0054dc:	2a70      	cmp	r2, #112	@ 0x70
 c0054de:	d04d      	beq.n	c00557c <HAL_TIM_ConfigClockSource+0x138>
 c0054e0:	f5b2 5f00 	cmp.w	r2, #8192	@ 0x2000
 c0054e4:	d1e2      	bne.n	c0054ac <HAL_TIM_ConfigClockSource+0x68>

  /* Reset the ETR Bits */
  tmpsmcr &= ~(TIM_SMCR_ETF | TIM_SMCR_ETPS | TIM_SMCR_ECE | TIM_SMCR_ETP);

  /* Set the Prescaler, the Filter value and the Polarity */
  tmpsmcr |= (uint32_t)(TIM_ExtTRGPrescaler | (TIM_ExtTRGPolarity | (ExtTRGFilter << 8U)));
 c0054e6:	e9d1 5201 	ldrd	r5, r2, [r1, #4]
  tmpsmcr = TIMx->SMCR;
 c0054ea:	6884      	ldr	r4, [r0, #8]
  tmpsmcr |= (uint32_t)(TIM_ExtTRGPrescaler | (TIM_ExtTRGPolarity | (ExtTRGFilter << 8U)));
 c0054ec:	432a      	orrs	r2, r5
 c0054ee:	68cd      	ldr	r5, [r1, #12]
  tmpsmcr &= ~(TIM_SMCR_ETF | TIM_SMCR_ETPS | TIM_SMCR_ECE | TIM_SMCR_ETP);
 c0054f0:	f424 417f 	bic.w	r1, r4, #65280	@ 0xff00
  tmpsmcr |= (uint32_t)(TIM_ExtTRGPrescaler | (TIM_ExtTRGPolarity | (ExtTRGFilter << 8U)));
 c0054f4:	ea42 2205 	orr.w	r2, r2, r5, lsl #8
 c0054f8:	430a      	orrs	r2, r1

  /* Write to TIMx SMCR */
  TIMx->SMCR = tmpsmcr;
 c0054fa:	6082      	str	r2, [r0, #8]
      htim->Instance->SMCR |= TIM_SMCR_ECE;
 c0054fc:	6882      	ldr	r2, [r0, #8]
 c0054fe:	f442 4280 	orr.w	r2, r2, #16384	@ 0x4000
 c005502:	6082      	str	r2, [r0, #8]
      break;
 c005504:	e7d2      	b.n	c0054ac <HAL_TIM_ConfigClockSource+0x68>
  switch (sClockSourceConfig->ClockSource)
 c005506:	f032 0110 	bics.w	r1, r2, #16
 c00550a:	d1cf      	bne.n	c0054ac <HAL_TIM_ConfigClockSource+0x68>
 c00550c:	e7dc      	b.n	c0054c8 <HAL_TIM_ConfigClockSource+0x84>
      TIM_TI1_ConfigInputStage(htim->Instance,
 c00550e:	684a      	ldr	r2, [r1, #4]
 c005510:	68cc      	ldr	r4, [r1, #12]
  tmpccer = TIMx->CCER;
 c005512:	6a01      	ldr	r1, [r0, #32]
  tmpccer &= ~(TIM_CCER_CC1P | TIM_CCER_CC1NP);
 c005514:	f021 010a 	bic.w	r1, r1, #10
  tmpccer |= TIM_ICPolarity;
 c005518:	4311      	orrs	r1, r2
  TIMx->CCER &= ~TIM_CCER_CC1E;
 c00551a:	6a02      	ldr	r2, [r0, #32]
 c00551c:	f022 0201 	bic.w	r2, r2, #1
 c005520:	6202      	str	r2, [r0, #32]
  tmpccmr1 = TIMx->CCMR1;
 c005522:	6982      	ldr	r2, [r0, #24]
  tmpccmr1 &= ~TIM_CCMR1_IC1F;
 c005524:	f022 02f0 	bic.w	r2, r2, #240	@ 0xf0
  tmpccmr1 |= (TIM_ICFilter << 4U);
 c005528:	ea42 1204 	orr.w	r2, r2, r4, lsl #4
  TIMx->CCMR1 = tmpccmr1;
 c00552c:	6182      	str	r2, [r0, #24]
  TIMx->CCER = tmpccer;
 c00552e:	6201      	str	r1, [r0, #32]
  tmpsmcr = TIMx->SMCR;
 c005530:	6882      	ldr	r2, [r0, #8]
  tmpsmcr &= ~TIM_SMCR_TS;
 c005532:	f422 1240 	bic.w	r2, r2, #3145728	@ 0x300000
 c005536:	f022 0270 	bic.w	r2, r2, #112	@ 0x70
  tmpsmcr |= (InputTriggerSource | TIM_SLAVEMODE_EXTERNAL1);
 c00553a:	f042 0247 	orr.w	r2, r2, #71	@ 0x47
  TIMx->SMCR = tmpsmcr;
 c00553e:	6082      	str	r2, [r0, #8]
}
 c005540:	e7b4      	b.n	c0054ac <HAL_TIM_ConfigClockSource+0x68>
  __HAL_LOCK(htim);
 c005542:	2002      	movs	r0, #2
}
 c005544:	4770      	bx	lr
  TIMx->CCER &= ~TIM_CCER_CC2E;
 c005546:	6a02      	ldr	r2, [r0, #32]
      TIM_TI2_ConfigInputStage(htim->Instance,
 c005548:	684c      	ldr	r4, [r1, #4]
  TIMx->CCER &= ~TIM_CCER_CC2E;
 c00554a:	f022 0210 	bic.w	r2, r2, #16
      TIM_TI2_ConfigInputStage(htim->Instance,
 c00554e:	68cd      	ldr	r5, [r1, #12]
  TIMx->CCER &= ~TIM_CCER_CC2E;
 c005550:	6202      	str	r2, [r0, #32]
  tmpccmr1 = TIMx->CCMR1;
 c005552:	6981      	ldr	r1, [r0, #24]
  tmpccer = TIMx->CCER;
 c005554:	6a02      	ldr	r2, [r0, #32]
  tmpccmr1 &= ~TIM_CCMR1_IC2F;
 c005556:	f421 4170 	bic.w	r1, r1, #61440	@ 0xf000
  tmpccer &= ~(TIM_CCER_CC2P | TIM_CCER_CC2NP);
 c00555a:	f022 02a0 	bic.w	r2, r2, #160	@ 0xa0
  tmpccer |= (TIM_ICPolarity << 4U);
 c00555e:	ea42 1204 	orr.w	r2, r2, r4, lsl #4
  tmpccmr1 |= (TIM_ICFilter << 12U);
 c005562:	ea41 3105 	orr.w	r1, r1, r5, lsl #12
  TIMx->CCMR1 = tmpccmr1 ;
 c005566:	6181      	str	r1, [r0, #24]
  TIMx->CCER = tmpccer;
 c005568:	6202      	str	r2, [r0, #32]
  tmpsmcr = TIMx->SMCR;
 c00556a:	6882      	ldr	r2, [r0, #8]
  tmpsmcr &= ~TIM_SMCR_TS;
 c00556c:	f422 1240 	bic.w	r2, r2, #3145728	@ 0x300000
 c005570:	f022 0270 	bic.w	r2, r2, #112	@ 0x70
  tmpsmcr |= (InputTriggerSource | TIM_SLAVEMODE_EXTERNAL1);
 c005574:	f042 0267 	orr.w	r2, r2, #103	@ 0x67
  TIMx->SMCR = tmpsmcr;
 c005578:	6082      	str	r2, [r0, #8]
}
 c00557a:	e797      	b.n	c0054ac <HAL_TIM_ConfigClockSource+0x68>
  tmpsmcr |= (uint32_t)(TIM_ExtTRGPrescaler | (TIM_ExtTRGPolarity | (ExtTRGFilter << 8U)));
 c00557c:	e9d1 5201 	ldrd	r5, r2, [r1, #4]
  tmpsmcr = TIMx->SMCR;
 c005580:	6884      	ldr	r4, [r0, #8]
  tmpsmcr |= (uint32_t)(TIM_ExtTRGPrescaler | (TIM_ExtTRGPolarity | (ExtTRGFilter << 8U)));
 c005582:	432a      	orrs	r2, r5
 c005584:	68cd      	ldr	r5, [r1, #12]
  tmpsmcr &= ~(TIM_SMCR_ETF | TIM_SMCR_ETPS | TIM_SMCR_ECE | TIM_SMCR_ETP);
 c005586:	f424 417f 	bic.w	r1, r4, #65280	@ 0xff00
  tmpsmcr |= (uint32_t)(TIM_ExtTRGPrescaler | (TIM_ExtTRGPolarity | (ExtTRGFilter << 8U)));
 c00558a:	ea42 2205 	orr.w	r2, r2, r5, lsl #8
 c00558e:	430a      	orrs	r2, r1
  TIMx->SMCR = tmpsmcr;
 c005590:	6082      	str	r2, [r0, #8]
      tmpsmcr = htim->Instance->SMCR;
 c005592:	6882      	ldr	r2, [r0, #8]
      tmpsmcr |= (TIM_SLAVEMODE_EXTERNAL1 | TIM_CLOCKSOURCE_ETRMODE1);
 c005594:	f042 0277 	orr.w	r2, r2, #119	@ 0x77
      htim->Instance->SMCR = tmpsmcr;
 c005598:	6082      	str	r2, [r0, #8]
      break;
 c00559a:	e787      	b.n	c0054ac <HAL_TIM_ConfigClockSource+0x68>
 c00559c:	ffce0088 	.word	0xffce0088

0c0055a0 <HAL_TIM_PeriodElapsedCallback>:
__weak void HAL_TIM_PeriodElapsedCallback(TIM_HandleTypeDef *htim)
 c0055a0:	4770      	bx	lr
 c0055a2:	bf00      	nop

0c0055a4 <HAL_TIM_OC_DelayElapsedCallback>:
__weak void HAL_TIM_OC_DelayElapsedCallback(TIM_HandleTypeDef *htim)
 c0055a4:	4770      	bx	lr
 c0055a6:	bf00      	nop

0c0055a8 <HAL_TIM_IC_CaptureCallback>:
__weak void HAL_TIM_IC_CaptureCallback(TIM_HandleTypeDef *htim)
 c0055a8:	4770      	bx	lr
 c0055aa:	bf00      	nop

0c0055ac <HAL_TIM_PWM_PulseFinishedCallback>:
__weak void HAL_TIM_PWM_PulseFinishedCallback(TIM_HandleTypeDef *htim)
 c0055ac:	4770      	bx	lr
 c0055ae:	bf00      	nop

0c0055b0 <HAL_TIM_TriggerCallback>:
__weak void HAL_TIM_TriggerCallback(TIM_HandleTypeDef *htim)
 c0055b0:	4770      	bx	lr
 c0055b2:	bf00      	nop

0c0055b4 <HAL_TIM_IRQHandler>:
  if (__HAL_TIM_GET_FLAG(htim, TIM_FLAG_CC1) != RESET)
 c0055b4:	6803      	ldr	r3, [r0, #0]
{
 c0055b6:	b510      	push	{r4, lr}
  if (__HAL_TIM_GET_FLAG(htim, TIM_FLAG_CC1) != RESET)
 c0055b8:	691a      	ldr	r2, [r3, #16]
{
 c0055ba:	4604      	mov	r4, r0
  if (__HAL_TIM_GET_FLAG(htim, TIM_FLAG_CC1) != RESET)
 c0055bc:	0791      	lsls	r1, r2, #30
 c0055be:	d502      	bpl.n	c0055c6 <HAL_TIM_IRQHandler+0x12>
    if (__HAL_TIM_GET_IT_SOURCE(htim, TIM_IT_CC1) != RESET)
 c0055c0:	68da      	ldr	r2, [r3, #12]
 c0055c2:	0792      	lsls	r2, r2, #30
 c0055c4:	d468      	bmi.n	c005698 <HAL_TIM_IRQHandler+0xe4>
  if (__HAL_TIM_GET_FLAG(htim, TIM_FLAG_CC2) != RESET)
 c0055c6:	691a      	ldr	r2, [r3, #16]
 c0055c8:	0752      	lsls	r2, r2, #29
 c0055ca:	d502      	bpl.n	c0055d2 <HAL_TIM_IRQHandler+0x1e>
    if (__HAL_TIM_GET_IT_SOURCE(htim, TIM_IT_CC2) != RESET)
 c0055cc:	68da      	ldr	r2, [r3, #12]
 c0055ce:	0750      	lsls	r0, r2, #29
 c0055d0:	d44f      	bmi.n	c005672 <HAL_TIM_IRQHandler+0xbe>
  if (__HAL_TIM_GET_FLAG(htim, TIM_FLAG_CC3) != RESET)
 c0055d2:	691a      	ldr	r2, [r3, #16]
 c0055d4:	0711      	lsls	r1, r2, #28
 c0055d6:	d502      	bpl.n	c0055de <HAL_TIM_IRQHandler+0x2a>
    if (__HAL_TIM_GET_IT_SOURCE(htim, TIM_IT_CC3) != RESET)
 c0055d8:	68da      	ldr	r2, [r3, #12]
 c0055da:	0712      	lsls	r2, r2, #28
 c0055dc:	d437      	bmi.n	c00564e <HAL_TIM_IRQHandler+0x9a>
  if (__HAL_TIM_GET_FLAG(htim, TIM_FLAG_CC4) != RESET)
 c0055de:	691a      	ldr	r2, [r3, #16]
 c0055e0:	06d0      	lsls	r0, r2, #27
 c0055e2:	d502      	bpl.n	c0055ea <HAL_TIM_IRQHandler+0x36>
    if (__HAL_TIM_GET_IT_SOURCE(htim, TIM_IT_CC4) != RESET)
 c0055e4:	68da      	ldr	r2, [r3, #12]
 c0055e6:	06d1      	lsls	r1, r2, #27
 c0055e8:	d41e      	bmi.n	c005628 <HAL_TIM_IRQHandler+0x74>
  if (__HAL_TIM_GET_FLAG(htim, TIM_FLAG_UPDATE) != RESET)
 c0055ea:	691a      	ldr	r2, [r3, #16]
 c0055ec:	07d2      	lsls	r2, r2, #31
 c0055ee:	d502      	bpl.n	c0055f6 <HAL_TIM_IRQHandler+0x42>
    if (__HAL_TIM_GET_IT_SOURCE(htim, TIM_IT_UPDATE) != RESET)
 c0055f0:	68da      	ldr	r2, [r3, #12]
 c0055f2:	07d0      	lsls	r0, r2, #31
 c0055f4:	d469      	bmi.n	c0056ca <HAL_TIM_IRQHandler+0x116>
  if (__HAL_TIM_GET_FLAG(htim, TIM_FLAG_BREAK) != RESET)
 c0055f6:	691a      	ldr	r2, [r3, #16]
 c0055f8:	0611      	lsls	r1, r2, #24
 c0055fa:	d502      	bpl.n	c005602 <HAL_TIM_IRQHandler+0x4e>
    if (__HAL_TIM_GET_IT_SOURCE(htim, TIM_IT_BREAK) != RESET)
 c0055fc:	68da      	ldr	r2, [r3, #12]
 c0055fe:	0612      	lsls	r2, r2, #24
 c005600:	d46b      	bmi.n	c0056da <HAL_TIM_IRQHandler+0x126>
  if (__HAL_TIM_GET_FLAG(htim, TIM_FLAG_BREAK2) != RESET)
 c005602:	691a      	ldr	r2, [r3, #16]
 c005604:	05d0      	lsls	r0, r2, #23
 c005606:	d502      	bpl.n	c00560e <HAL_TIM_IRQHandler+0x5a>
    if (__HAL_TIM_GET_IT_SOURCE(htim, TIM_IT_BREAK) != RESET)
 c005608:	68da      	ldr	r2, [r3, #12]
 c00560a:	0611      	lsls	r1, r2, #24
 c00560c:	d46d      	bmi.n	c0056ea <HAL_TIM_IRQHandler+0x136>
  if (__HAL_TIM_GET_FLAG(htim, TIM_FLAG_TRIGGER) != RESET)
 c00560e:	691a      	ldr	r2, [r3, #16]
 c005610:	0652      	lsls	r2, r2, #25
 c005612:	d502      	bpl.n	c00561a <HAL_TIM_IRQHandler+0x66>
    if (__HAL_TIM_GET_IT_SOURCE(htim, TIM_IT_TRIGGER) != RESET)
 c005614:	68da      	ldr	r2, [r3, #12]
 c005616:	0650      	lsls	r0, r2, #25
 c005618:	d46f      	bmi.n	c0056fa <HAL_TIM_IRQHandler+0x146>
  if (__HAL_TIM_GET_FLAG(htim, TIM_FLAG_COM) != RESET)
 c00561a:	691a      	ldr	r2, [r3, #16]
 c00561c:	0691      	lsls	r1, r2, #26
 c00561e:	d502      	bpl.n	c005626 <HAL_TIM_IRQHandler+0x72>
    if (__HAL_TIM_GET_IT_SOURCE(htim, TIM_IT_COM) != RESET)
 c005620:	68da      	ldr	r2, [r3, #12]
 c005622:	0692      	lsls	r2, r2, #26
 c005624:	d449      	bmi.n	c0056ba <HAL_TIM_IRQHandler+0x106>
}
 c005626:	bd10      	pop	{r4, pc}
      __HAL_TIM_CLEAR_IT(htim, TIM_IT_CC4);
 c005628:	f06f 0110 	mvn.w	r1, #16
      htim->Channel = HAL_TIM_ACTIVE_CHANNEL_4;
 c00562c:	2208      	movs	r2, #8
      __HAL_TIM_CLEAR_IT(htim, TIM_IT_CC4);
 c00562e:	6119      	str	r1, [r3, #16]
      htim->Channel = HAL_TIM_ACTIVE_CHANNEL_4;
 c005630:	7722      	strb	r2, [r4, #28]
      if ((htim->Instance->CCMR2 & TIM_CCMR2_CC4S) != 0x00U)
 c005632:	69db      	ldr	r3, [r3, #28]
        HAL_TIM_IC_CaptureCallback(htim);
 c005634:	4620      	mov	r0, r4
      if ((htim->Instance->CCMR2 & TIM_CCMR2_CC4S) != 0x00U)
 c005636:	f413 7f40 	tst.w	r3, #768	@ 0x300
 c00563a:	d16f      	bne.n	c00571c <HAL_TIM_IRQHandler+0x168>
        HAL_TIM_OC_DelayElapsedCallback(htim);
 c00563c:	f7ff ffb2 	bl	c0055a4 <HAL_TIM_OC_DelayElapsedCallback>
        HAL_TIM_PWM_PulseFinishedCallback(htim);
 c005640:	4620      	mov	r0, r4
 c005642:	f7ff ffb3 	bl	c0055ac <HAL_TIM_PWM_PulseFinishedCallback>
      htim->Channel = HAL_TIM_ACTIVE_CHANNEL_CLEARED;
 c005646:	2200      	movs	r2, #0
  if (__HAL_TIM_GET_FLAG(htim, TIM_FLAG_UPDATE) != RESET)
 c005648:	6823      	ldr	r3, [r4, #0]
      htim->Channel = HAL_TIM_ACTIVE_CHANNEL_CLEARED;
 c00564a:	7722      	strb	r2, [r4, #28]
 c00564c:	e7cd      	b.n	c0055ea <HAL_TIM_IRQHandler+0x36>
      __HAL_TIM_CLEAR_IT(htim, TIM_IT_CC3);
 c00564e:	f06f 0108 	mvn.w	r1, #8
      htim->Channel = HAL_TIM_ACTIVE_CHANNEL_3;
 c005652:	2204      	movs	r2, #4
      __HAL_TIM_CLEAR_IT(htim, TIM_IT_CC3);
 c005654:	6119      	str	r1, [r3, #16]
      htim->Channel = HAL_TIM_ACTIVE_CHANNEL_3;
 c005656:	7722      	strb	r2, [r4, #28]
      if ((htim->Instance->CCMR2 & TIM_CCMR2_CC3S) != 0x00U)
 c005658:	69db      	ldr	r3, [r3, #28]
        HAL_TIM_IC_CaptureCallback(htim);
 c00565a:	4620      	mov	r0, r4
      if ((htim->Instance->CCMR2 & TIM_CCMR2_CC3S) != 0x00U)
 c00565c:	079b      	lsls	r3, r3, #30
 c00565e:	d15a      	bne.n	c005716 <HAL_TIM_IRQHandler+0x162>
        HAL_TIM_OC_DelayElapsedCallback(htim);
 c005660:	f7ff ffa0 	bl	c0055a4 <HAL_TIM_OC_DelayElapsedCallback>
        HAL_TIM_PWM_PulseFinishedCallback(htim);
 c005664:	4620      	mov	r0, r4
 c005666:	f7ff ffa1 	bl	c0055ac <HAL_TIM_PWM_PulseFinishedCallback>
      htim->Channel = HAL_TIM_ACTIVE_CHANNEL_CLEARED;
 c00566a:	2200      	movs	r2, #0
  if (__HAL_TIM_GET_FLAG(htim, TIM_FLAG_CC4) != RESET)
 c00566c:	6823      	ldr	r3, [r4, #0]
      htim->Channel = HAL_TIM_ACTIVE_CHANNEL_CLEARED;
 c00566e:	7722      	strb	r2, [r4, #28]
 c005670:	e7b5      	b.n	c0055de <HAL_TIM_IRQHandler+0x2a>
      __HAL_TIM_CLEAR_IT(htim, TIM_IT_CC2);
 c005672:	f06f 0104 	mvn.w	r1, #4
      htim->Channel = HAL_TIM_ACTIVE_CHANNEL_2;
 c005676:	2202      	movs	r2, #2
      __HAL_TIM_CLEAR_IT(htim, TIM_IT_CC2);
 c005678:	6119      	str	r1, [r3, #16]
      htim->Channel = HAL_TIM_ACTIVE_CHANNEL_2;
 c00567a:	7722      	strb	r2, [r4, #28]
      if ((htim->Instance->CCMR1 & TIM_CCMR1_CC2S) != 0x00U)
 c00567c:	699b      	ldr	r3, [r3, #24]
        HAL_TIM_IC_CaptureCallback(htim);
 c00567e:	4620      	mov	r0, r4
      if ((htim->Instance->CCMR1 & TIM_CCMR1_CC2S) != 0x00U)
 c005680:	f413 7f40 	tst.w	r3, #768	@ 0x300
 c005684:	d144      	bne.n	c005710 <HAL_TIM_IRQHandler+0x15c>
        HAL_TIM_OC_DelayElapsedCallback(htim);
 c005686:	f7ff ff8d 	bl	c0055a4 <HAL_TIM_OC_DelayElapsedCallback>
        HAL_TIM_PWM_PulseFinishedCallback(htim);
 c00568a:	4620      	mov	r0, r4
 c00568c:	f7ff ff8e 	bl	c0055ac <HAL_TIM_PWM_PulseFinishedCallback>
      htim->Channel = HAL_TIM_ACTIVE_CHANNEL_CLEARED;
 c005690:	2200      	movs	r2, #0
  if (__HAL_TIM_GET_FLAG(htim, TIM_FLAG_CC3) != RESET)
 c005692:	6823      	ldr	r3, [r4, #0]
      htim->Channel = HAL_TIM_ACTIVE_CHANNEL_CLEARED;
 c005694:	7722      	strb	r2, [r4, #28]
 c005696:	e79c      	b.n	c0055d2 <HAL_TIM_IRQHandler+0x1e>
        __HAL_TIM_CLEAR_IT(htim, TIM_IT_CC1);
 c005698:	f06f 0102 	mvn.w	r1, #2
        htim->Channel = HAL_TIM_ACTIVE_CHANNEL_1;
 c00569c:	2201      	movs	r2, #1
        __HAL_TIM_CLEAR_IT(htim, TIM_IT_CC1);
 c00569e:	6119      	str	r1, [r3, #16]
        htim->Channel = HAL_TIM_ACTIVE_CHANNEL_1;
 c0056a0:	7702      	strb	r2, [r0, #28]
        if ((htim->Instance->CCMR1 & TIM_CCMR1_CC1S) != 0x00U)
 c0056a2:	699b      	ldr	r3, [r3, #24]
 c0056a4:	0799      	lsls	r1, r3, #30
 c0056a6:	d130      	bne.n	c00570a <HAL_TIM_IRQHandler+0x156>
          HAL_TIM_OC_DelayElapsedCallback(htim);
 c0056a8:	f7ff ff7c 	bl	c0055a4 <HAL_TIM_OC_DelayElapsedCallback>
          HAL_TIM_PWM_PulseFinishedCallback(htim);
 c0056ac:	4620      	mov	r0, r4
 c0056ae:	f7ff ff7d 	bl	c0055ac <HAL_TIM_PWM_PulseFinishedCallback>
        htim->Channel = HAL_TIM_ACTIVE_CHANNEL_CLEARED;
 c0056b2:	2200      	movs	r2, #0
  if (__HAL_TIM_GET_FLAG(htim, TIM_FLAG_CC2) != RESET)
 c0056b4:	6823      	ldr	r3, [r4, #0]
        htim->Channel = HAL_TIM_ACTIVE_CHANNEL_CLEARED;
 c0056b6:	7722      	strb	r2, [r4, #28]
 c0056b8:	e785      	b.n	c0055c6 <HAL_TIM_IRQHandler+0x12>
      __HAL_TIM_CLEAR_IT(htim, TIM_FLAG_COM);
 c0056ba:	f06f 0220 	mvn.w	r2, #32
      HAL_TIMEx_CommutCallback(htim);
 c0056be:	4620      	mov	r0, r4
}
 c0056c0:	e8bd 4010 	ldmia.w	sp!, {r4, lr}
      __HAL_TIM_CLEAR_IT(htim, TIM_FLAG_COM);
 c0056c4:	611a      	str	r2, [r3, #16]
      HAL_TIMEx_CommutCallback(htim);
 c0056c6:	f000 b87d 	b.w	c0057c4 <HAL_TIMEx_CommutCallback>
      __HAL_TIM_CLEAR_IT(htim, TIM_IT_UPDATE);
 c0056ca:	f06f 0201 	mvn.w	r2, #1
      HAL_TIM_PeriodElapsedCallback(htim);
 c0056ce:	4620      	mov	r0, r4
      __HAL_TIM_CLEAR_IT(htim, TIM_IT_UPDATE);
 c0056d0:	611a      	str	r2, [r3, #16]
      HAL_TIM_PeriodElapsedCallback(htim);
 c0056d2:	f7ff ff65 	bl	c0055a0 <HAL_TIM_PeriodElapsedCallback>
  if (__HAL_TIM_GET_FLAG(htim, TIM_FLAG_BREAK) != RESET)
 c0056d6:	6823      	ldr	r3, [r4, #0]
 c0056d8:	e78d      	b.n	c0055f6 <HAL_TIM_IRQHandler+0x42>
      __HAL_TIM_CLEAR_IT(htim, TIM_IT_BREAK);
 c0056da:	f06f 0280 	mvn.w	r2, #128	@ 0x80
      HAL_TIMEx_BreakCallback(htim);
 c0056de:	4620      	mov	r0, r4
      __HAL_TIM_CLEAR_IT(htim, TIM_IT_BREAK);
 c0056e0:	611a      	str	r2, [r3, #16]
      HAL_TIMEx_BreakCallback(htim);
 c0056e2:	f000 f871 	bl	c0057c8 <HAL_TIMEx_BreakCallback>
  if (__HAL_TIM_GET_FLAG(htim, TIM_FLAG_BREAK2) != RESET)
 c0056e6:	6823      	ldr	r3, [r4, #0]
 c0056e8:	e78b      	b.n	c005602 <HAL_TIM_IRQHandler+0x4e>
      __HAL_TIM_CLEAR_FLAG(htim, TIM_FLAG_BREAK2);
 c0056ea:	f46f 7280 	mvn.w	r2, #256	@ 0x100
      HAL_TIMEx_Break2Callback(htim);
 c0056ee:	4620      	mov	r0, r4
      __HAL_TIM_CLEAR_FLAG(htim, TIM_FLAG_BREAK2);
 c0056f0:	611a      	str	r2, [r3, #16]
      HAL_TIMEx_Break2Callback(htim);
 c0056f2:	f000 f86b 	bl	c0057cc <HAL_TIMEx_Break2Callback>
  if (__HAL_TIM_GET_FLAG(htim, TIM_FLAG_TRIGGER) != RESET)
 c0056f6:	6823      	ldr	r3, [r4, #0]
 c0056f8:	e789      	b.n	c00560e <HAL_TIM_IRQHandler+0x5a>
      __HAL_TIM_CLEAR_IT(htim, TIM_IT_TRIGGER);
 c0056fa:	f06f 0240 	mvn.w	r2, #64	@ 0x40
      HAL_TIM_TriggerCallback(htim);
 c0056fe:	4620      	mov	r0, r4
      __HAL_TIM_CLEAR_IT(htim, TIM_IT_TRIGGER);
 c005700:	611a      	str	r2, [r3, #16]
      HAL_TIM_TriggerCallback(htim);
 c005702:	f7ff ff55 	bl	c0055b0 <HAL_TIM_TriggerCallback>
  if (__HAL_TIM_GET_FLAG(htim, TIM_FLAG_COM) != RESET)
 c005706:	6823      	ldr	r3, [r4, #0]
 c005708:	e787      	b.n	c00561a <HAL_TIM_IRQHandler+0x66>
          HAL_TIM_IC_CaptureCallback(htim);
 c00570a:	f7ff ff4d 	bl	c0055a8 <HAL_TIM_IC_CaptureCallback>
 c00570e:	e7d0      	b.n	c0056b2 <HAL_TIM_IRQHandler+0xfe>
        HAL_TIM_IC_CaptureCallback(htim);
 c005710:	f7ff ff4a 	bl	c0055a8 <HAL_TIM_IC_CaptureCallback>
 c005714:	e7bc      	b.n	c005690 <HAL_TIM_IRQHandler+0xdc>
        HAL_TIM_IC_CaptureCallback(htim);
 c005716:	f7ff ff47 	bl	c0055a8 <HAL_TIM_IC_CaptureCallback>
 c00571a:	e7a6      	b.n	c00566a <HAL_TIM_IRQHandler+0xb6>
        HAL_TIM_IC_CaptureCallback(htim);
 c00571c:	f7ff ff44 	bl	c0055a8 <HAL_TIM_IC_CaptureCallback>
 c005720:	e791      	b.n	c005646 <HAL_TIM_IRQHandler+0x92>
 c005722:	bf00      	nop

0c005724 <HAL_TIMEx_MasterConfigSynchronization>:
  assert_param(IS_TIM_MASTER_INSTANCE(htim->Instance));
  assert_param(IS_TIM_TRGO_SOURCE(sMasterConfig->MasterOutputTrigger));
  assert_param(IS_TIM_MSM_STATE(sMasterConfig->MasterSlaveMode));

  /* Check input state */
  __HAL_LOCK(htim);
 c005724:	f890 203c 	ldrb.w	r2, [r0, #60]	@ 0x3c
 c005728:	2a01      	cmp	r2, #1
 c00572a:	d045      	beq.n	c0057b8 <HAL_TIMEx_MasterConfigSynchronization+0x94>
 c00572c:	4603      	mov	r3, r0

  /* Change the handler state */
  htim->State = HAL_TIM_STATE_BUSY;
 c00572e:	2002      	movs	r0, #2
{
 c005730:	b470      	push	{r4, r5, r6}

  /* Get the TIMx CR2 register value */
  tmpcr2 = htim->Instance->CR2;
 c005732:	681a      	ldr	r2, [r3, #0]

  /* Get the TIMx SMCR register value */
  tmpsmcr = htim->Instance->SMCR;

  /* If the timer supports ADC synchronization through TRGO2, set the master mode selection 2 */
  if (IS_TIM_TRGO2_INSTANCE(htim->Instance))
 c005734:	4e21      	ldr	r6, [pc, #132]	@ (c0057bc <HAL_TIMEx_MasterConfigSynchronization+0x98>)
  htim->State = HAL_TIM_STATE_BUSY;
 c005736:	f883 003d 	strb.w	r0, [r3, #61]	@ 0x3d
  if (IS_TIM_TRGO2_INSTANCE(htim->Instance))
 c00573a:	42b2      	cmp	r2, r6
  tmpcr2 = htim->Instance->CR2;
 c00573c:	6850      	ldr	r0, [r2, #4]
  }

  /* Reset the MMS Bits */
  tmpcr2 &= ~TIM_CR2_MMS;
  /* Select the TRGO source */
  tmpcr2 |=  sMasterConfig->MasterOutputTrigger;
 c00573e:	680d      	ldr	r5, [r1, #0]
  tmpsmcr = htim->Instance->SMCR;
 c005740:	6894      	ldr	r4, [r2, #8]
  if (IS_TIM_TRGO2_INSTANCE(htim->Instance))
 c005742:	d027      	beq.n	c005794 <HAL_TIMEx_MasterConfigSynchronization+0x70>
 c005744:	f506 6600 	add.w	r6, r6, #2048	@ 0x800
 c005748:	42b2      	cmp	r2, r6
 c00574a:	d02c      	beq.n	c0057a6 <HAL_TIMEx_MasterConfigSynchronization+0x82>
  tmpcr2 &= ~TIM_CR2_MMS;
 c00574c:	f020 0070 	bic.w	r0, r0, #112	@ 0x70
  tmpcr2 |=  sMasterConfig->MasterOutputTrigger;
 c005750:	4328      	orrs	r0, r5

  /* Update TIMx CR2 */
  htim->Instance->CR2 = tmpcr2;

  if (IS_TIM_SLAVE_INSTANCE(htim->Instance))
 c005752:	f1b2 4fa0 	cmp.w	r2, #1342177280	@ 0x50000000
  htim->Instance->CR2 = tmpcr2;
 c005756:	6050      	str	r0, [r2, #4]
  if (IS_TIM_SLAVE_INSTANCE(htim->Instance))
 c005758:	d00e      	beq.n	c005778 <HAL_TIMEx_MasterConfigSynchronization+0x54>
 c00575a:	4819      	ldr	r0, [pc, #100]	@ (c0057c0 <HAL_TIMEx_MasterConfigSynchronization+0x9c>)
 c00575c:	4282      	cmp	r2, r0
 c00575e:	d00b      	beq.n	c005778 <HAL_TIMEx_MasterConfigSynchronization+0x54>
 c005760:	f500 6080 	add.w	r0, r0, #1024	@ 0x400
 c005764:	4282      	cmp	r2, r0
 c005766:	d007      	beq.n	c005778 <HAL_TIMEx_MasterConfigSynchronization+0x54>
 c005768:	f500 6080 	add.w	r0, r0, #1024	@ 0x400
 c00576c:	4282      	cmp	r2, r0
 c00576e:	d003      	beq.n	c005778 <HAL_TIMEx_MasterConfigSynchronization+0x54>
 c005770:	f500 309a 	add.w	r0, r0, #78848	@ 0x13400
 c005774:	4282      	cmp	r2, r0
 c005776:	d104      	bne.n	c005782 <HAL_TIMEx_MasterConfigSynchronization+0x5e>
  {
    /* Reset the MSM Bit */
    tmpsmcr &= ~TIM_SMCR_MSM;
    /* Set master mode */
    tmpsmcr |= sMasterConfig->MasterSlaveMode;
 c005778:	6889      	ldr	r1, [r1, #8]
    tmpsmcr &= ~TIM_SMCR_MSM;
 c00577a:	f024 0480 	bic.w	r4, r4, #128	@ 0x80
    tmpsmcr |= sMasterConfig->MasterSlaveMode;
 c00577e:	430c      	orrs	r4, r1

    /* Update TIMx SMCR */
    htim->Instance->SMCR = tmpsmcr;
 c005780:	6094      	str	r4, [r2, #8]
  }

  /* Change the htim state */
  htim->State = HAL_TIM_STATE_READY;

  __HAL_UNLOCK(htim);
 c005782:	2200      	movs	r2, #0
  htim->State = HAL_TIM_STATE_READY;
 c005784:	2101      	movs	r1, #1
  __HAL_UNLOCK(htim);
 c005786:	f883 203c 	strb.w	r2, [r3, #60]	@ 0x3c
  htim->State = HAL_TIM_STATE_READY;
 c00578a:	f883 103d 	strb.w	r1, [r3, #61]	@ 0x3d

  return HAL_OK;
 c00578e:	4610      	mov	r0, r2
}
 c005790:	bc70      	pop	{r4, r5, r6}
 c005792:	4770      	bx	lr
    tmpcr2 |= sMasterConfig->MasterOutputTrigger2;
 c005794:	684e      	ldr	r6, [r1, #4]
    tmpcr2 &= ~TIM_CR2_MMS2;
 c005796:	f420 0070 	bic.w	r0, r0, #15728640	@ 0xf00000
    tmpcr2 |= sMasterConfig->MasterOutputTrigger2;
 c00579a:	4330      	orrs	r0, r6
  tmpcr2 &= ~TIM_CR2_MMS;
 c00579c:	f020 0070 	bic.w	r0, r0, #112	@ 0x70
  tmpcr2 |=  sMasterConfig->MasterOutputTrigger;
 c0057a0:	4328      	orrs	r0, r5
  htim->Instance->CR2 = tmpcr2;
 c0057a2:	6050      	str	r0, [r2, #4]
  if (IS_TIM_SLAVE_INSTANCE(htim->Instance))
 c0057a4:	e7e8      	b.n	c005778 <HAL_TIMEx_MasterConfigSynchronization+0x54>
    tmpcr2 |= sMasterConfig->MasterOutputTrigger2;
 c0057a6:	684e      	ldr	r6, [r1, #4]
    tmpcr2 &= ~TIM_CR2_MMS2;
 c0057a8:	f420 0070 	bic.w	r0, r0, #15728640	@ 0xf00000
    tmpcr2 |= sMasterConfig->MasterOutputTrigger2;
 c0057ac:	4330      	orrs	r0, r6
  tmpcr2 &= ~TIM_CR2_MMS;
 c0057ae:	f020 0070 	bic.w	r0, r0, #112	@ 0x70
  tmpcr2 |=  sMasterConfig->MasterOutputTrigger;
 c0057b2:	4305      	orrs	r5, r0
  htim->Instance->CR2 = tmpcr2;
 c0057b4:	6055      	str	r5, [r2, #4]
  if (IS_TIM_SLAVE_INSTANCE(htim->Instance))
 c0057b6:	e7df      	b.n	c005778 <HAL_TIMEx_MasterConfigSynchronization+0x54>
  __HAL_LOCK(htim);
 c0057b8:	2002      	movs	r0, #2
}
 c0057ba:	4770      	bx	lr
 c0057bc:	50012c00 	.word	0x50012c00
 c0057c0:	50000400 	.word	0x50000400

0c0057c4 <HAL_TIMEx_CommutCallback>:
/**
  * @brief  Hall commutation changed callback in non-blocking mode
  * @param  htim TIM handle
  * @retval None
  */
__weak void HAL_TIMEx_CommutCallback(TIM_HandleTypeDef *htim)
 c0057c4:	4770      	bx	lr
 c0057c6:	bf00      	nop

0c0057c8 <HAL_TIMEx_BreakCallback>:
/**
  * @brief  Hall Break detection callback in non-blocking mode
  * @param  htim TIM handle
  * @retval None
  */
__weak void HAL_TIMEx_BreakCallback(TIM_HandleTypeDef *htim)
 c0057c8:	4770      	bx	lr
 c0057ca:	bf00      	nop

0c0057cc <HAL_TIMEx_Break2Callback>:
/**
  * @brief  Hall Break2 detection callback in non blocking mode
  * @param  htim: TIM handle
  * @retval None
  */
__weak void HAL_TIMEx_Break2Callback(TIM_HandleTypeDef *htim)
 c0057cc:	4770      	bx	lr
 c0057ce:	bf00      	nop

0c0057d0 <HAL_UART_Receive>:
  * @param Size    Amount of data elements (u8 or u16) to be received.
  * @param Timeout Timeout duration.
  * @retval HAL status
  */
HAL_StatusTypeDef HAL_UART_Receive(UART_HandleTypeDef *huart, uint8_t *pData, uint16_t Size, uint32_t Timeout)
{
 c0057d0:	e92d 43f8 	stmdb	sp!, {r3, r4, r5, r6, r7, r8, r9, lr}
 c0057d4:	461d      	mov	r5, r3
  uint16_t *pdata16bits;
  uint16_t uhMask;
  uint32_t tickstart;

  /* Check that a Rx process is not already ongoing */
  if (huart->RxState == HAL_UART_STATE_READY)
 c0057d6:	f8d0 3088 	ldr.w	r3, [r0, #136]	@ 0x88
 c0057da:	2b20      	cmp	r3, #32
 c0057dc:	d153      	bne.n	c005886 <HAL_UART_Receive+0xb6>
  {
    if ((pData == NULL) || (Size == 0U))
 c0057de:	4689      	mov	r9, r1
 c0057e0:	2900      	cmp	r1, #0
 c0057e2:	d04d      	beq.n	c005880 <HAL_UART_Receive+0xb0>
 c0057e4:	4616      	mov	r6, r2
 c0057e6:	2a00      	cmp	r2, #0
 c0057e8:	d04a      	beq.n	c005880 <HAL_UART_Receive+0xb0>
    {
      return  HAL_ERROR;
    }

    __HAL_LOCK(huart);
 c0057ea:	f890 3080 	ldrb.w	r3, [r0, #128]	@ 0x80
 c0057ee:	4604      	mov	r4, r0
 c0057f0:	2b01      	cmp	r3, #1
 c0057f2:	d048      	beq.n	c005886 <HAL_UART_Receive+0xb6>

    huart->ErrorCode = HAL_UART_ERROR_NONE;
    huart->RxState = HAL_UART_STATE_BUSY_RX;
 c0057f4:	2322      	movs	r3, #34	@ 0x22
    __HAL_LOCK(huart);
 c0057f6:	2201      	movs	r2, #1
    huart->ErrorCode = HAL_UART_ERROR_NONE;
 c0057f8:	f04f 0800 	mov.w	r8, #0
    __HAL_LOCK(huart);
 c0057fc:	f880 2080 	strb.w	r2, [r0, #128]	@ 0x80
    huart->ErrorCode = HAL_UART_ERROR_NONE;
 c005800:	f8c0 808c 	str.w	r8, [r0, #140]	@ 0x8c
    huart->RxState = HAL_UART_STATE_BUSY_RX;
 c005804:	f8c0 3088 	str.w	r3, [r0, #136]	@ 0x88
    huart->ReceptionType = HAL_UART_RECEPTION_STANDARD;
 c005808:	f8c0 806c 	str.w	r8, [r0, #108]	@ 0x6c

    /* Init tickstart for timeout management */
    tickstart = HAL_GetTick();
 c00580c:	f7fe f858 	bl	c0038c0 <HAL_GetTick>

    huart->RxXferSize  = Size;
    huart->RxXferCount = Size;

    /* Computation of UART mask to apply to RDR register */
    UART_MASK_COMPUTATION(huart);
 c005810:	68a3      	ldr	r3, [r4, #8]
    tickstart = HAL_GetTick();
 c005812:	4607      	mov	r7, r0
    UART_MASK_COMPUTATION(huart);
 c005814:	f5b3 5f80 	cmp.w	r3, #4096	@ 0x1000
    huart->RxXferSize  = Size;
 c005818:	f8a4 605c 	strh.w	r6, [r4, #92]	@ 0x5c
    huart->RxXferCount = Size;
 c00581c:	f8a4 605e 	strh.w	r6, [r4, #94]	@ 0x5e
    UART_MASK_COMPUTATION(huart);
 c005820:	d057      	beq.n	c0058d2 <HAL_UART_Receive+0x102>
 c005822:	2b00      	cmp	r3, #0
 c005824:	d17e      	bne.n	c005924 <HAL_UART_Receive+0x154>
    uhMask = huart->Mask;
 c005826:	4698      	mov	r8, r3
    UART_MASK_COMPUTATION(huart);
 c005828:	6923      	ldr	r3, [r4, #16]
    uhMask = huart->Mask;
 c00582a:	2b00      	cmp	r3, #0
 c00582c:	bf0c      	ite	eq
 c00582e:	26ff      	moveq	r6, #255	@ 0xff
 c005830:	267f      	movne	r6, #127	@ 0x7f
    {
      pdata8bits  = pData;
      pdata16bits = NULL;
    }

    __HAL_UNLOCK(huart);
 c005832:	2300      	movs	r3, #0
 c005834:	f884 3080 	strb.w	r3, [r4, #128]	@ 0x80

    /* as long as data have to be received */
    while (huart->RxXferCount > 0U)
 c005838:	f8b4 305e 	ldrh.w	r3, [r4, #94]	@ 0x5e
    UART_MASK_COMPUTATION(huart);
 c00583c:	f8a4 6060 	strh.w	r6, [r4, #96]	@ 0x60
    while (huart->RxXferCount > 0U)
 c005840:	b29b      	uxth	r3, r3
 c005842:	b1bb      	cbz	r3, c005874 <HAL_UART_Receive+0xa4>
 c005844:	6823      	ldr	r3, [r4, #0]
 c005846:	1c6a      	adds	r2, r5, #1
 c005848:	d120      	bne.n	c00588c <HAL_UART_Receive+0xbc>
  */
HAL_StatusTypeDef UART_WaitOnFlagUntilTimeout(UART_HandleTypeDef *huart, uint32_t Flag, FlagStatus Status,
                                              uint32_t Tickstart, uint32_t Timeout)
{
  /* Wait until flag is set */
  while ((__HAL_UART_GET_FLAG(huart, Flag) ? SET : RESET) == Status)
 c00584a:	69da      	ldr	r2, [r3, #28]
 c00584c:	0690      	lsls	r0, r2, #26
 c00584e:	d5fc      	bpl.n	c00584a <HAL_UART_Receive+0x7a>
      if (pdata8bits == NULL)
 c005850:	f1b9 0f00 	cmp.w	r9, #0
 c005854:	d044      	beq.n	c0058e0 <HAL_UART_Receive+0x110>
        *pdata8bits = (uint8_t)(huart->Instance->RDR & (uint8_t)uhMask);
 c005856:	6a5b      	ldr	r3, [r3, #36]	@ 0x24
 c005858:	4033      	ands	r3, r6
 c00585a:	f809 3b01 	strb.w	r3, [r9], #1
      huart->RxXferCount--;
 c00585e:	f8b4 305e 	ldrh.w	r3, [r4, #94]	@ 0x5e
 c005862:	3b01      	subs	r3, #1
 c005864:	b29b      	uxth	r3, r3
 c005866:	f8a4 305e 	strh.w	r3, [r4, #94]	@ 0x5e
    while (huart->RxXferCount > 0U)
 c00586a:	f8b4 305e 	ldrh.w	r3, [r4, #94]	@ 0x5e
 c00586e:	b29b      	uxth	r3, r3
 c005870:	2b00      	cmp	r3, #0
 c005872:	d1e7      	bne.n	c005844 <HAL_UART_Receive+0x74>
    huart->RxState = HAL_UART_STATE_READY;
 c005874:	2320      	movs	r3, #32
    return HAL_OK;
 c005876:	2000      	movs	r0, #0
    huart->RxState = HAL_UART_STATE_READY;
 c005878:	f8c4 3088 	str.w	r3, [r4, #136]	@ 0x88
}
 c00587c:	e8bd 83f8 	ldmia.w	sp!, {r3, r4, r5, r6, r7, r8, r9, pc}
      return  HAL_ERROR;
 c005880:	2001      	movs	r0, #1
}
 c005882:	e8bd 83f8 	ldmia.w	sp!, {r3, r4, r5, r6, r7, r8, r9, pc}
    __HAL_LOCK(huart);
 c005886:	2002      	movs	r0, #2
}
 c005888:	e8bd 83f8 	ldmia.w	sp!, {r3, r4, r5, r6, r7, r8, r9, pc}
  while ((__HAL_UART_GET_FLAG(huart, Flag) ? SET : RESET) == Status)
 c00588c:	69da      	ldr	r2, [r3, #28]
 c00588e:	0691      	lsls	r1, r2, #26
 c005890:	d4de      	bmi.n	c005850 <HAL_UART_Receive+0x80>
  {
    /* Check for the Timeout */
    if (Timeout != HAL_MAX_DELAY)
    {
      if (((HAL_GetTick() - Tickstart) > Timeout) || (Timeout == 0U))
 c005892:	f7fe f815 	bl	c0038c0 <HAL_GetTick>
 c005896:	1bc0      	subs	r0, r0, r7
 c005898:	4285      	cmp	r5, r0
 c00589a:	6823      	ldr	r3, [r4, #0]
 c00589c:	d330      	bcc.n	c005900 <HAL_UART_Receive+0x130>
 c00589e:	b37d      	cbz	r5, c005900 <HAL_UART_Receive+0x130>
        __HAL_UNLOCK(huart);

        return HAL_TIMEOUT;
      }

      if (READ_BIT(huart->Instance->CR1, USART_CR1_RE) != 0U)
 c0058a0:	681a      	ldr	r2, [r3, #0]
 c0058a2:	0751      	lsls	r1, r2, #29
 c0058a4:	d5f2      	bpl.n	c00588c <HAL_UART_Receive+0xbc>
      {
        if (__HAL_UART_GET_FLAG(huart, UART_FLAG_RTOF) == SET)
 c0058a6:	69da      	ldr	r2, [r3, #28]
 c0058a8:	0512      	lsls	r2, r2, #20
 c0058aa:	d5ef      	bpl.n	c00588c <HAL_UART_Receive+0xbc>
        {
          /* Clear Receiver Timeout flag*/
          __HAL_UART_CLEAR_FLAG(huart, UART_CLEAR_RTOF);
 c0058ac:	f44f 6100 	mov.w	r1, #2048	@ 0x800

          /* Disable TXE, RXNE, PE and ERR (Frame error, noise error, overrun error) interrupts for the interrupt process */
          CLEAR_BIT(huart->Instance->CR1, (USART_CR1_RXNEIE_RXFNEIE | USART_CR1_PEIE | USART_CR1_TXEIE_TXFNFIE));
          CLEAR_BIT(huart->Instance->CR3, USART_CR3_EIE);

          huart->gState = HAL_UART_STATE_READY;
 c0058b0:	2220      	movs	r2, #32
          __HAL_UART_CLEAR_FLAG(huart, UART_CLEAR_RTOF);
 c0058b2:	6219      	str	r1, [r3, #32]
          CLEAR_BIT(huart->Instance->CR1, (USART_CR1_RXNEIE_RXFNEIE | USART_CR1_PEIE | USART_CR1_TXEIE_TXFNFIE));
 c0058b4:	6819      	ldr	r1, [r3, #0]
 c0058b6:	f421 71d0 	bic.w	r1, r1, #416	@ 0x1a0
 c0058ba:	6019      	str	r1, [r3, #0]
          CLEAR_BIT(huart->Instance->CR3, USART_CR3_EIE);
 c0058bc:	6899      	ldr	r1, [r3, #8]
 c0058be:	f021 0101 	bic.w	r1, r1, #1
 c0058c2:	6099      	str	r1, [r3, #8]
          huart->gState = HAL_UART_STATE_READY;
 c0058c4:	f8c4 2084 	str.w	r2, [r4, #132]	@ 0x84
          huart->RxState = HAL_UART_STATE_READY;
 c0058c8:	f8c4 2088 	str.w	r2, [r4, #136]	@ 0x88
          huart->ErrorCode = HAL_UART_ERROR_RTO;
 c0058cc:	f8c4 208c 	str.w	r2, [r4, #140]	@ 0x8c

          /* Process Unlocked */
          __HAL_UNLOCK(huart);

          return HAL_TIMEOUT;
 c0058d0:	e023      	b.n	c00591a <HAL_UART_Receive+0x14a>
    UART_MASK_COMPUTATION(huart);
 c0058d2:	6923      	ldr	r3, [r4, #16]
 c0058d4:	bb5b      	cbnz	r3, c00592e <HAL_UART_Receive+0x15e>
 c0058d6:	46c8      	mov	r8, r9
    uhMask = huart->Mask;
 c0058d8:	f240 16ff 	movw	r6, #511	@ 0x1ff
      pdata8bits  = NULL;
 c0058dc:	4699      	mov	r9, r3
 c0058de:	e7a8      	b.n	c005832 <HAL_UART_Receive+0x62>
        *pdata16bits = (uint16_t)(huart->Instance->RDR & uhMask);
 c0058e0:	6a5a      	ldr	r2, [r3, #36]	@ 0x24
 c0058e2:	4032      	ands	r2, r6
 c0058e4:	f828 2b02 	strh.w	r2, [r8], #2
      huart->RxXferCount--;
 c0058e8:	f8b4 205e 	ldrh.w	r2, [r4, #94]	@ 0x5e
 c0058ec:	3a01      	subs	r2, #1
 c0058ee:	b292      	uxth	r2, r2
 c0058f0:	f8a4 205e 	strh.w	r2, [r4, #94]	@ 0x5e
    while (huart->RxXferCount > 0U)
 c0058f4:	f8b4 205e 	ldrh.w	r2, [r4, #94]	@ 0x5e
 c0058f8:	b292      	uxth	r2, r2
 c0058fa:	2a00      	cmp	r2, #0
 c0058fc:	d1a3      	bne.n	c005846 <HAL_UART_Receive+0x76>
 c0058fe:	e7b9      	b.n	c005874 <HAL_UART_Receive+0xa4>
        huart->gState = HAL_UART_STATE_READY;
 c005900:	2120      	movs	r1, #32
        CLEAR_BIT(huart->Instance->CR1, (USART_CR1_RXNEIE_RXFNEIE | USART_CR1_PEIE | USART_CR1_TXEIE_TXFNFIE));
 c005902:	681a      	ldr	r2, [r3, #0]
 c005904:	f422 72d0 	bic.w	r2, r2, #416	@ 0x1a0
 c005908:	601a      	str	r2, [r3, #0]
        CLEAR_BIT(huart->Instance->CR3, USART_CR3_EIE);
 c00590a:	689a      	ldr	r2, [r3, #8]
 c00590c:	f022 0201 	bic.w	r2, r2, #1
 c005910:	609a      	str	r2, [r3, #8]
        huart->gState = HAL_UART_STATE_READY;
 c005912:	f8c4 1084 	str.w	r1, [r4, #132]	@ 0x84
        huart->RxState = HAL_UART_STATE_READY;
 c005916:	f8c4 1088 	str.w	r1, [r4, #136]	@ 0x88
          __HAL_UNLOCK(huart);
 c00591a:	2300      	movs	r3, #0
        return HAL_TIMEOUT;
 c00591c:	2003      	movs	r0, #3
          __HAL_UNLOCK(huart);
 c00591e:	f884 3080 	strb.w	r3, [r4, #128]	@ 0x80
 c005922:	e7ae      	b.n	c005882 <HAL_UART_Receive+0xb2>
    UART_MASK_COMPUTATION(huart);
 c005924:	f1b3 5f80 	cmp.w	r3, #268435456	@ 0x10000000
 c005928:	d003      	beq.n	c005932 <HAL_UART_Receive+0x162>
    uhMask = huart->Mask;
 c00592a:	4646      	mov	r6, r8
 c00592c:	e781      	b.n	c005832 <HAL_UART_Receive+0x62>
 c00592e:	26ff      	movs	r6, #255	@ 0xff
 c005930:	e77f      	b.n	c005832 <HAL_UART_Receive+0x62>
    UART_MASK_COMPUTATION(huart);
 c005932:	6923      	ldr	r3, [r4, #16]
    uhMask = huart->Mask;
 c005934:	2b00      	cmp	r3, #0
 c005936:	bf14      	ite	ne
 c005938:	263f      	movne	r6, #63	@ 0x3f
 c00593a:	267f      	moveq	r6, #127	@ 0x7f
 c00593c:	e779      	b.n	c005832 <HAL_UART_Receive+0x62>
 c00593e:	bf00      	nop

0c005940 <UART_SetConfig>:
{
 c005940:	b570      	push	{r4, r5, r6, lr}
 c005942:	4604      	mov	r4, r0
  tmpreg = (uint32_t)huart->Init.WordLength | huart->Init.Parity | huart->Init.Mode | huart->Init.OverSampling ;
 c005944:	6926      	ldr	r6, [r4, #16]
 c005946:	68a2      	ldr	r2, [r4, #8]
  if (UART_INSTANCE_LOWPOWER(huart))
 c005948:	6803      	ldr	r3, [r0, #0]
  tmpreg = (uint32_t)huart->Init.WordLength | huart->Init.Parity | huart->Init.Mode | huart->Init.OverSampling ;
 c00594a:	4332      	orrs	r2, r6
 c00594c:	6966      	ldr	r6, [r4, #20]
 c00594e:	69c0      	ldr	r0, [r0, #28]
 c005950:	4332      	orrs	r2, r6
  MODIFY_REG(huart->Instance->CR1, USART_CR1_FIELDS, tmpreg);
 c005952:	49a5      	ldr	r1, [pc, #660]	@ (c005be8 <UART_SetConfig+0x2a8>)
 c005954:	681e      	ldr	r6, [r3, #0]
  tmpreg = (uint32_t)huart->Init.WordLength | huart->Init.Parity | huart->Init.Mode | huart->Init.OverSampling ;
 c005956:	4302      	orrs	r2, r0
  MODIFY_REG(huart->Instance->CR1, USART_CR1_FIELDS, tmpreg);
 c005958:	4031      	ands	r1, r6
 c00595a:	430a      	orrs	r2, r1
 c00595c:	601a      	str	r2, [r3, #0]
  MODIFY_REG(huart->Instance->CR2, USART_CR2_STOP, huart->Init.StopBits);
 c00595e:	685a      	ldr	r2, [r3, #4]
 c005960:	68e1      	ldr	r1, [r4, #12]
 c005962:	f422 5240 	bic.w	r2, r2, #12288	@ 0x3000
 c005966:	430a      	orrs	r2, r1
 c005968:	605a      	str	r2, [r3, #4]
  if (!(UART_INSTANCE_LOWPOWER(huart)))
 c00596a:	4da0      	ldr	r5, [pc, #640]	@ (c005bec <UART_SetConfig+0x2ac>)
  MODIFY_REG(huart->Instance->CR3, USART_CR3_FIELDS, tmpreg);
 c00596c:	6899      	ldr	r1, [r3, #8]
  if (!(UART_INSTANCE_LOWPOWER(huart)))
 c00596e:	42ab      	cmp	r3, r5
  MODIFY_REG(huart->Instance->CR3, USART_CR3_FIELDS, tmpreg);
 c005970:	f021 416e 	bic.w	r1, r1, #3992977408	@ 0xee000000
  tmpreg = (uint32_t)huart->Init.HwFlowCtl;
 c005974:	69a2      	ldr	r2, [r4, #24]
  MODIFY_REG(huart->Instance->PRESC, USART_PRESC_PRESCALER, huart->Init.ClockPrescaler);
 c005976:	6a66      	ldr	r6, [r4, #36]	@ 0x24
  MODIFY_REG(huart->Instance->CR3, USART_CR3_FIELDS, tmpreg);
 c005978:	f421 6130 	bic.w	r1, r1, #2816	@ 0xb00
  if (!(UART_INSTANCE_LOWPOWER(huart)))
 c00597c:	f000 80d4 	beq.w	c005b28 <UART_SetConfig+0x1e8>
    tmpreg |= huart->Init.OneBitSampling;
 c005980:	6a25      	ldr	r5, [r4, #32]
 c005982:	432a      	orrs	r2, r5
  MODIFY_REG(huart->Instance->CR3, USART_CR3_FIELDS, tmpreg);
 c005984:	430a      	orrs	r2, r1
 c005986:	609a      	str	r2, [r3, #8]
  MODIFY_REG(huart->Instance->PRESC, USART_PRESC_PRESCALER, huart->Init.ClockPrescaler);
 c005988:	6ada      	ldr	r2, [r3, #44]	@ 0x2c
 c00598a:	f022 020f 	bic.w	r2, r2, #15
 c00598e:	4332      	orrs	r2, r6
 c005990:	62da      	str	r2, [r3, #44]	@ 0x2c
  UART_GETCLOCKSOURCE(huart, clocksource);
 c005992:	4a97      	ldr	r2, [pc, #604]	@ (c005bf0 <UART_SetConfig+0x2b0>)
 c005994:	4293      	cmp	r3, r2
 c005996:	d039      	beq.n	c005a0c <UART_SetConfig+0xcc>
 c005998:	4a96      	ldr	r2, [pc, #600]	@ (c005bf4 <UART_SetConfig+0x2b4>)
 c00599a:	4293      	cmp	r3, r2
 c00599c:	d012      	beq.n	c0059c4 <UART_SetConfig+0x84>
 c00599e:	4a96      	ldr	r2, [pc, #600]	@ (c005bf8 <UART_SetConfig+0x2b8>)
 c0059a0:	4293      	cmp	r3, r2
 c0059a2:	f000 80a9 	beq.w	c005af8 <UART_SetConfig+0x1b8>
 c0059a6:	4a95      	ldr	r2, [pc, #596]	@ (c005bfc <UART_SetConfig+0x2bc>)
 c0059a8:	4293      	cmp	r3, r2
 c0059aa:	d043      	beq.n	c005a34 <UART_SetConfig+0xf4>
 c0059ac:	f1b3 2f50 	cmp.w	r3, #1342197760	@ 0x50005000
 c0059b0:	f000 8091 	beq.w	c005ad6 <UART_SetConfig+0x196>
        ret = HAL_ERROR;
 c0059b4:	2001      	movs	r0, #1
  huart->RxISR = NULL;
 c0059b6:	2300      	movs	r3, #0
  huart->NbRxDataToProcess = 1;
 c0059b8:	f04f 1201 	mov.w	r2, #65537	@ 0x10001
  huart->RxISR = NULL;
 c0059bc:	6723      	str	r3, [r4, #112]	@ 0x70
  huart->NbRxDataToProcess = 1;
 c0059be:	66a2      	str	r2, [r4, #104]	@ 0x68
  huart->TxISR = NULL;
 c0059c0:	6763      	str	r3, [r4, #116]	@ 0x74
}
 c0059c2:	bd70      	pop	{r4, r5, r6, pc}
  UART_GETCLOCKSOURCE(huart, clocksource);
 c0059c4:	4b8e      	ldr	r3, [pc, #568]	@ (c005c00 <UART_SetConfig+0x2c0>)
 c0059c6:	f8d3 3088 	ldr.w	r3, [r3, #136]	@ 0x88
 c0059ca:	f003 030c 	and.w	r3, r3, #12
 c0059ce:	2b0c      	cmp	r3, #12
 c0059d0:	d8f0      	bhi.n	c0059b4 <UART_SetConfig+0x74>
 c0059d2:	a201      	add	r2, pc, #4	@ (adr r2, c0059d8 <UART_SetConfig+0x98>)
 c0059d4:	f852 f023 	ldr.w	pc, [r2, r3, lsl #2]
 c0059d8:	0c005aed 	.word	0x0c005aed
 c0059dc:	0c0059b5 	.word	0x0c0059b5
 c0059e0:	0c0059b5 	.word	0x0c0059b5
 c0059e4:	0c0059b5 	.word	0x0c0059b5
 c0059e8:	0c005a4d 	.word	0x0c005a4d
 c0059ec:	0c0059b5 	.word	0x0c0059b5
 c0059f0:	0c0059b5 	.word	0x0c0059b5
 c0059f4:	0c0059b5 	.word	0x0c0059b5
 c0059f8:	0c005a97 	.word	0x0c005a97
 c0059fc:	0c0059b5 	.word	0x0c0059b5
 c005a00:	0c0059b5 	.word	0x0c0059b5
 c005a04:	0c0059b5 	.word	0x0c0059b5
 c005a08:	0c005a65 	.word	0x0c005a65
 c005a0c:	4b7c      	ldr	r3, [pc, #496]	@ (c005c00 <UART_SetConfig+0x2c0>)
 c005a0e:	f8d3 3088 	ldr.w	r3, [r3, #136]	@ 0x88
 c005a12:	f003 0303 	and.w	r3, r3, #3
 c005a16:	2b02      	cmp	r3, #2
 c005a18:	d03d      	beq.n	c005a96 <UART_SetConfig+0x156>
 c005a1a:	2b03      	cmp	r3, #3
 c005a1c:	d022      	beq.n	c005a64 <UART_SetConfig+0x124>
 c005a1e:	2b01      	cmp	r3, #1
 c005a20:	d014      	beq.n	c005a4c <UART_SetConfig+0x10c>
  else if (huart->Init.OverSampling == UART_OVERSAMPLING_8)
 c005a22:	f5b0 4f00 	cmp.w	r0, #32768	@ 0x8000
 c005a26:	f000 80d6 	beq.w	c005bd6 <UART_SetConfig+0x296>
        pclk = HAL_RCC_GetPCLK2Freq();
 c005a2a:	f7ff f8a3 	bl	c004b74 <HAL_RCC_GetPCLK2Freq>
    if (pclk != 0U)
 c005a2e:	b9a8      	cbnz	r0, c005a5c <UART_SetConfig+0x11c>
        ret = HAL_ERROR;
 c005a30:	2000      	movs	r0, #0
 c005a32:	e7c0      	b.n	c0059b6 <UART_SetConfig+0x76>
  UART_GETCLOCKSOURCE(huart, clocksource);
 c005a34:	4b72      	ldr	r3, [pc, #456]	@ (c005c00 <UART_SetConfig+0x2c0>)
 c005a36:	f8d3 3088 	ldr.w	r3, [r3, #136]	@ 0x88
 c005a3a:	f003 03c0 	and.w	r3, r3, #192	@ 0xc0
 c005a3e:	2b80      	cmp	r3, #128	@ 0x80
 c005a40:	d029      	beq.n	c005a96 <UART_SetConfig+0x156>
 c005a42:	d866      	bhi.n	c005b12 <UART_SetConfig+0x1d2>
 c005a44:	2b00      	cmp	r3, #0
 c005a46:	d051      	beq.n	c005aec <UART_SetConfig+0x1ac>
 c005a48:	2b40      	cmp	r3, #64	@ 0x40
 c005a4a:	d1b3      	bne.n	c0059b4 <UART_SetConfig+0x74>
  else if (huart->Init.OverSampling == UART_OVERSAMPLING_8)
 c005a4c:	f5b0 4f00 	cmp.w	r0, #32768	@ 0x8000
 c005a50:	f000 80c6 	beq.w	c005be0 <UART_SetConfig+0x2a0>
        pclk = HAL_RCC_GetSysClockFreq();
 c005a54:	f7fe fadc 	bl	c004010 <HAL_RCC_GetSysClockFreq>
    if (pclk != 0U)
 c005a58:	2800      	cmp	r0, #0
 c005a5a:	d0e9      	beq.n	c005a30 <UART_SetConfig+0xf0>
      usartdiv = (uint16_t)(UART_DIV_SAMPLING16(pclk, huart->Init.BaudRate, huart->Init.ClockPrescaler));
 c005a5c:	6a66      	ldr	r6, [r4, #36]	@ 0x24
 c005a5e:	e006      	b.n	c005a6e <UART_SetConfig+0x12e>
  UART_GETCLOCKSOURCE(huart, clocksource);
 c005a60:	2b30      	cmp	r3, #48	@ 0x30
 c005a62:	d1a7      	bne.n	c0059b4 <UART_SetConfig+0x74>
  else if (huart->Init.OverSampling == UART_OVERSAMPLING_8)
 c005a64:	f5b0 4f00 	cmp.w	r0, #32768	@ 0x8000
 c005a68:	d019      	beq.n	c005a9e <UART_SetConfig+0x15e>
        pclk = (uint32_t) LSE_VALUE;
 c005a6a:	f44f 4000 	mov.w	r0, #32768	@ 0x8000
      usartdiv = (uint16_t)(UART_DIV_SAMPLING16(pclk, huart->Init.BaudRate, huart->Init.ClockPrescaler));
 c005a6e:	4a65      	ldr	r2, [pc, #404]	@ (c005c04 <UART_SetConfig+0x2c4>)
 c005a70:	6863      	ldr	r3, [r4, #4]
 c005a72:	f832 1016 	ldrh.w	r1, [r2, r6, lsl #1]
      if ((usartdiv >= UART_BRR_MIN) && (usartdiv <= UART_BRR_MAX))
 c005a76:	f64f 72ef 	movw	r2, #65519	@ 0xffef
      usartdiv = (uint16_t)(UART_DIV_SAMPLING16(pclk, huart->Init.BaudRate, huart->Init.ClockPrescaler));
 c005a7a:	fbb0 f0f1 	udiv	r0, r0, r1
 c005a7e:	eb00 0053 	add.w	r0, r0, r3, lsr #1
 c005a82:	fbb0 f0f3 	udiv	r0, r0, r3
 c005a86:	b280      	uxth	r0, r0
      if ((usartdiv >= UART_BRR_MIN) && (usartdiv <= UART_BRR_MAX))
 c005a88:	f1a0 0310 	sub.w	r3, r0, #16
 c005a8c:	4293      	cmp	r3, r2
 c005a8e:	d891      	bhi.n	c0059b4 <UART_SetConfig+0x74>
          huart->Instance->BRR = usartdiv;
 c005a90:	6823      	ldr	r3, [r4, #0]
 c005a92:	60d8      	str	r0, [r3, #12]
 c005a94:	e7cc      	b.n	c005a30 <UART_SetConfig+0xf0>
  else if (huart->Init.OverSampling == UART_OVERSAMPLING_8)
 c005a96:	f5b0 4f00 	cmp.w	r0, #32768	@ 0x8000
        pclk = (uint32_t) HSI_VALUE;
 c005a9a:	485b      	ldr	r0, [pc, #364]	@ (c005c08 <UART_SetConfig+0x2c8>)
  else if (huart->Init.OverSampling == UART_OVERSAMPLING_8)
 c005a9c:	d1e7      	bne.n	c005a6e <UART_SetConfig+0x12e>
      usartdiv = (uint16_t)(UART_DIV_SAMPLING8(pclk, huart->Init.BaudRate, huart->Init.ClockPrescaler));
 c005a9e:	4b59      	ldr	r3, [pc, #356]	@ (c005c04 <UART_SetConfig+0x2c4>)
 c005aa0:	6862      	ldr	r2, [r4, #4]
 c005aa2:	f833 1016 	ldrh.w	r1, [r3, r6, lsl #1]
 c005aa6:	0853      	lsrs	r3, r2, #1
 c005aa8:	fbb0 f0f1 	udiv	r0, r0, r1
 c005aac:	eb03 0340 	add.w	r3, r3, r0, lsl #1
 c005ab0:	fbb3 f3f2 	udiv	r3, r3, r2
      if ((usartdiv >= UART_BRR_MIN) && (usartdiv <= UART_BRR_MAX))
 c005ab4:	f64f 71ef 	movw	r1, #65519	@ 0xffef
 c005ab8:	b29a      	uxth	r2, r3
 c005aba:	f1a2 0010 	sub.w	r0, r2, #16
 c005abe:	4288      	cmp	r0, r1
 c005ac0:	f63f af78 	bhi.w	c0059b4 <UART_SetConfig+0x74>
        brrtemp = (uint16_t)(usartdiv & 0xFFF0U);
 c005ac4:	f023 030f 	bic.w	r3, r3, #15
        huart->Instance->BRR = brrtemp;
 c005ac8:	6821      	ldr	r1, [r4, #0]
        brrtemp = (uint16_t)(usartdiv & 0xFFF0U);
 c005aca:	b29b      	uxth	r3, r3
        brrtemp |= (uint16_t)((usartdiv & (uint16_t)0x000FU) >> 1U);
 c005acc:	f3c2 0242 	ubfx	r2, r2, #1, #3
        huart->Instance->BRR = brrtemp;
 c005ad0:	4313      	orrs	r3, r2
 c005ad2:	60cb      	str	r3, [r1, #12]
 c005ad4:	e7ac      	b.n	c005a30 <UART_SetConfig+0xf0>
  UART_GETCLOCKSOURCE(huart, clocksource);
 c005ad6:	f503 33e0 	add.w	r3, r3, #114688	@ 0x1c000
 c005ada:	f8d3 3088 	ldr.w	r3, [r3, #136]	@ 0x88
 c005ade:	f403 7340 	and.w	r3, r3, #768	@ 0x300
 c005ae2:	f5b3 7f00 	cmp.w	r3, #512	@ 0x200
 c005ae6:	d0d6      	beq.n	c005a96 <UART_SetConfig+0x156>
 c005ae8:	d81a      	bhi.n	c005b20 <UART_SetConfig+0x1e0>
 c005aea:	b9ab      	cbnz	r3, c005b18 <UART_SetConfig+0x1d8>
  else if (huart->Init.OverSampling == UART_OVERSAMPLING_8)
 c005aec:	f5b0 4f00 	cmp.w	r0, #32768	@ 0x8000
 c005af0:	d067      	beq.n	c005bc2 <UART_SetConfig+0x282>
        pclk = HAL_RCC_GetPCLK1Freq();
 c005af2:	f7fe ffd3 	bl	c004a9c <HAL_RCC_GetPCLK1Freq>
        break;
 c005af6:	e79a      	b.n	c005a2e <UART_SetConfig+0xee>
  UART_GETCLOCKSOURCE(huart, clocksource);
 c005af8:	4b41      	ldr	r3, [pc, #260]	@ (c005c00 <UART_SetConfig+0x2c0>)
 c005afa:	f8d3 3088 	ldr.w	r3, [r3, #136]	@ 0x88
 c005afe:	f003 0330 	and.w	r3, r3, #48	@ 0x30
 c005b02:	2b20      	cmp	r3, #32
 c005b04:	d0c7      	beq.n	c005a96 <UART_SetConfig+0x156>
 c005b06:	d8ab      	bhi.n	c005a60 <UART_SetConfig+0x120>
 c005b08:	2b00      	cmp	r3, #0
 c005b0a:	d0ef      	beq.n	c005aec <UART_SetConfig+0x1ac>
 c005b0c:	2b10      	cmp	r3, #16
 c005b0e:	d09d      	beq.n	c005a4c <UART_SetConfig+0x10c>
 c005b10:	e750      	b.n	c0059b4 <UART_SetConfig+0x74>
 c005b12:	2bc0      	cmp	r3, #192	@ 0xc0
 c005b14:	d0a6      	beq.n	c005a64 <UART_SetConfig+0x124>
 c005b16:	e74d      	b.n	c0059b4 <UART_SetConfig+0x74>
 c005b18:	f5b3 7f80 	cmp.w	r3, #256	@ 0x100
 c005b1c:	d096      	beq.n	c005a4c <UART_SetConfig+0x10c>
 c005b1e:	e749      	b.n	c0059b4 <UART_SetConfig+0x74>
 c005b20:	f5b3 7f40 	cmp.w	r3, #768	@ 0x300
 c005b24:	d09e      	beq.n	c005a64 <UART_SetConfig+0x124>
 c005b26:	e745      	b.n	c0059b4 <UART_SetConfig+0x74>
  MODIFY_REG(huart->Instance->CR3, USART_CR3_FIELDS, tmpreg);
 c005b28:	4311      	orrs	r1, r2
 c005b2a:	6099      	str	r1, [r3, #8]
  MODIFY_REG(huart->Instance->PRESC, USART_PRESC_PRESCALER, huart->Init.ClockPrescaler);
 c005b2c:	6ada      	ldr	r2, [r3, #44]	@ 0x2c
  UART_GETCLOCKSOURCE(huart, clocksource);
 c005b2e:	4934      	ldr	r1, [pc, #208]	@ (c005c00 <UART_SetConfig+0x2c0>)
  MODIFY_REG(huart->Instance->PRESC, USART_PRESC_PRESCALER, huart->Init.ClockPrescaler);
 c005b30:	f022 020f 	bic.w	r2, r2, #15
 c005b34:	4332      	orrs	r2, r6
 c005b36:	62da      	str	r2, [r3, #44]	@ 0x2c
  UART_GETCLOCKSOURCE(huart, clocksource);
 c005b38:	f8d1 3088 	ldr.w	r3, [r1, #136]	@ 0x88
 c005b3c:	f403 6340 	and.w	r3, r3, #3072	@ 0xc00
 c005b40:	f5b3 6f00 	cmp.w	r3, #2048	@ 0x800
 c005b44:	d04a      	beq.n	c005bdc <UART_SetConfig+0x29c>
 c005b46:	d835      	bhi.n	c005bb4 <UART_SetConfig+0x274>
 c005b48:	2b00      	cmp	r3, #0
 c005b4a:	d041      	beq.n	c005bd0 <UART_SetConfig+0x290>
 c005b4c:	f5b3 6f80 	cmp.w	r3, #1024	@ 0x400
 c005b50:	f47f af30 	bne.w	c0059b4 <UART_SetConfig+0x74>
        pclk = HAL_RCC_GetSysClockFreq();
 c005b54:	f7fe fa5c 	bl	c004010 <HAL_RCC_GetSysClockFreq>
    if (pclk != 0U)
 c005b58:	2800      	cmp	r0, #0
 c005b5a:	f43f af69 	beq.w	c005a30 <UART_SetConfig+0xf0>
      lpuart_ker_ck_pres = (pclk / UARTPrescTable[huart->Init.ClockPrescaler]);
 c005b5e:	6a66      	ldr	r6, [r4, #36]	@ 0x24
 c005b60:	4b28      	ldr	r3, [pc, #160]	@ (c005c04 <UART_SetConfig+0x2c4>)
      if ((lpuart_ker_ck_pres < (3U * huart->Init.BaudRate)) ||
 c005b62:	6865      	ldr	r5, [r4, #4]
      lpuart_ker_ck_pres = (pclk / UARTPrescTable[huart->Init.ClockPrescaler]);
 c005b64:	f833 2016 	ldrh.w	r2, [r3, r6, lsl #1]
      if ((lpuart_ker_ck_pres < (3U * huart->Init.BaudRate)) ||
 c005b68:	eb05 0145 	add.w	r1, r5, r5, lsl #1
      lpuart_ker_ck_pres = (pclk / UARTPrescTable[huart->Init.ClockPrescaler]);
 c005b6c:	fbb0 f3f2 	udiv	r3, r0, r2
      if ((lpuart_ker_ck_pres < (3U * huart->Init.BaudRate)) ||
 c005b70:	4299      	cmp	r1, r3
 c005b72:	f63f af1f 	bhi.w	c0059b4 <UART_SetConfig+0x74>
 c005b76:	ebb3 3f05 	cmp.w	r3, r5, lsl #12
 c005b7a:	f63f af1b 	bhi.w	c0059b4 <UART_SetConfig+0x74>
        usartdiv = (uint32_t)(UART_DIV_LPUART(pclk, (uint64_t)huart->Init.BaudRate, huart->Init.ClockPrescaler));
 c005b7e:	2300      	movs	r3, #0
 c005b80:	4619      	mov	r1, r3
 c005b82:	f7fa fb87 	bl	c000294 <__aeabi_uldivmod>
 c005b86:	4606      	mov	r6, r0
 c005b88:	462a      	mov	r2, r5
 c005b8a:	ea4f 0c55 	mov.w	ip, r5, lsr #1
 c005b8e:	0209      	lsls	r1, r1, #8
 c005b90:	0235      	lsls	r5, r6, #8
 c005b92:	eb15 000c 	adds.w	r0, r5, ip
 c005b96:	ea41 6116 	orr.w	r1, r1, r6, lsr #24
 c005b9a:	f04f 0300 	mov.w	r3, #0
 c005b9e:	f141 0100 	adc.w	r1, r1, #0
 c005ba2:	f7fa fb77 	bl	c000294 <__aeabi_uldivmod>
        if ((usartdiv >= LPUART_BRR_MIN) && (usartdiv <= LPUART_BRR_MAX))
 c005ba6:	4b19      	ldr	r3, [pc, #100]	@ (c005c0c <UART_SetConfig+0x2cc>)
 c005ba8:	f5a0 7240 	sub.w	r2, r0, #768	@ 0x300
 c005bac:	429a      	cmp	r2, r3
 c005bae:	f63f af01 	bhi.w	c0059b4 <UART_SetConfig+0x74>
 c005bb2:	e76d      	b.n	c005a90 <UART_SetConfig+0x150>
  UART_GETCLOCKSOURCE(huart, clocksource);
 c005bb4:	f5b3 6f40 	cmp.w	r3, #3072	@ 0xc00
 c005bb8:	f47f aefc 	bne.w	c0059b4 <UART_SetConfig+0x74>
        pclk = (uint32_t) LSE_VALUE;
 c005bbc:	f44f 4000 	mov.w	r0, #32768	@ 0x8000
 c005bc0:	e7ce      	b.n	c005b60 <UART_SetConfig+0x220>
        pclk = HAL_RCC_GetPCLK1Freq();
 c005bc2:	f7fe ff6b 	bl	c004a9c <HAL_RCC_GetPCLK1Freq>
    if (pclk != 0U)
 c005bc6:	2800      	cmp	r0, #0
 c005bc8:	f43f af32 	beq.w	c005a30 <UART_SetConfig+0xf0>
      usartdiv = (uint16_t)(UART_DIV_SAMPLING8(pclk, huart->Init.BaudRate, huart->Init.ClockPrescaler));
 c005bcc:	6a66      	ldr	r6, [r4, #36]	@ 0x24
 c005bce:	e766      	b.n	c005a9e <UART_SetConfig+0x15e>
        pclk = HAL_RCC_GetPCLK1Freq();
 c005bd0:	f7fe ff64 	bl	c004a9c <HAL_RCC_GetPCLK1Freq>
        break;
 c005bd4:	e7c0      	b.n	c005b58 <UART_SetConfig+0x218>
        pclk = HAL_RCC_GetPCLK2Freq();
 c005bd6:	f7fe ffcd 	bl	c004b74 <HAL_RCC_GetPCLK2Freq>
        break;
 c005bda:	e7f4      	b.n	c005bc6 <UART_SetConfig+0x286>
        pclk = (uint32_t) HSI_VALUE;
 c005bdc:	480a      	ldr	r0, [pc, #40]	@ (c005c08 <UART_SetConfig+0x2c8>)
 c005bde:	e7bf      	b.n	c005b60 <UART_SetConfig+0x220>
        pclk = HAL_RCC_GetSysClockFreq();
 c005be0:	f7fe fa16 	bl	c004010 <HAL_RCC_GetSysClockFreq>
        break;
 c005be4:	e7ef      	b.n	c005bc6 <UART_SetConfig+0x286>
 c005be6:	bf00      	nop
 c005be8:	cfff69f3 	.word	0xcfff69f3
 c005bec:	50008000 	.word	0x50008000
 c005bf0:	50013800 	.word	0x50013800
 c005bf4:	50004400 	.word	0x50004400
 c005bf8:	50004800 	.word	0x50004800
 c005bfc:	50004c00 	.word	0x50004c00
 c005c00:	50021000 	.word	0x50021000
 c005c04:	0c0064a0 	.word	0x0c0064a0
 c005c08:	00f42400 	.word	0x00f42400
 c005c0c:	000ffcff 	.word	0x000ffcff

0c005c10 <UART_AdvFeatureConfig>:
  if (HAL_IS_BIT_SET(huart->AdvancedInit.AdvFeatureInit, UART_ADVFEATURE_TXINVERT_INIT))
 c005c10:	6a83      	ldr	r3, [r0, #40]	@ 0x28
{
 c005c12:	b410      	push	{r4}
  if (HAL_IS_BIT_SET(huart->AdvancedInit.AdvFeatureInit, UART_ADVFEATURE_TXINVERT_INIT))
 c005c14:	07da      	lsls	r2, r3, #31
 c005c16:	d506      	bpl.n	c005c26 <UART_AdvFeatureConfig+0x16>
    MODIFY_REG(huart->Instance->CR2, USART_CR2_TXINV, huart->AdvancedInit.TxPinLevelInvert);
 c005c18:	6801      	ldr	r1, [r0, #0]
 c005c1a:	6ac4      	ldr	r4, [r0, #44]	@ 0x2c
 c005c1c:	684a      	ldr	r2, [r1, #4]
 c005c1e:	f422 3200 	bic.w	r2, r2, #131072	@ 0x20000
 c005c22:	4322      	orrs	r2, r4
 c005c24:	604a      	str	r2, [r1, #4]
  if (HAL_IS_BIT_SET(huart->AdvancedInit.AdvFeatureInit, UART_ADVFEATURE_RXINVERT_INIT))
 c005c26:	079c      	lsls	r4, r3, #30
 c005c28:	d506      	bpl.n	c005c38 <UART_AdvFeatureConfig+0x28>
    MODIFY_REG(huart->Instance->CR2, USART_CR2_RXINV, huart->AdvancedInit.RxPinLevelInvert);
 c005c2a:	6801      	ldr	r1, [r0, #0]
 c005c2c:	6b04      	ldr	r4, [r0, #48]	@ 0x30
 c005c2e:	684a      	ldr	r2, [r1, #4]
 c005c30:	f422 3280 	bic.w	r2, r2, #65536	@ 0x10000
 c005c34:	4322      	orrs	r2, r4
 c005c36:	604a      	str	r2, [r1, #4]
  if (HAL_IS_BIT_SET(huart->AdvancedInit.AdvFeatureInit, UART_ADVFEATURE_DATAINVERT_INIT))
 c005c38:	0759      	lsls	r1, r3, #29
 c005c3a:	d506      	bpl.n	c005c4a <UART_AdvFeatureConfig+0x3a>
    MODIFY_REG(huart->Instance->CR2, USART_CR2_DATAINV, huart->AdvancedInit.DataInvert);
 c005c3c:	6801      	ldr	r1, [r0, #0]
 c005c3e:	6b44      	ldr	r4, [r0, #52]	@ 0x34
 c005c40:	684a      	ldr	r2, [r1, #4]
 c005c42:	f422 2280 	bic.w	r2, r2, #262144	@ 0x40000
 c005c46:	4322      	orrs	r2, r4
 c005c48:	604a      	str	r2, [r1, #4]
  if (HAL_IS_BIT_SET(huart->AdvancedInit.AdvFeatureInit, UART_ADVFEATURE_SWAP_INIT))
 c005c4a:	071a      	lsls	r2, r3, #28
 c005c4c:	d506      	bpl.n	c005c5c <UART_AdvFeatureConfig+0x4c>
    MODIFY_REG(huart->Instance->CR2, USART_CR2_SWAP, huart->AdvancedInit.Swap);
 c005c4e:	6801      	ldr	r1, [r0, #0]
 c005c50:	6b84      	ldr	r4, [r0, #56]	@ 0x38
 c005c52:	684a      	ldr	r2, [r1, #4]
 c005c54:	f422 4200 	bic.w	r2, r2, #32768	@ 0x8000
 c005c58:	4322      	orrs	r2, r4
 c005c5a:	604a      	str	r2, [r1, #4]
  if (HAL_IS_BIT_SET(huart->AdvancedInit.AdvFeatureInit, UART_ADVFEATURE_RXOVERRUNDISABLE_INIT))
 c005c5c:	06dc      	lsls	r4, r3, #27
 c005c5e:	d506      	bpl.n	c005c6e <UART_AdvFeatureConfig+0x5e>
    MODIFY_REG(huart->Instance->CR3, USART_CR3_OVRDIS, huart->AdvancedInit.OverrunDisable);
 c005c60:	6801      	ldr	r1, [r0, #0]
 c005c62:	6bc4      	ldr	r4, [r0, #60]	@ 0x3c
 c005c64:	688a      	ldr	r2, [r1, #8]
 c005c66:	f422 5280 	bic.w	r2, r2, #4096	@ 0x1000
 c005c6a:	4322      	orrs	r2, r4
 c005c6c:	608a      	str	r2, [r1, #8]
  if (HAL_IS_BIT_SET(huart->AdvancedInit.AdvFeatureInit, UART_ADVFEATURE_DMADISABLEONERROR_INIT))
 c005c6e:	0699      	lsls	r1, r3, #26
 c005c70:	d506      	bpl.n	c005c80 <UART_AdvFeatureConfig+0x70>
    MODIFY_REG(huart->Instance->CR3, USART_CR3_DDRE, huart->AdvancedInit.DMADisableonRxError);
 c005c72:	6801      	ldr	r1, [r0, #0]
 c005c74:	6c04      	ldr	r4, [r0, #64]	@ 0x40
 c005c76:	688a      	ldr	r2, [r1, #8]
 c005c78:	f422 5200 	bic.w	r2, r2, #8192	@ 0x2000
 c005c7c:	4322      	orrs	r2, r4
 c005c7e:	608a      	str	r2, [r1, #8]
  if (HAL_IS_BIT_SET(huart->AdvancedInit.AdvFeatureInit, UART_ADVFEATURE_AUTOBAUDRATE_INIT))
 c005c80:	065a      	lsls	r2, r3, #25
 c005c82:	d50a      	bpl.n	c005c9a <UART_AdvFeatureConfig+0x8a>
    MODIFY_REG(huart->Instance->CR2, USART_CR2_ABREN, huart->AdvancedInit.AutoBaudRateEnable);
 c005c84:	6801      	ldr	r1, [r0, #0]
 c005c86:	6c44      	ldr	r4, [r0, #68]	@ 0x44
 c005c88:	684a      	ldr	r2, [r1, #4]
    if (huart->AdvancedInit.AutoBaudRateEnable == UART_ADVFEATURE_AUTOBAUDRATE_ENABLE)
 c005c8a:	f5b4 1f80 	cmp.w	r4, #1048576	@ 0x100000
    MODIFY_REG(huart->Instance->CR2, USART_CR2_ABREN, huart->AdvancedInit.AutoBaudRateEnable);
 c005c8e:	f422 1280 	bic.w	r2, r2, #1048576	@ 0x100000
 c005c92:	ea42 0204 	orr.w	r2, r2, r4
 c005c96:	604a      	str	r2, [r1, #4]
    if (huart->AdvancedInit.AutoBaudRateEnable == UART_ADVFEATURE_AUTOBAUDRATE_ENABLE)
 c005c98:	d00b      	beq.n	c005cb2 <UART_AdvFeatureConfig+0xa2>
  if (HAL_IS_BIT_SET(huart->AdvancedInit.AdvFeatureInit, UART_ADVFEATURE_MSBFIRST_INIT))
 c005c9a:	061b      	lsls	r3, r3, #24
 c005c9c:	d506      	bpl.n	c005cac <UART_AdvFeatureConfig+0x9c>
    MODIFY_REG(huart->Instance->CR2, USART_CR2_MSBFIRST, huart->AdvancedInit.MSBFirst);
 c005c9e:	6802      	ldr	r2, [r0, #0]
 c005ca0:	6cc1      	ldr	r1, [r0, #76]	@ 0x4c
 c005ca2:	6853      	ldr	r3, [r2, #4]
 c005ca4:	f423 2300 	bic.w	r3, r3, #524288	@ 0x80000
 c005ca8:	430b      	orrs	r3, r1
 c005caa:	6053      	str	r3, [r2, #4]
}
 c005cac:	f85d 4b04 	ldr.w	r4, [sp], #4
 c005cb0:	4770      	bx	lr
      MODIFY_REG(huart->Instance->CR2, USART_CR2_ABRMODE, huart->AdvancedInit.AutoBaudRateMode);
 c005cb2:	684a      	ldr	r2, [r1, #4]
 c005cb4:	6c84      	ldr	r4, [r0, #72]	@ 0x48
 c005cb6:	f422 02c0 	bic.w	r2, r2, #6291456	@ 0x600000
 c005cba:	4322      	orrs	r2, r4
 c005cbc:	604a      	str	r2, [r1, #4]
 c005cbe:	e7ec      	b.n	c005c9a <UART_AdvFeatureConfig+0x8a>

0c005cc0 <UART_CheckIdleState>:
{
 c005cc0:	b538      	push	{r3, r4, r5, lr}
  huart->ErrorCode = HAL_UART_ERROR_NONE;
 c005cc2:	2300      	movs	r3, #0
{
 c005cc4:	4604      	mov	r4, r0
  huart->ErrorCode = HAL_UART_ERROR_NONE;
 c005cc6:	f8c0 308c 	str.w	r3, [r0, #140]	@ 0x8c
  tickstart = HAL_GetTick();
 c005cca:	f7fd fdf9 	bl	c0038c0 <HAL_GetTick>
  if ((huart->Instance->CR1 & USART_CR1_TE) == USART_CR1_TE)
 c005cce:	6823      	ldr	r3, [r4, #0]
  tickstart = HAL_GetTick();
 c005cd0:	4605      	mov	r5, r0
  if ((huart->Instance->CR1 & USART_CR1_TE) == USART_CR1_TE)
 c005cd2:	681a      	ldr	r2, [r3, #0]
 c005cd4:	0711      	lsls	r1, r2, #28
 c005cd6:	d40e      	bmi.n	c005cf6 <UART_CheckIdleState+0x36>
  if ((huart->Instance->CR1 & USART_CR1_RE) == USART_CR1_RE)
 c005cd8:	681a      	ldr	r2, [r3, #0]
 c005cda:	0752      	lsls	r2, r2, #29
 c005cdc:	d42f      	bmi.n	c005d3e <UART_CheckIdleState+0x7e>
  huart->ReceptionType = HAL_UART_RECEPTION_STANDARD;
 c005cde:	2300      	movs	r3, #0
  huart->gState = HAL_UART_STATE_READY;
 c005ce0:	2220      	movs	r2, #32
  return HAL_OK;
 c005ce2:	4618      	mov	r0, r3
  huart->gState = HAL_UART_STATE_READY;
 c005ce4:	f8c4 2084 	str.w	r2, [r4, #132]	@ 0x84
  huart->RxState = HAL_UART_STATE_READY;
 c005ce8:	f8c4 2088 	str.w	r2, [r4, #136]	@ 0x88
  huart->ReceptionType = HAL_UART_RECEPTION_STANDARD;
 c005cec:	66e3      	str	r3, [r4, #108]	@ 0x6c
          __HAL_UNLOCK(huart);
 c005cee:	2300      	movs	r3, #0
 c005cf0:	f884 3080 	strb.w	r3, [r4, #128]	@ 0x80
}
 c005cf4:	bd38      	pop	{r3, r4, r5, pc}
  while ((__HAL_UART_GET_FLAG(huart, Flag) ? SET : RESET) == Status)
 c005cf6:	69da      	ldr	r2, [r3, #28]
 c005cf8:	0292      	lsls	r2, r2, #10
 c005cfa:	d4ed      	bmi.n	c005cd8 <UART_CheckIdleState+0x18>
      if (((HAL_GetTick() - Tickstart) > Timeout) || (Timeout == 0U))
 c005cfc:	f7fd fde0 	bl	c0038c0 <HAL_GetTick>
 c005d00:	1b43      	subs	r3, r0, r5
 c005d02:	f1b3 7f00 	cmp.w	r3, #33554432	@ 0x2000000
 c005d06:	d22b      	bcs.n	c005d60 <UART_CheckIdleState+0xa0>
      if (READ_BIT(huart->Instance->CR1, USART_CR1_RE) != 0U)
 c005d08:	6823      	ldr	r3, [r4, #0]
 c005d0a:	681a      	ldr	r2, [r3, #0]
 c005d0c:	0750      	lsls	r0, r2, #29
 c005d0e:	d5f2      	bpl.n	c005cf6 <UART_CheckIdleState+0x36>
        if (__HAL_UART_GET_FLAG(huart, UART_FLAG_RTOF) == SET)
 c005d10:	69da      	ldr	r2, [r3, #28]
 c005d12:	0511      	lsls	r1, r2, #20
 c005d14:	d5ef      	bpl.n	c005cf6 <UART_CheckIdleState+0x36>
          __HAL_UART_CLEAR_FLAG(huart, UART_CLEAR_RTOF);
 c005d16:	f44f 6100 	mov.w	r1, #2048	@ 0x800
          huart->gState = HAL_UART_STATE_READY;
 c005d1a:	2220      	movs	r2, #32
          __HAL_UART_CLEAR_FLAG(huart, UART_CLEAR_RTOF);
 c005d1c:	6219      	str	r1, [r3, #32]
          CLEAR_BIT(huart->Instance->CR1, (USART_CR1_RXNEIE_RXFNEIE | USART_CR1_PEIE | USART_CR1_TXEIE_TXFNFIE));
 c005d1e:	6819      	ldr	r1, [r3, #0]
 c005d20:	f421 71d0 	bic.w	r1, r1, #416	@ 0x1a0
 c005d24:	6019      	str	r1, [r3, #0]
          CLEAR_BIT(huart->Instance->CR3, USART_CR3_EIE);
 c005d26:	6899      	ldr	r1, [r3, #8]
 c005d28:	f021 0101 	bic.w	r1, r1, #1
 c005d2c:	6099      	str	r1, [r3, #8]
          huart->gState = HAL_UART_STATE_READY;
 c005d2e:	f8c4 2084 	str.w	r2, [r4, #132]	@ 0x84
          huart->RxState = HAL_UART_STATE_READY;
 c005d32:	f8c4 2088 	str.w	r2, [r4, #136]	@ 0x88
          huart->ErrorCode = HAL_UART_ERROR_RTO;
 c005d36:	f8c4 208c 	str.w	r2, [r4, #140]	@ 0x8c
      return HAL_TIMEOUT;
 c005d3a:	2003      	movs	r0, #3
 c005d3c:	e7d7      	b.n	c005cee <UART_CheckIdleState+0x2e>
  while ((__HAL_UART_GET_FLAG(huart, Flag) ? SET : RESET) == Status)
 c005d3e:	69db      	ldr	r3, [r3, #28]
 c005d40:	0258      	lsls	r0, r3, #9
 c005d42:	d4cc      	bmi.n	c005cde <UART_CheckIdleState+0x1e>
      if (((HAL_GetTick() - Tickstart) > Timeout) || (Timeout == 0U))
 c005d44:	f7fd fdbc 	bl	c0038c0 <HAL_GetTick>
 c005d48:	1b43      	subs	r3, r0, r5
 c005d4a:	f1b3 7f00 	cmp.w	r3, #33554432	@ 0x2000000
 c005d4e:	d207      	bcs.n	c005d60 <UART_CheckIdleState+0xa0>
      if (READ_BIT(huart->Instance->CR1, USART_CR1_RE) != 0U)
 c005d50:	6823      	ldr	r3, [r4, #0]
 c005d52:	681a      	ldr	r2, [r3, #0]
 c005d54:	0751      	lsls	r1, r2, #29
 c005d56:	d5f2      	bpl.n	c005d3e <UART_CheckIdleState+0x7e>
        if (__HAL_UART_GET_FLAG(huart, UART_FLAG_RTOF) == SET)
 c005d58:	69da      	ldr	r2, [r3, #28]
 c005d5a:	0512      	lsls	r2, r2, #20
 c005d5c:	d5ef      	bpl.n	c005d3e <UART_CheckIdleState+0x7e>
 c005d5e:	e7da      	b.n	c005d16 <UART_CheckIdleState+0x56>
        huart->gState = HAL_UART_STATE_READY;
 c005d60:	2120      	movs	r1, #32
        CLEAR_BIT(huart->Instance->CR1, (USART_CR1_RXNEIE_RXFNEIE | USART_CR1_PEIE | USART_CR1_TXEIE_TXFNFIE));
 c005d62:	6823      	ldr	r3, [r4, #0]
 c005d64:	681a      	ldr	r2, [r3, #0]
 c005d66:	f422 72d0 	bic.w	r2, r2, #416	@ 0x1a0
 c005d6a:	601a      	str	r2, [r3, #0]
        CLEAR_BIT(huart->Instance->CR3, USART_CR3_EIE);
 c005d6c:	689a      	ldr	r2, [r3, #8]
 c005d6e:	f022 0201 	bic.w	r2, r2, #1
 c005d72:	609a      	str	r2, [r3, #8]
        huart->gState = HAL_UART_STATE_READY;
 c005d74:	f8c4 1084 	str.w	r1, [r4, #132]	@ 0x84
        huart->RxState = HAL_UART_STATE_READY;
 c005d78:	f8c4 1088 	str.w	r1, [r4, #136]	@ 0x88
        return HAL_TIMEOUT;
 c005d7c:	e7dd      	b.n	c005d3a <UART_CheckIdleState+0x7a>
 c005d7e:	bf00      	nop

0c005d80 <HAL_UART_Init>:
  if (huart == NULL)
 c005d80:	b380      	cbz	r0, c005de4 <HAL_UART_Init+0x64>
  if (huart->gState == HAL_UART_STATE_RESET)
 c005d82:	f8d0 3084 	ldr.w	r3, [r0, #132]	@ 0x84
{
 c005d86:	b510      	push	{r4, lr}
 c005d88:	4604      	mov	r4, r0
  if (huart->gState == HAL_UART_STATE_RESET)
 c005d8a:	b333      	cbz	r3, c005dda <HAL_UART_Init+0x5a>
  huart->gState = HAL_UART_STATE_BUSY;
 c005d8c:	2324      	movs	r3, #36	@ 0x24
  __HAL_UART_DISABLE(huart);
 c005d8e:	6822      	ldr	r2, [r4, #0]
  huart->gState = HAL_UART_STATE_BUSY;
 c005d90:	f8c4 3084 	str.w	r3, [r4, #132]	@ 0x84
  __HAL_UART_DISABLE(huart);
 c005d94:	6813      	ldr	r3, [r2, #0]
  if (UART_SetConfig(huart) == HAL_ERROR)
 c005d96:	4620      	mov	r0, r4
  __HAL_UART_DISABLE(huart);
 c005d98:	f023 0301 	bic.w	r3, r3, #1
 c005d9c:	6013      	str	r3, [r2, #0]
  if (UART_SetConfig(huart) == HAL_ERROR)
 c005d9e:	f7ff fdcf 	bl	c005940 <UART_SetConfig>
 c005da2:	2801      	cmp	r0, #1
 c005da4:	d017      	beq.n	c005dd6 <HAL_UART_Init+0x56>
  if (huart->AdvancedInit.AdvFeatureInit != UART_ADVFEATURE_NO_INIT)
 c005da6:	6aa3      	ldr	r3, [r4, #40]	@ 0x28
 c005da8:	b98b      	cbnz	r3, c005dce <HAL_UART_Init+0x4e>
  CLEAR_BIT(huart->Instance->CR2, (USART_CR2_LINEN | USART_CR2_CLKEN));
 c005daa:	6823      	ldr	r3, [r4, #0]
  return (UART_CheckIdleState(huart));
 c005dac:	4620      	mov	r0, r4
}
 c005dae:	e8bd 4010 	ldmia.w	sp!, {r4, lr}
  CLEAR_BIT(huart->Instance->CR2, (USART_CR2_LINEN | USART_CR2_CLKEN));
 c005db2:	685a      	ldr	r2, [r3, #4]
 c005db4:	f422 4290 	bic.w	r2, r2, #18432	@ 0x4800
 c005db8:	605a      	str	r2, [r3, #4]
  CLEAR_BIT(huart->Instance->CR3, (USART_CR3_SCEN | USART_CR3_HDSEL | USART_CR3_IREN));
 c005dba:	689a      	ldr	r2, [r3, #8]
 c005dbc:	f022 022a 	bic.w	r2, r2, #42	@ 0x2a
 c005dc0:	609a      	str	r2, [r3, #8]
  __HAL_UART_ENABLE(huart);
 c005dc2:	681a      	ldr	r2, [r3, #0]
 c005dc4:	f042 0201 	orr.w	r2, r2, #1
 c005dc8:	601a      	str	r2, [r3, #0]
  return (UART_CheckIdleState(huart));
 c005dca:	f7ff bf79 	b.w	c005cc0 <UART_CheckIdleState>
    UART_AdvFeatureConfig(huart);
 c005dce:	4620      	mov	r0, r4
 c005dd0:	f7ff ff1e 	bl	c005c10 <UART_AdvFeatureConfig>
 c005dd4:	e7e9      	b.n	c005daa <HAL_UART_Init+0x2a>
}
 c005dd6:	2001      	movs	r0, #1
 c005dd8:	bd10      	pop	{r4, pc}
    huart->Lock = HAL_UNLOCKED;
 c005dda:	f880 3080 	strb.w	r3, [r0, #128]	@ 0x80
    HAL_UART_MspInit(huart);
 c005dde:	f7fd fcb3 	bl	c003748 <HAL_UART_MspInit>
 c005de2:	e7d3      	b.n	c005d8c <HAL_UART_Init+0xc>
}
 c005de4:	2001      	movs	r0, #1
 c005de6:	4770      	bx	lr

0c005de8 <UART_WaitOnFlagUntilTimeout>:
{
 c005de8:	e92d 43f8 	stmdb	sp!, {r3, r4, r5, r6, r7, r8, r9, lr}
 c005dec:	f8dd 8020 	ldr.w	r8, [sp, #32]
 c005df0:	460d      	mov	r5, r1
 c005df2:	f1b8 3fff 	cmp.w	r8, #4294967295
 c005df6:	4616      	mov	r6, r2
  while ((__HAL_UART_GET_FLAG(huart, Flag) ? SET : RESET) == Status)
 c005df8:	6804      	ldr	r4, [r0, #0]
 c005dfa:	d10a      	bne.n	c005e12 <UART_WaitOnFlagUntilTimeout+0x2a>
 c005dfc:	69e3      	ldr	r3, [r4, #28]
 c005dfe:	ea35 0303 	bics.w	r3, r5, r3
 c005e02:	bf0c      	ite	eq
 c005e04:	2301      	moveq	r3, #1
 c005e06:	2300      	movne	r3, #0
 c005e08:	42b3      	cmp	r3, r6
 c005e0a:	d0f7      	beq.n	c005dfc <UART_WaitOnFlagUntilTimeout+0x14>
        }
      }
    }
  }
  return HAL_OK;
 c005e0c:	2000      	movs	r0, #0
}
 c005e0e:	e8bd 83f8 	ldmia.w	sp!, {r3, r4, r5, r6, r7, r8, r9, pc}
 c005e12:	4607      	mov	r7, r0
 c005e14:	4699      	mov	r9, r3
  while ((__HAL_UART_GET_FLAG(huart, Flag) ? SET : RESET) == Status)
 c005e16:	69e2      	ldr	r2, [r4, #28]
 c005e18:	ea35 0202 	bics.w	r2, r5, r2
 c005e1c:	bf0c      	ite	eq
 c005e1e:	2301      	moveq	r3, #1
 c005e20:	2300      	movne	r3, #0
 c005e22:	42b3      	cmp	r3, r6
 c005e24:	d1f2      	bne.n	c005e0c <UART_WaitOnFlagUntilTimeout+0x24>
      if (((HAL_GetTick() - Tickstart) > Timeout) || (Timeout == 0U))
 c005e26:	f7fd fd4b 	bl	c0038c0 <HAL_GetTick>
 c005e2a:	eba0 0009 	sub.w	r0, r0, r9
 c005e2e:	4540      	cmp	r0, r8
 c005e30:	d821      	bhi.n	c005e76 <UART_WaitOnFlagUntilTimeout+0x8e>
      if (READ_BIT(huart->Instance->CR1, USART_CR1_RE) != 0U)
 c005e32:	683c      	ldr	r4, [r7, #0]
 c005e34:	4623      	mov	r3, r4
      if (((HAL_GetTick() - Tickstart) > Timeout) || (Timeout == 0U))
 c005e36:	f1b8 0f00 	cmp.w	r8, #0
 c005e3a:	d01d      	beq.n	c005e78 <UART_WaitOnFlagUntilTimeout+0x90>
      if (READ_BIT(huart->Instance->CR1, USART_CR1_RE) != 0U)
 c005e3c:	6823      	ldr	r3, [r4, #0]
 c005e3e:	0759      	lsls	r1, r3, #29
 c005e40:	d5e9      	bpl.n	c005e16 <UART_WaitOnFlagUntilTimeout+0x2e>
        if (__HAL_UART_GET_FLAG(huart, UART_FLAG_RTOF) == SET)
 c005e42:	69e3      	ldr	r3, [r4, #28]
 c005e44:	051a      	lsls	r2, r3, #20
 c005e46:	d5e6      	bpl.n	c005e16 <UART_WaitOnFlagUntilTimeout+0x2e>
          __HAL_UART_CLEAR_FLAG(huart, UART_CLEAR_RTOF);
 c005e48:	f44f 6200 	mov.w	r2, #2048	@ 0x800
          huart->gState = HAL_UART_STATE_READY;
 c005e4c:	2320      	movs	r3, #32
          __HAL_UART_CLEAR_FLAG(huart, UART_CLEAR_RTOF);
 c005e4e:	6222      	str	r2, [r4, #32]
          CLEAR_BIT(huart->Instance->CR1, (USART_CR1_RXNEIE_RXFNEIE | USART_CR1_PEIE | USART_CR1_TXEIE_TXFNFIE));
 c005e50:	6822      	ldr	r2, [r4, #0]
 c005e52:	f422 72d0 	bic.w	r2, r2, #416	@ 0x1a0
 c005e56:	6022      	str	r2, [r4, #0]
          CLEAR_BIT(huart->Instance->CR3, USART_CR3_EIE);
 c005e58:	68a2      	ldr	r2, [r4, #8]
 c005e5a:	f022 0201 	bic.w	r2, r2, #1
 c005e5e:	60a2      	str	r2, [r4, #8]
          huart->gState = HAL_UART_STATE_READY;
 c005e60:	f8c7 3084 	str.w	r3, [r7, #132]	@ 0x84
          huart->RxState = HAL_UART_STATE_READY;
 c005e64:	f8c7 3088 	str.w	r3, [r7, #136]	@ 0x88
          huart->ErrorCode = HAL_UART_ERROR_RTO;
 c005e68:	f8c7 308c 	str.w	r3, [r7, #140]	@ 0x8c
          __HAL_UNLOCK(huart);
 c005e6c:	2300      	movs	r3, #0
        return HAL_TIMEOUT;
 c005e6e:	2003      	movs	r0, #3
          __HAL_UNLOCK(huart);
 c005e70:	f887 3080 	strb.w	r3, [r7, #128]	@ 0x80
 c005e74:	e7cb      	b.n	c005e0e <UART_WaitOnFlagUntilTimeout+0x26>
 c005e76:	683b      	ldr	r3, [r7, #0]
        huart->gState = HAL_UART_STATE_READY;
 c005e78:	2120      	movs	r1, #32
        CLEAR_BIT(huart->Instance->CR1, (USART_CR1_RXNEIE_RXFNEIE | USART_CR1_PEIE | USART_CR1_TXEIE_TXFNFIE));
 c005e7a:	681a      	ldr	r2, [r3, #0]
 c005e7c:	f422 72d0 	bic.w	r2, r2, #416	@ 0x1a0
 c005e80:	601a      	str	r2, [r3, #0]
        CLEAR_BIT(huart->Instance->CR3, USART_CR3_EIE);
 c005e82:	689a      	ldr	r2, [r3, #8]
 c005e84:	f022 0201 	bic.w	r2, r2, #1
 c005e88:	609a      	str	r2, [r3, #8]
        huart->gState = HAL_UART_STATE_READY;
 c005e8a:	f8c7 1084 	str.w	r1, [r7, #132]	@ 0x84
        huart->RxState = HAL_UART_STATE_READY;
 c005e8e:	f8c7 1088 	str.w	r1, [r7, #136]	@ 0x88
        return HAL_TIMEOUT;
 c005e92:	e7eb      	b.n	c005e6c <UART_WaitOnFlagUntilTimeout+0x84>

0c005e94 <HAL_UART_Transmit>:
{
 c005e94:	e92d 43f0 	stmdb	sp!, {r4, r5, r6, r7, r8, r9, lr}
 c005e98:	461d      	mov	r5, r3
  if (huart->gState == HAL_UART_STATE_READY)
 c005e9a:	f8d0 3084 	ldr.w	r3, [r0, #132]	@ 0x84
{
 c005e9e:	b083      	sub	sp, #12
  if (huart->gState == HAL_UART_STATE_READY)
 c005ea0:	2b20      	cmp	r3, #32
 c005ea2:	d17d      	bne.n	c005fa0 <HAL_UART_Transmit+0x10c>
    if ((pData == NULL) || (Size == 0U))
 c005ea4:	4689      	mov	r9, r1
 c005ea6:	2900      	cmp	r1, #0
 c005ea8:	d047      	beq.n	c005f3a <HAL_UART_Transmit+0xa6>
 c005eaa:	4617      	mov	r7, r2
 c005eac:	2a00      	cmp	r2, #0
 c005eae:	d044      	beq.n	c005f3a <HAL_UART_Transmit+0xa6>
    __HAL_LOCK(huart);
 c005eb0:	f890 3080 	ldrb.w	r3, [r0, #128]	@ 0x80
 c005eb4:	4604      	mov	r4, r0
 c005eb6:	2b01      	cmp	r3, #1
 c005eb8:	d072      	beq.n	c005fa0 <HAL_UART_Transmit+0x10c>
    huart->gState = HAL_UART_STATE_BUSY_TX;
 c005eba:	2321      	movs	r3, #33	@ 0x21
    __HAL_LOCK(huart);
 c005ebc:	2201      	movs	r2, #1
    huart->ErrorCode = HAL_UART_ERROR_NONE;
 c005ebe:	f04f 0800 	mov.w	r8, #0
    __HAL_LOCK(huart);
 c005ec2:	f880 2080 	strb.w	r2, [r0, #128]	@ 0x80
    huart->ErrorCode = HAL_UART_ERROR_NONE;
 c005ec6:	f8c0 808c 	str.w	r8, [r0, #140]	@ 0x8c
    huart->gState = HAL_UART_STATE_BUSY_TX;
 c005eca:	f8c0 3084 	str.w	r3, [r0, #132]	@ 0x84
    tickstart = HAL_GetTick();
 c005ece:	f7fd fcf7 	bl	c0038c0 <HAL_GetTick>
    if ((huart->Init.WordLength == UART_WORDLENGTH_9B) && (huart->Init.Parity == UART_PARITY_NONE))
 c005ed2:	68a3      	ldr	r3, [r4, #8]
    tickstart = HAL_GetTick();
 c005ed4:	4606      	mov	r6, r0
    if ((huart->Init.WordLength == UART_WORDLENGTH_9B) && (huart->Init.Parity == UART_PARITY_NONE))
 c005ed6:	f5b3 5f80 	cmp.w	r3, #4096	@ 0x1000
    huart->TxXferSize  = Size;
 c005eda:	f8a4 7054 	strh.w	r7, [r4, #84]	@ 0x54
    huart->TxXferCount = Size;
 c005ede:	f8a4 7056 	strh.w	r7, [r4, #86]	@ 0x56
    if ((huart->Init.WordLength == UART_WORDLENGTH_9B) && (huart->Init.Parity == UART_PARITY_NONE))
 c005ee2:	d061      	beq.n	c005fa8 <HAL_UART_Transmit+0x114>
      pdata16bits = NULL;
 c005ee4:	4647      	mov	r7, r8
    __HAL_UNLOCK(huart);
 c005ee6:	2300      	movs	r3, #0
 c005ee8:	f884 3080 	strb.w	r3, [r4, #128]	@ 0x80
    while (huart->TxXferCount > 0U)
 c005eec:	f8b4 3056 	ldrh.w	r3, [r4, #86]	@ 0x56
 c005ef0:	b29b      	uxth	r3, r3
 c005ef2:	b1b3      	cbz	r3, c005f22 <HAL_UART_Transmit+0x8e>
  while ((__HAL_UART_GET_FLAG(huart, Flag) ? SET : RESET) == Status)
 c005ef4:	6823      	ldr	r3, [r4, #0]
 c005ef6:	1c6a      	adds	r2, r5, #1
 c005ef8:	d123      	bne.n	c005f42 <HAL_UART_Transmit+0xae>
 c005efa:	69da      	ldr	r2, [r3, #28]
 c005efc:	0611      	lsls	r1, r2, #24
 c005efe:	d5fc      	bpl.n	c005efa <HAL_UART_Transmit+0x66>
      if (pdata8bits == NULL)
 c005f00:	f1b9 0f00 	cmp.w	r9, #0
 c005f04:	d047      	beq.n	c005f96 <HAL_UART_Transmit+0x102>
        huart->Instance->TDR = (uint8_t)(*pdata8bits & 0xFFU);
 c005f06:	f819 2b01 	ldrb.w	r2, [r9], #1
 c005f0a:	629a      	str	r2, [r3, #40]	@ 0x28
      huart->TxXferCount--;
 c005f0c:	f8b4 2056 	ldrh.w	r2, [r4, #86]	@ 0x56
 c005f10:	3a01      	subs	r2, #1
 c005f12:	b292      	uxth	r2, r2
 c005f14:	f8a4 2056 	strh.w	r2, [r4, #86]	@ 0x56
    while (huart->TxXferCount > 0U)
 c005f18:	f8b4 2056 	ldrh.w	r2, [r4, #86]	@ 0x56
 c005f1c:	b292      	uxth	r2, r2
 c005f1e:	2a00      	cmp	r2, #0
 c005f20:	d1e9      	bne.n	c005ef6 <HAL_UART_Transmit+0x62>
    if (UART_WaitOnFlagUntilTimeout(huart, UART_FLAG_TC, RESET, tickstart, Timeout) != HAL_OK)
 c005f22:	4633      	mov	r3, r6
 c005f24:	2200      	movs	r2, #0
 c005f26:	2140      	movs	r1, #64	@ 0x40
 c005f28:	4620      	mov	r0, r4
 c005f2a:	9500      	str	r5, [sp, #0]
 c005f2c:	f7ff ff5c 	bl	c005de8 <UART_WaitOnFlagUntilTimeout>
 c005f30:	bb68      	cbnz	r0, c005f8e <HAL_UART_Transmit+0xfa>
    huart->gState = HAL_UART_STATE_READY;
 c005f32:	2320      	movs	r3, #32
 c005f34:	f8c4 3084 	str.w	r3, [r4, #132]	@ 0x84
    return HAL_OK;
 c005f38:	e000      	b.n	c005f3c <HAL_UART_Transmit+0xa8>
      return  HAL_ERROR;
 c005f3a:	2001      	movs	r0, #1
}
 c005f3c:	b003      	add	sp, #12
 c005f3e:	e8bd 83f0 	ldmia.w	sp!, {r4, r5, r6, r7, r8, r9, pc}
  while ((__HAL_UART_GET_FLAG(huart, Flag) ? SET : RESET) == Status)
 c005f42:	69da      	ldr	r2, [r3, #28]
 c005f44:	f012 0880 	ands.w	r8, r2, #128	@ 0x80
 c005f48:	d1da      	bne.n	c005f00 <HAL_UART_Transmit+0x6c>
      if (((HAL_GetTick() - Tickstart) > Timeout) || (Timeout == 0U))
 c005f4a:	f7fd fcb9 	bl	c0038c0 <HAL_GetTick>
 c005f4e:	1b80      	subs	r0, r0, r6
 c005f50:	4285      	cmp	r5, r0
 c005f52:	d32f      	bcc.n	c005fb4 <HAL_UART_Transmit+0x120>
      if (READ_BIT(huart->Instance->CR1, USART_CR1_RE) != 0U)
 c005f54:	6823      	ldr	r3, [r4, #0]
 c005f56:	461a      	mov	r2, r3
      if (((HAL_GetTick() - Tickstart) > Timeout) || (Timeout == 0U))
 c005f58:	b36d      	cbz	r5, c005fb6 <HAL_UART_Transmit+0x122>
      if (READ_BIT(huart->Instance->CR1, USART_CR1_RE) != 0U)
 c005f5a:	681a      	ldr	r2, [r3, #0]
 c005f5c:	0752      	lsls	r2, r2, #29
 c005f5e:	d5f0      	bpl.n	c005f42 <HAL_UART_Transmit+0xae>
        if (__HAL_UART_GET_FLAG(huart, UART_FLAG_RTOF) == SET)
 c005f60:	69da      	ldr	r2, [r3, #28]
 c005f62:	0510      	lsls	r0, r2, #20
 c005f64:	d5ed      	bpl.n	c005f42 <HAL_UART_Transmit+0xae>
          __HAL_UART_CLEAR_FLAG(huart, UART_CLEAR_RTOF);
 c005f66:	f44f 6100 	mov.w	r1, #2048	@ 0x800
          huart->gState = HAL_UART_STATE_READY;
 c005f6a:	2220      	movs	r2, #32
          __HAL_UART_CLEAR_FLAG(huart, UART_CLEAR_RTOF);
 c005f6c:	6219      	str	r1, [r3, #32]
          CLEAR_BIT(huart->Instance->CR1, (USART_CR1_RXNEIE_RXFNEIE | USART_CR1_PEIE | USART_CR1_TXEIE_TXFNFIE));
 c005f6e:	6819      	ldr	r1, [r3, #0]
 c005f70:	f421 71d0 	bic.w	r1, r1, #416	@ 0x1a0
 c005f74:	6019      	str	r1, [r3, #0]
          CLEAR_BIT(huart->Instance->CR3, USART_CR3_EIE);
 c005f76:	6899      	ldr	r1, [r3, #8]
 c005f78:	f021 0101 	bic.w	r1, r1, #1
 c005f7c:	6099      	str	r1, [r3, #8]
          huart->gState = HAL_UART_STATE_READY;
 c005f7e:	f8c4 2084 	str.w	r2, [r4, #132]	@ 0x84
          __HAL_UNLOCK(huart);
 c005f82:	f884 8080 	strb.w	r8, [r4, #128]	@ 0x80
          huart->RxState = HAL_UART_STATE_READY;
 c005f86:	f8c4 2088 	str.w	r2, [r4, #136]	@ 0x88
          huart->ErrorCode = HAL_UART_ERROR_RTO;
 c005f8a:	f8c4 208c 	str.w	r2, [r4, #140]	@ 0x8c
        return HAL_TIMEOUT;
 c005f8e:	2003      	movs	r0, #3
}
 c005f90:	b003      	add	sp, #12
 c005f92:	e8bd 83f0 	ldmia.w	sp!, {r4, r5, r6, r7, r8, r9, pc}
        huart->Instance->TDR = (uint16_t)(*pdata16bits & 0x01FFU);
 c005f96:	f837 2b02 	ldrh.w	r2, [r7], #2
 c005f9a:	f3c2 0208 	ubfx	r2, r2, #0, #9
 c005f9e:	e7b4      	b.n	c005f0a <HAL_UART_Transmit+0x76>
    __HAL_LOCK(huart);
 c005fa0:	2002      	movs	r0, #2
}
 c005fa2:	b003      	add	sp, #12
 c005fa4:	e8bd 83f0 	ldmia.w	sp!, {r4, r5, r6, r7, r8, r9, pc}
    if ((huart->Init.WordLength == UART_WORDLENGTH_9B) && (huart->Init.Parity == UART_PARITY_NONE))
 c005fa8:	6923      	ldr	r3, [r4, #16]
 c005faa:	2b00      	cmp	r3, #0
 c005fac:	d19a      	bne.n	c005ee4 <HAL_UART_Transmit+0x50>
 c005fae:	464f      	mov	r7, r9
      pdata8bits  = NULL;
 c005fb0:	4699      	mov	r9, r3
 c005fb2:	e798      	b.n	c005ee6 <HAL_UART_Transmit+0x52>
 c005fb4:	6822      	ldr	r2, [r4, #0]
        huart->gState = HAL_UART_STATE_READY;
 c005fb6:	2120      	movs	r1, #32
        __HAL_UNLOCK(huart);
 c005fb8:	2000      	movs	r0, #0
        CLEAR_BIT(huart->Instance->CR1, (USART_CR1_RXNEIE_RXFNEIE | USART_CR1_PEIE | USART_CR1_TXEIE_TXFNFIE));
 c005fba:	6813      	ldr	r3, [r2, #0]
 c005fbc:	f423 73d0 	bic.w	r3, r3, #416	@ 0x1a0
 c005fc0:	6013      	str	r3, [r2, #0]
        CLEAR_BIT(huart->Instance->CR3, USART_CR3_EIE);
 c005fc2:	6893      	ldr	r3, [r2, #8]
 c005fc4:	f023 0301 	bic.w	r3, r3, #1
 c005fc8:	6093      	str	r3, [r2, #8]
        huart->gState = HAL_UART_STATE_READY;
 c005fca:	f8c4 1084 	str.w	r1, [r4, #132]	@ 0x84
        __HAL_UNLOCK(huart);
 c005fce:	f884 0080 	strb.w	r0, [r4, #128]	@ 0x80
        huart->RxState = HAL_UART_STATE_READY;
 c005fd2:	f8c4 1088 	str.w	r1, [r4, #136]	@ 0x88
        return HAL_TIMEOUT;
 c005fd6:	2003      	movs	r0, #3
 c005fd8:	e7da      	b.n	c005f90 <HAL_UART_Transmit+0xfc>
 c005fda:	bf00      	nop

0c005fdc <HAL_UARTEx_DisableFifoMode>:

  /* Check parameters */
  assert_param(IS_UART_FIFO_INSTANCE(huart->Instance));

  /* Process Locked */
  __HAL_LOCK(huart);
 c005fdc:	f890 2080 	ldrb.w	r2, [r0, #128]	@ 0x80
 c005fe0:	2a01      	cmp	r2, #1
 c005fe2:	d017      	beq.n	c006014 <HAL_UARTEx_DisableFifoMode+0x38>
 c005fe4:	4603      	mov	r3, r0

  huart->gState = HAL_UART_STATE_BUSY;
 c005fe6:	2024      	movs	r0, #36	@ 0x24
  /* Disable UART */
  __HAL_UART_DISABLE(huart);

  /* Enable FIFO mode */
  CLEAR_BIT(tmpcr1, USART_CR1_FIFOEN);
  huart->FifoMode = UART_FIFOMODE_DISABLE;
 c005fe8:	2100      	movs	r1, #0
{
 c005fea:	b430      	push	{r4, r5}

  /* Restore UART configuration */
  WRITE_REG(huart->Instance->CR1, tmpcr1);

  huart->gState = HAL_UART_STATE_READY;
 c005fec:	2520      	movs	r5, #32
  tmpcr1 = READ_REG(huart->Instance->CR1);
 c005fee:	681a      	ldr	r2, [r3, #0]
  huart->gState = HAL_UART_STATE_BUSY;
 c005ff0:	f8c3 0084 	str.w	r0, [r3, #132]	@ 0x84
  tmpcr1 = READ_REG(huart->Instance->CR1);
 c005ff4:	6810      	ldr	r0, [r2, #0]
  __HAL_UART_DISABLE(huart);
 c005ff6:	6814      	ldr	r4, [r2, #0]
  CLEAR_BIT(tmpcr1, USART_CR1_FIFOEN);
 c005ff8:	f020 5000 	bic.w	r0, r0, #536870912	@ 0x20000000
  __HAL_UART_DISABLE(huart);
 c005ffc:	f024 0401 	bic.w	r4, r4, #1
 c006000:	6014      	str	r4, [r2, #0]
  huart->FifoMode = UART_FIFOMODE_DISABLE;
 c006002:	6659      	str	r1, [r3, #100]	@ 0x64
  WRITE_REG(huart->Instance->CR1, tmpcr1);
 c006004:	6010      	str	r0, [r2, #0]

  /* Process Unlocked */
  __HAL_UNLOCK(huart);
 c006006:	f883 1080 	strb.w	r1, [r3, #128]	@ 0x80

  return HAL_OK;
 c00600a:	4608      	mov	r0, r1
  huart->gState = HAL_UART_STATE_READY;
 c00600c:	f8c3 5084 	str.w	r5, [r3, #132]	@ 0x84
}
 c006010:	bc30      	pop	{r4, r5}
 c006012:	4770      	bx	lr
  __HAL_LOCK(huart);
 c006014:	2002      	movs	r0, #2
}
 c006016:	4770      	bx	lr

0c006018 <HAL_UARTEx_SetTxFifoThreshold>:
  /* Check parameters */
  assert_param(IS_UART_FIFO_INSTANCE(huart->Instance));
  assert_param(IS_UART_TXFIFO_THRESHOLD(Threshold));

  /* Process Locked */
  __HAL_LOCK(huart);
 c006018:	f890 2080 	ldrb.w	r2, [r0, #128]	@ 0x80
 c00601c:	2a01      	cmp	r2, #1
 c00601e:	d037      	beq.n	c006090 <HAL_UARTEx_SetTxFifoThreshold+0x78>

  huart->gState = HAL_UART_STATE_BUSY;
 c006020:	4603      	mov	r3, r0
 c006022:	2024      	movs	r0, #36	@ 0x24

  /* Save actual UART configuration */
  tmpcr1 = READ_REG(huart->Instance->CR1);
 c006024:	681a      	ldr	r2, [r3, #0]
{
 c006026:	b530      	push	{r4, r5, lr}
  huart->gState = HAL_UART_STATE_BUSY;
 c006028:	f8c3 0084 	str.w	r0, [r3, #132]	@ 0x84
  tmpcr1 = READ_REG(huart->Instance->CR1);
 c00602c:	6814      	ldr	r4, [r2, #0]

  /* Disable UART */
  __HAL_UART_DISABLE(huart);
 c00602e:	6810      	ldr	r0, [r2, #0]
  uint8_t rx_fifo_threshold;
  uint8_t tx_fifo_threshold;
  static const uint8_t numerator[] = {1U, 1U, 1U, 3U, 7U, 1U, 0U, 0U};
  static const uint8_t denominator[] = {8U, 4U, 2U, 4U, 8U, 1U, 1U, 1U};

  if (huart->FifoMode == UART_FIFOMODE_DISABLE)
 c006030:	6e5d      	ldr	r5, [r3, #100]	@ 0x64
  __HAL_UART_DISABLE(huart);
 c006032:	f020 0001 	bic.w	r0, r0, #1
 c006036:	6010      	str	r0, [r2, #0]
  MODIFY_REG(huart->Instance->CR3, USART_CR3_TXFTCFG, Threshold);
 c006038:	6890      	ldr	r0, [r2, #8]
 c00603a:	f020 4060 	bic.w	r0, r0, #3758096384	@ 0xe0000000
 c00603e:	4301      	orrs	r1, r0
 c006040:	6091      	str	r1, [r2, #8]
  if (huart->FifoMode == UART_FIFOMODE_DISABLE)
 c006042:	b315      	cbz	r5, c00608a <HAL_UARTEx_SetTxFifoThreshold+0x72>
  }
  else
  {
    rx_fifo_depth = RX_FIFO_DEPTH;
    tx_fifo_depth = TX_FIFO_DEPTH;
    rx_fifo_threshold = (uint8_t)(READ_BIT(huart->Instance->CR3, USART_CR3_RXFTCFG) >> USART_CR3_RXFTCFG_Pos);
 c006044:	6891      	ldr	r1, [r2, #8]
    tx_fifo_threshold = (uint8_t)(READ_BIT(huart->Instance->CR3, USART_CR3_TXFTCFG) >> USART_CR3_TXFTCFG_Pos);
 c006046:	6890      	ldr	r0, [r2, #8]
    huart->NbTxDataToProcess = ((uint16_t)tx_fifo_depth * numerator[tx_fifo_threshold]) / (uint16_t)denominator[tx_fifo_threshold];
    huart->NbRxDataToProcess = ((uint16_t)rx_fifo_depth * numerator[rx_fifo_threshold]) / (uint16_t)denominator[rx_fifo_threshold];
 c006048:	f3c1 6c42 	ubfx	ip, r1, #25, #3
    huart->NbTxDataToProcess = ((uint16_t)tx_fifo_depth * numerator[tx_fifo_threshold]) / (uint16_t)denominator[tx_fifo_threshold];
 c00604c:	4911      	ldr	r1, [pc, #68]	@ (c006094 <HAL_UARTEx_SetTxFifoThreshold+0x7c>)
 c00604e:	4d12      	ldr	r5, [pc, #72]	@ (c006098 <HAL_UARTEx_SetTxFifoThreshold+0x80>)
    tx_fifo_threshold = (uint8_t)(READ_BIT(huart->Instance->CR3, USART_CR3_TXFTCFG) >> USART_CR3_TXFTCFG_Pos);
 c006050:	ea4f 7e50 	mov.w	lr, r0, lsr #29
    huart->NbTxDataToProcess = ((uint16_t)tx_fifo_depth * numerator[tx_fifo_threshold]) / (uint16_t)denominator[tx_fifo_threshold];
 c006054:	f811 000e 	ldrb.w	r0, [r1, lr]
    huart->NbRxDataToProcess = ((uint16_t)rx_fifo_depth * numerator[rx_fifo_threshold]) / (uint16_t)denominator[rx_fifo_threshold];
 c006058:	f811 100c 	ldrb.w	r1, [r1, ip]
    huart->NbTxDataToProcess = ((uint16_t)tx_fifo_depth * numerator[tx_fifo_threshold]) / (uint16_t)denominator[tx_fifo_threshold];
 c00605c:	f815 e00e 	ldrb.w	lr, [r5, lr]
    huart->NbRxDataToProcess = ((uint16_t)rx_fifo_depth * numerator[rx_fifo_threshold]) / (uint16_t)denominator[rx_fifo_threshold];
 c006060:	f815 500c 	ldrb.w	r5, [r5, ip]
    huart->NbTxDataToProcess = ((uint16_t)tx_fifo_depth * numerator[tx_fifo_threshold]) / (uint16_t)denominator[tx_fifo_threshold];
 c006064:	00c0      	lsls	r0, r0, #3
    huart->NbRxDataToProcess = ((uint16_t)rx_fifo_depth * numerator[rx_fifo_threshold]) / (uint16_t)denominator[rx_fifo_threshold];
 c006066:	00c9      	lsls	r1, r1, #3
    huart->NbTxDataToProcess = ((uint16_t)tx_fifo_depth * numerator[tx_fifo_threshold]) / (uint16_t)denominator[tx_fifo_threshold];
 c006068:	fbb0 f0fe 	udiv	r0, r0, lr
    huart->NbRxDataToProcess = ((uint16_t)rx_fifo_depth * numerator[rx_fifo_threshold]) / (uint16_t)denominator[rx_fifo_threshold];
 c00606c:	fbb1 f1f5 	udiv	r1, r1, r5
 c006070:	f8a3 1068 	strh.w	r1, [r3, #104]	@ 0x68
  __HAL_UNLOCK(huart);
 c006074:	2100      	movs	r1, #0
  huart->gState = HAL_UART_STATE_READY;
 c006076:	2520      	movs	r5, #32
 c006078:	f8a3 006a 	strh.w	r0, [r3, #106]	@ 0x6a
  WRITE_REG(huart->Instance->CR1, tmpcr1);
 c00607c:	6014      	str	r4, [r2, #0]
  __HAL_UNLOCK(huart);
 c00607e:	f883 1080 	strb.w	r1, [r3, #128]	@ 0x80
  return HAL_OK;
 c006082:	4608      	mov	r0, r1
  huart->gState = HAL_UART_STATE_READY;
 c006084:	f8c3 5084 	str.w	r5, [r3, #132]	@ 0x84
}
 c006088:	bd30      	pop	{r4, r5, pc}
    huart->NbRxDataToProcess = 1U;
 c00608a:	2101      	movs	r1, #1
    huart->NbTxDataToProcess = 1U;
 c00608c:	4608      	mov	r0, r1
 c00608e:	e7ef      	b.n	c006070 <HAL_UARTEx_SetTxFifoThreshold+0x58>
  __HAL_LOCK(huart);
 c006090:	2002      	movs	r0, #2
}
 c006092:	4770      	bx	lr
 c006094:	0c0064c0 	.word	0x0c0064c0
 c006098:	0c0064b8 	.word	0x0c0064b8

0c00609c <HAL_UARTEx_SetRxFifoThreshold>:
  __HAL_LOCK(huart);
 c00609c:	f890 2080 	ldrb.w	r2, [r0, #128]	@ 0x80
 c0060a0:	2a01      	cmp	r2, #1
 c0060a2:	d037      	beq.n	c006114 <HAL_UARTEx_SetRxFifoThreshold+0x78>
  huart->gState = HAL_UART_STATE_BUSY;
 c0060a4:	4603      	mov	r3, r0
 c0060a6:	2024      	movs	r0, #36	@ 0x24
  tmpcr1 = READ_REG(huart->Instance->CR1);
 c0060a8:	681a      	ldr	r2, [r3, #0]
{
 c0060aa:	b530      	push	{r4, r5, lr}
  huart->gState = HAL_UART_STATE_BUSY;
 c0060ac:	f8c3 0084 	str.w	r0, [r3, #132]	@ 0x84
  tmpcr1 = READ_REG(huart->Instance->CR1);
 c0060b0:	6814      	ldr	r4, [r2, #0]
  __HAL_UART_DISABLE(huart);
 c0060b2:	6810      	ldr	r0, [r2, #0]
  if (huart->FifoMode == UART_FIFOMODE_DISABLE)
 c0060b4:	6e5d      	ldr	r5, [r3, #100]	@ 0x64
  __HAL_UART_DISABLE(huart);
 c0060b6:	f020 0001 	bic.w	r0, r0, #1
 c0060ba:	6010      	str	r0, [r2, #0]
  MODIFY_REG(huart->Instance->CR3, USART_CR3_RXFTCFG, Threshold);
 c0060bc:	6890      	ldr	r0, [r2, #8]
 c0060be:	f020 6060 	bic.w	r0, r0, #234881024	@ 0xe000000
 c0060c2:	4301      	orrs	r1, r0
 c0060c4:	6091      	str	r1, [r2, #8]
  if (huart->FifoMode == UART_FIFOMODE_DISABLE)
 c0060c6:	b315      	cbz	r5, c00610e <HAL_UARTEx_SetRxFifoThreshold+0x72>
    rx_fifo_threshold = (uint8_t)(READ_BIT(huart->Instance->CR3, USART_CR3_RXFTCFG) >> USART_CR3_RXFTCFG_Pos);
 c0060c8:	6891      	ldr	r1, [r2, #8]
    tx_fifo_threshold = (uint8_t)(READ_BIT(huart->Instance->CR3, USART_CR3_TXFTCFG) >> USART_CR3_TXFTCFG_Pos);
 c0060ca:	6890      	ldr	r0, [r2, #8]
    huart->NbRxDataToProcess = ((uint16_t)rx_fifo_depth * numerator[rx_fifo_threshold]) / (uint16_t)denominator[rx_fifo_threshold];
 c0060cc:	f3c1 6c42 	ubfx	ip, r1, #25, #3
    huart->NbTxDataToProcess = ((uint16_t)tx_fifo_depth * numerator[tx_fifo_threshold]) / (uint16_t)denominator[tx_fifo_threshold];
 c0060d0:	4911      	ldr	r1, [pc, #68]	@ (c006118 <HAL_UARTEx_SetRxFifoThreshold+0x7c>)
 c0060d2:	4d12      	ldr	r5, [pc, #72]	@ (c00611c <HAL_UARTEx_SetRxFifoThreshold+0x80>)
    tx_fifo_threshold = (uint8_t)(READ_BIT(huart->Instance->CR3, USART_CR3_TXFTCFG) >> USART_CR3_TXFTCFG_Pos);
 c0060d4:	ea4f 7e50 	mov.w	lr, r0, lsr #29
    huart->NbTxDataToProcess = ((uint16_t)tx_fifo_depth * numerator[tx_fifo_threshold]) / (uint16_t)denominator[tx_fifo_threshold];
 c0060d8:	f811 000e 	ldrb.w	r0, [r1, lr]
    huart->NbRxDataToProcess = ((uint16_t)rx_fifo_depth * numerator[rx_fifo_threshold]) / (uint16_t)denominator[rx_fifo_threshold];
 c0060dc:	f811 100c 	ldrb.w	r1, [r1, ip]
    huart->NbTxDataToProcess = ((uint16_t)tx_fifo_depth * numerator[tx_fifo_threshold]) / (uint16_t)denominator[tx_fifo_threshold];
 c0060e0:	f815 e00e 	ldrb.w	lr, [r5, lr]
    huart->NbRxDataToProcess = ((uint16_t)rx_fifo_depth * numerator[rx_fifo_threshold]) / (uint16_t)denominator[rx_fifo_threshold];
 c0060e4:	f815 500c 	ldrb.w	r5, [r5, ip]
    huart->NbTxDataToProcess = ((uint16_t)tx_fifo_depth * numerator[tx_fifo_threshold]) / (uint16_t)denominator[tx_fifo_threshold];
 c0060e8:	00c0      	lsls	r0, r0, #3
    huart->NbRxDataToProcess = ((uint16_t)rx_fifo_depth * numerator[rx_fifo_threshold]) / (uint16_t)denominator[rx_fifo_threshold];
 c0060ea:	00c9      	lsls	r1, r1, #3
    huart->NbTxDataToProcess = ((uint16_t)tx_fifo_depth * numerator[tx_fifo_threshold]) / (uint16_t)denominator[tx_fifo_threshold];
 c0060ec:	fbb0 f0fe 	udiv	r0, r0, lr
    huart->NbRxDataToProcess = ((uint16_t)rx_fifo_depth * numerator[rx_fifo_threshold]) / (uint16_t)denominator[rx_fifo_threshold];
 c0060f0:	fbb1 f1f5 	udiv	r1, r1, r5
 c0060f4:	f8a3 1068 	strh.w	r1, [r3, #104]	@ 0x68
  __HAL_UNLOCK(huart);
 c0060f8:	2100      	movs	r1, #0
  huart->gState = HAL_UART_STATE_READY;
 c0060fa:	2520      	movs	r5, #32
 c0060fc:	f8a3 006a 	strh.w	r0, [r3, #106]	@ 0x6a
  WRITE_REG(huart->Instance->CR1, tmpcr1);
 c006100:	6014      	str	r4, [r2, #0]
  __HAL_UNLOCK(huart);
 c006102:	f883 1080 	strb.w	r1, [r3, #128]	@ 0x80
  return HAL_OK;
 c006106:	4608      	mov	r0, r1
  huart->gState = HAL_UART_STATE_READY;
 c006108:	f8c3 5084 	str.w	r5, [r3, #132]	@ 0x84
}
 c00610c:	bd30      	pop	{r4, r5, pc}
    huart->NbRxDataToProcess = 1U;
 c00610e:	2101      	movs	r1, #1
    huart->NbTxDataToProcess = 1U;
 c006110:	4608      	mov	r0, r1
 c006112:	e7ef      	b.n	c0060f4 <HAL_UARTEx_SetRxFifoThreshold+0x58>
  __HAL_LOCK(huart);
 c006114:	2002      	movs	r0, #2
}
 c006116:	4770      	bx	lr
 c006118:	0c0064c0 	.word	0x0c0064c0
 c00611c:	0c0064b8 	.word	0x0c0064b8

0c006120 <memcmp>:
 c006120:	3901      	subs	r1, #1
 c006122:	4402      	add	r2, r0
 c006124:	b510      	push	{r4, lr}
 c006126:	4290      	cmp	r0, r2
 c006128:	d101      	bne.n	c00612e <memcmp+0xe>
 c00612a:	2000      	movs	r0, #0
 c00612c:	e005      	b.n	c00613a <memcmp+0x1a>
 c00612e:	7803      	ldrb	r3, [r0, #0]
 c006130:	f811 4f01 	ldrb.w	r4, [r1, #1]!
 c006134:	42a3      	cmp	r3, r4
 c006136:	d001      	beq.n	c00613c <memcmp+0x1c>
 c006138:	1b18      	subs	r0, r3, r4
 c00613a:	bd10      	pop	{r4, pc}
 c00613c:	3001      	adds	r0, #1
 c00613e:	e7f2      	b.n	c006126 <memcmp+0x6>

0c006140 <memset>:
 c006140:	4402      	add	r2, r0
 c006142:	4603      	mov	r3, r0
 c006144:	4293      	cmp	r3, r2
 c006146:	d100      	bne.n	c00614a <memset+0xa>
 c006148:	4770      	bx	lr
 c00614a:	f803 1b01 	strb.w	r1, [r3], #1
 c00614e:	e7f9      	b.n	c006144 <memset+0x4>

0c006150 <__libc_init_array>:
 c006150:	b570      	push	{r4, r5, r6, lr}
 c006152:	4d0d      	ldr	r5, [pc, #52]	@ (c006188 <__libc_init_array+0x38>)
 c006154:	2600      	movs	r6, #0
 c006156:	4c0d      	ldr	r4, [pc, #52]	@ (c00618c <__libc_init_array+0x3c>)
 c006158:	1b64      	subs	r4, r4, r5
 c00615a:	10a4      	asrs	r4, r4, #2
 c00615c:	42a6      	cmp	r6, r4
 c00615e:	d109      	bne.n	c006174 <__libc_init_array+0x24>
 c006160:	4d0b      	ldr	r5, [pc, #44]	@ (c006190 <__libc_init_array+0x40>)
 c006162:	2600      	movs	r6, #0
 c006164:	4c0b      	ldr	r4, [pc, #44]	@ (c006194 <__libc_init_array+0x44>)
 c006166:	f000 f825 	bl	c0061b4 <_init>
 c00616a:	1b64      	subs	r4, r4, r5
 c00616c:	10a4      	asrs	r4, r4, #2
 c00616e:	42a6      	cmp	r6, r4
 c006170:	d105      	bne.n	c00617e <__libc_init_array+0x2e>
 c006172:	bd70      	pop	{r4, r5, r6, pc}
 c006174:	f855 3b04 	ldr.w	r3, [r5], #4
 c006178:	3601      	adds	r6, #1
 c00617a:	4798      	blx	r3
 c00617c:	e7ee      	b.n	c00615c <__libc_init_array+0xc>
 c00617e:	f855 3b04 	ldr.w	r3, [r5], #4
 c006182:	3601      	adds	r6, #1
 c006184:	4798      	blx	r3
 c006186:	e7f2      	b.n	c00616e <__libc_init_array+0x1e>
 c006188:	0c0064d0 	.word	0x0c0064d0
 c00618c:	0c0064d0 	.word	0x0c0064d0
 c006190:	0c0064d0 	.word	0x0c0064d0
 c006194:	0c0064d4 	.word	0x0c0064d4

0c006198 <memcpy>:
 c006198:	440a      	add	r2, r1
 c00619a:	1e43      	subs	r3, r0, #1
 c00619c:	4291      	cmp	r1, r2
 c00619e:	d100      	bne.n	c0061a2 <memcpy+0xa>
 c0061a0:	4770      	bx	lr
 c0061a2:	b510      	push	{r4, lr}
 c0061a4:	f811 4b01 	ldrb.w	r4, [r1], #1
 c0061a8:	4291      	cmp	r1, r2
 c0061aa:	f803 4f01 	strb.w	r4, [r3, #1]!
 c0061ae:	d1f9      	bne.n	c0061a4 <memcpy+0xc>
 c0061b0:	bd10      	pop	{r4, pc}
	...

0c0061b4 <_init>:
 c0061b4:	b5f8      	push	{r3, r4, r5, r6, r7, lr}
 c0061b6:	bf00      	nop
 c0061b8:	bcf8      	pop	{r3, r4, r5, r6, r7}
 c0061ba:	bc08      	pop	{r3}
 c0061bc:	469e      	mov	lr, r3
 c0061be:	4770      	bx	lr

0c0061c0 <_fini>:
 c0061c0:	b5f8      	push	{r3, r4, r5, r6, r7, lr}
 c0061c2:	bf00      	nop
 c0061c4:	bcf8      	pop	{r3, r4, r5, r6, r7}
 c0061c6:	bc08      	pop	{r3}
 c0061c8:	469e      	mov	lr, r3
 c0061ca:	4770      	bx	lr

Disassembly of section .gnu.sgstubs:

0c03e000 <SECURE_SystemCoreClockUpdate>:
 c03e000:	e97f e97f 	sg
 c03e004:	f7c5 ba20 	b.w	c003448 <__acle_se_SECURE_SystemCoreClockUpdate>

0c03e008 <SECURE_recv>:
 c03e008:	e97f e97f 	sg
 c03e00c:	f7c4 be82 	b.w	c002d14 <__acle_se_SECURE_recv>

0c03e010 <SECURE_avg>:
 c03e010:	e97f e97f 	sg
 c03e014:	f7c4 bec0 	b.w	c002d98 <__acle_se_SECURE_avg>

0c03e018 <SECURE_setState>:
 c03e018:	e97f e97f 	sg
 c03e01c:	f7c4 bef4 	b.w	c002e08 <__acle_se_SECURE_setState>

0c03e020 <SECURE_RegisterCallback>:
 c03e020:	e97f e97f 	sg
 c03e024:	f7c4 bdf2 	b.w	c002c0c <__acle_se_SECURE_RegisterCallback>

0c03e028 <SECURE_send>:
 c03e028:	e97f e97f 	sg
 c03e02c:	f7c4 be30 	b.w	c002c90 <__acle_se_SECURE_send>

0c03e030 <SECURE_pox>:
 c03e030:	e97f e97f 	sg
 c03e034:	f7c4 bf9a 	b.w	c002f6c <__acle_se_SECURE_pox>

0c03e038 <SECURE_checkState>:
 c03e038:	e97f e97f 	sg
 c03e03c:	f7c4 bf3e 	b.w	c002ebc <__acle_se_SECURE_checkState>
