
NonSecureApp.elf:     file format elf32-littlearm

Sections:
Idx Name          Size      VMA       LMA       File off  Algn
  0 .text         00001834  00008000  00008000  00008000  2**2
                  CONTENTS, ALLOC, LOAD, READONLY, CODE
  1 .ARM.exidx    00000008  00009834  00009834  00009834  2**2
                  CONTENTS, ALLOC, LOAD, READONLY, DATA
  2 .relocate     000001d0  20002000  0000983c  00012000  2**2
                  CONTENTS, ALLOC, LOAD, DATA
  3 .bss          00000034  200021d0  00009a0c  000121d0  2**2
                  ALLOC
  4 .heap         00000204  20002204  00009a40  000121d0  2**0
                  ALLOC
  5 .stack        00000400  20002408  00009c44  000121d0  2**0
                  ALLOC
  6 .ARM.attributes 0000002c  00000000  00000000  000121d0  2**0
                  CONTENTS, READONLY
  7 .comment      00000059  00000000  00000000  000121fc  2**0
                  CONTENTS, READONLY
  8 .debug_info   00005071  00000000  00000000  00012255  2**0
                  CONTENTS, READONLY, DEBUGGING
  9 .debug_abbrev 000004e4  00000000  00000000  000172c6  2**0
                  CONTENTS, READONLY, DEBUGGING
 10 .debug_loc    0000031b  00000000  00000000  000177aa  2**0
                  CONTENTS, READONLY, DEBUGGING
 11 .debug_aranges 00000098  00000000  00000000  00017ac5  2**0
                  CONTENTS, READONLY, DEBUGGING
 12 .debug_ranges 00000090  00000000  00000000  00017b5d  2**0
                  CONTENTS, READONLY, DEBUGGING
 13 .debug_macro  000139c2  00000000  00000000  00017bed  2**0
                  CONTENTS, READONLY, DEBUGGING
 14 .debug_line   00000f42  00000000  00000000  0002b5af  2**0
                  CONTENTS, READONLY, DEBUGGING
 15 .debug_str    0008068e  00000000  00000000  0002c4f1  2**0
                  CONTENTS, READONLY, DEBUGGING
 16 .debug_frame  000008d8  00000000  00000000  000acb80  2**2
                  CONTENTS, READONLY, DEBUGGING
 17 .stabstr      000000df  00000000  00000000  000ad458  2**0
                  CONTENTS, READONLY, DEBUGGING

Disassembly of section .text:

00008000 <exception_table>:
    8000:	08 28 00 20 63 81 00 00 61 81 00 00 61 81 00 00     .(. c...a...a...
	...
    802c:	61 81 00 00 00 00 00 00 00 00 00 00 61 81 00 00     a...........a...
    803c:	61 81 00 00 61 81 00 00 61 81 00 00 61 81 00 00     a...a...a...a...
    804c:	61 81 00 00 61 81 00 00 61 81 00 00 61 81 00 00     a...a...a...a...
    805c:	61 81 00 00 61 81 00 00 61 81 00 00 61 81 00 00     a...a...a...a...
    806c:	61 81 00 00 61 81 00 00 61 81 00 00 61 81 00 00     a...a...a...a...
    807c:	61 81 00 00 61 81 00 00 61 81 00 00 61 81 00 00     a...a...a...a...
    808c:	61 81 00 00 61 81 00 00 61 81 00 00 61 81 00 00     a...a...a...a...
    809c:	61 81 00 00 61 81 00 00 61 81 00 00 61 81 00 00     a...a...a...a...
    80ac:	61 81 00 00 61 81 00 00 61 81 00 00 61 81 00 00     a...a...a...a...
    80bc:	61 81 00 00 61 81 00 00 61 81 00 00 61 81 00 00     a...a...a...a...
    80cc:	6d 84 00 00 61 81 00 00 61 81 00 00 61 81 00 00     m...a...a...a...
    80dc:	61 81 00 00 61 81 00 00 61 81 00 00 61 81 00 00     a...a...a...a...
    80ec:	61 81 00 00 61 81 00 00                             a...a...

000080f4 <__do_global_dtors_aux>:
    80f4:	b510      	push	{r4, lr}
    80f6:	f242 14d0 	movw	r4, #8656	; 0x21d0
    80fa:	f2c2 0400 	movt	r4, #8192	; 0x2000
    80fe:	7823      	ldrb	r3, [r4, #0]
    8100:	b963      	cbnz	r3, 811c <__do_global_dtors_aux+0x28>
    8102:	f240 0300 	movw	r3, #0
    8106:	f2c0 0300 	movt	r3, #0
    810a:	b12b      	cbz	r3, 8118 <__do_global_dtors_aux+0x24>
    810c:	f649 003c 	movw	r0, #38972	; 0x983c
    8110:	f2c0 0000 	movt	r0, #0
    8114:	e000      	b.n	8118 <__do_global_dtors_aux+0x24>
    8116:	bf00      	nop
    8118:	2301      	movs	r3, #1
    811a:	7023      	strb	r3, [r4, #0]
    811c:	bd10      	pop	{r4, pc}
    811e:	46c0      	nop			; (mov r8, r8)

00008120 <frame_dummy>:
    8120:	f240 0300 	movw	r3, #0
    8124:	f2c0 0300 	movt	r3, #0
    8128:	b510      	push	{r4, lr}
    812a:	b14b      	cbz	r3, 8140 <frame_dummy+0x20>
    812c:	f242 11d4 	movw	r1, #8660	; 0x21d4
    8130:	f649 003c 	movw	r0, #38972	; 0x983c
    8134:	f2c2 0100 	movt	r1, #8192	; 0x2000
    8138:	f2c0 0000 	movt	r0, #0
    813c:	e000      	b.n	8140 <frame_dummy+0x20>
    813e:	bf00      	nop
    8140:	f649 003c 	movw	r0, #38972	; 0x983c
    8144:	f2c0 0000 	movt	r0, #0
    8148:	6803      	ldr	r3, [r0, #0]
    814a:	b903      	cbnz	r3, 814e <frame_dummy+0x2e>
    814c:	bd10      	pop	{r4, pc}
    814e:	f240 0300 	movw	r3, #0
    8152:	f2c0 0300 	movt	r3, #0
    8156:	2b00      	cmp	r3, #0
    8158:	d0f8      	beq.n	814c <frame_dummy+0x2c>
    815a:	4798      	blx	r3
    815c:	e7f6      	b.n	814c <frame_dummy+0x2c>
    815e:	46c0      	nop			; (mov r8, r8)

00008160 <Dummy_Handler>:

/**
 * \brief Default interrupt handler for unused IRQs.
 */
void Dummy_Handler(void)
{
    8160:	e7fe      	b.n	8160 <Dummy_Handler>

00008162 <Reset_Handler>:
{
    8162:	b510      	push	{r4, lr}
        if (pSrc != pDest) {
    8164:	f649 023c 	movw	r2, #38972	; 0x983c
    8168:	f2c0 0200 	movt	r2, #0
    816c:	f242 0300 	movw	r3, #8192	; 0x2000
    8170:	f2c2 0300 	movt	r3, #8192	; 0x2000
    8174:	429a      	cmp	r2, r3
    8176:	d012      	beq.n	819e <Reset_Handler+0x3c>
    8178:	f242 0300 	movw	r3, #8192	; 0x2000
    817c:	f2c2 0300 	movt	r3, #8192	; 0x2000
    8180:	f649 023c 	movw	r2, #38972	; 0x983c
    8184:	f2c0 0200 	movt	r2, #0
    8188:	e003      	b.n	8192 <Reset_Handler+0x30>
                        *pDest++ = *pSrc++;
    818a:	6811      	ldr	r1, [r2, #0]
    818c:	6019      	str	r1, [r3, #0]
    818e:	3304      	adds	r3, #4
    8190:	3204      	adds	r2, #4
                for (; pDest < &_erelocate;) {
    8192:	f242 11d0 	movw	r1, #8656	; 0x21d0
    8196:	f2c2 0100 	movt	r1, #8192	; 0x2000
    819a:	428b      	cmp	r3, r1
    819c:	d3f5      	bcc.n	818a <Reset_Handler+0x28>
                        *pDest++ = *pSrc++;
    819e:	f242 13d0 	movw	r3, #8656	; 0x21d0
    81a2:	f2c2 0300 	movt	r3, #8192	; 0x2000
    81a6:	e002      	b.n	81ae <Reset_Handler+0x4c>
                *pDest++ = 0;
    81a8:	2200      	movs	r2, #0
    81aa:	601a      	str	r2, [r3, #0]
    81ac:	3304      	adds	r3, #4
        for (pDest = &_szero; pDest < &_ezero;) {
    81ae:	f242 2204 	movw	r2, #8708	; 0x2204
    81b2:	f2c2 0200 	movt	r2, #8192	; 0x2000
    81b6:	4293      	cmp	r3, r2
    81b8:	d3f6      	bcc.n	81a8 <Reset_Handler+0x46>
        SCB->VTOR = ((uint32_t) pSrc & SCB_VTOR_TBLOFF_Msk);
    81ba:	f248 0300 	movw	r3, #32768	; 0x8000
    81be:	f2c0 0300 	movt	r3, #0
    81c2:	227f      	movs	r2, #127	; 0x7f
    81c4:	4393      	bics	r3, r2
    81c6:	f64e 5200 	movw	r2, #60672	; 0xed00
    81ca:	f2ce 0200 	movt	r2, #57344	; 0xe000
    81ce:	6093      	str	r3, [r2, #8]
        __libc_init_array();
    81d0:	f648 1385 	movw	r3, #35205	; 0x8985
    81d4:	f2c0 0300 	movt	r3, #0
    81d8:	4798      	blx	r3
        main();
    81da:	f248 4395 	movw	r3, #33941	; 0x8495
    81de:	f2c0 0300 	movt	r3, #0
    81e2:	4798      	blx	r3
    81e4:	e7fe      	b.n	81e4 <Reset_Handler+0x82>

000081e6 <timer_set_period>:
}

//-----------------------------------------------------------------------------
static void timer_set_period(uint16_t i)
{
	TC1->COUNT16.CC[0].reg = (F_CPU / 1000ul / 256) * i;
    81e6:	0143      	lsls	r3, r0, #5
    81e8:	1a18      	subs	r0, r3, r0
    81ea:	0043      	lsls	r3, r0, #1
    81ec:	b29a      	uxth	r2, r3
    81ee:	f241 4300 	movw	r3, #5120	; 0x1400
    81f2:	f2c4 2300 	movt	r3, #16896	; 0x4200
    81f6:	839a      	strh	r2, [r3, #28]

	TC1->COUNT16.COUNT.reg = 0;
    81f8:	2200      	movs	r2, #0
    81fa:	829a      	strh	r2, [r3, #20]
}
    81fc:	4770      	bx	lr

000081fe <timer_init>:

//-----------------------------------------------------------------------------
static void timer_init(void)
{
    81fe:	b510      	push	{r4, lr}
	MCLK->APBCMASK.reg |= MCLK_APBCMASK_TC1;
    8200:	f640 0300 	movw	r3, #2048	; 0x800
    8204:	f2c4 0300 	movt	r3, #16384	; 0x4000
    8208:	69da      	ldr	r2, [r3, #28]
    820a:	2120      	movs	r1, #32
    820c:	430a      	orrs	r2, r1
    820e:	61da      	str	r2, [r3, #28]

	GCLK->PCHCTRL[TC1_GCLK_ID].reg = GCLK_PCHCTRL_GEN(0) | GCLK_PCHCTRL_CHEN;
    8210:	f641 4300 	movw	r3, #7168	; 0x1c00
    8214:	f2c4 0300 	movt	r3, #16384	; 0x4000
    8218:	3120      	adds	r1, #32
    821a:	22b8      	movs	r2, #184	; 0xb8
    821c:	5099      	str	r1, [r3, r2]
	while (0 == (GCLK->PCHCTRL[TC1_GCLK_ID].reg & GCLK_PCHCTRL_CHEN));
    821e:	f641 4300 	movw	r3, #7168	; 0x1c00
    8222:	f2c4 0300 	movt	r3, #16384	; 0x4000
    8226:	22b8      	movs	r2, #184	; 0xb8
    8228:	589b      	ldr	r3, [r3, r2]
    822a:	065b      	lsls	r3, r3, #25
    822c:	d5f7      	bpl.n	821e <timer_init+0x20>

	TC1->COUNT16.CTRLA.reg = TC_CTRLA_MODE_COUNT16 | TC_CTRLA_PRESCALER_DIV256 |
    822e:	f241 4400 	movw	r4, #5120	; 0x1400
    8232:	f2c4 2400 	movt	r4, #16896	; 0x4200
    8236:	f240 6320 	movw	r3, #1568	; 0x620
    823a:	6023      	str	r3, [r4, #0]
	TC_CTRLA_PRESCSYNC_RESYNC;

	TC1->COUNT16.WAVE.reg = TC_WAVE_WAVEGEN_MFRQ;
    823c:	2301      	movs	r3, #1
    823e:	7323      	strb	r3, [r4, #12]

	TC1->COUNT16.COUNT.reg = 0;
    8240:	2300      	movs	r3, #0
    8242:	82a3      	strh	r3, [r4, #20]

	timer_set_period(PERIOD_FAST);
    8244:	2064      	movs	r0, #100	; 0x64
    8246:	f248 13e7 	movw	r3, #33255	; 0x81e7
    824a:	f2c0 0300 	movt	r3, #0
    824e:	4798      	blx	r3

	TC1->COUNT16.CTRLA.reg |= TC_CTRLA_ENABLE;
    8250:	6823      	ldr	r3, [r4, #0]
    8252:	2202      	movs	r2, #2
    8254:	4313      	orrs	r3, r2
    8256:	6023      	str	r3, [r4, #0]

	TC1->COUNT16.INTENSET.reg = TC_INTENSET_MC(1);
    8258:	2310      	movs	r3, #16
    825a:	7263      	strb	r3, [r4, #9]
 */
__STATIC_INLINE void __NVIC_EnableIRQ(IRQn_Type IRQn)
{
  if ((int32_t)(IRQn) >= 0)
  {
    NVIC->ISER[(((uint32_t)IRQn) >> 5UL)] = (uint32_t)(1UL << (((uint32_t)IRQn) & 0x1FUL));
    825c:	f24e 1300 	movw	r3, #57600	; 0xe100
    8260:	f2ce 0300 	movt	r3, #57344	; 0xe000
    8264:	3206      	adds	r2, #6
    8266:	605a      	str	r2, [r3, #4]
	NVIC_EnableIRQ(TC1_IRQn);
}
    8268:	bd10      	pop	{r4, pc}

0000826a <uart_init>:

//-----------------------------------------------------------------------------
static void uart_init(uint32_t baud)
{
    826a:	b570      	push	{r4, r5, r6, lr}
	uint64_t br = (uint64_t)65536 * (F_CPU - 16 * baud) / F_CPU;
    826c:	0703      	lsls	r3, r0, #28
    826e:	1a1b      	subs	r3, r3, r0
    8270:	0118      	lsls	r0, r3, #4
    8272:	f242 4c00 	movw	ip, #9216	; 0x2400
    8276:	f2c0 0cf4 	movt	ip, #244	; 0xf4
    827a:	4460      	add	r0, ip
    827c:	0c01      	lsrs	r1, r0, #16
    827e:	0400      	lsls	r0, r0, #16
    8280:	f248 5451 	movw	r4, #34129	; 0x8551
    8284:	f2c0 0400 	movt	r4, #0
    8288:	f242 4200 	movw	r2, #9216	; 0x2400
    828c:	f2c0 02f4 	movt	r2, #244	; 0xf4
    8290:	2300      	movs	r3, #0
    8292:	47a0      	blx	r4
HAL_GPIO_PIN(UART_TX,  A, 24)
    8294:	f243 0300 	movw	r3, #12288	; 0x3000
    8298:	f2c4 0300 	movt	r3, #16384	; 0x4000
    829c:	2280      	movs	r2, #128	; 0x80
    829e:	0452      	lsls	r2, r2, #17
    82a0:	609a      	str	r2, [r3, #8]
    82a2:	2458      	movs	r4, #88	; 0x58
    82a4:	5d1a      	ldrb	r2, [r3, r4]
    82a6:	2102      	movs	r1, #2
    82a8:	430a      	orrs	r2, r1
    82aa:	b2d2      	uxtb	r2, r2
    82ac:	551a      	strb	r2, [r3, r4]
    82ae:	5d1a      	ldrb	r2, [r3, r4]
    82b0:	2601      	movs	r6, #1
    82b2:	4332      	orrs	r2, r6
    82b4:	b2d2      	uxtb	r2, r2
    82b6:	551a      	strb	r2, [r3, r4]
    82b8:	253c      	movs	r5, #60	; 0x3c
    82ba:	5d5a      	ldrb	r2, [r3, r5]
    82bc:	3c49      	subs	r4, #73	; 0x49
    82be:	43a2      	bics	r2, r4
    82c0:	430a      	orrs	r2, r1
    82c2:	555a      	strb	r2, [r3, r5]
HAL_GPIO_PIN(UART_RX,  A, 25)
    82c4:	2280      	movs	r2, #128	; 0x80
    82c6:	0492      	lsls	r2, r2, #18
    82c8:	605a      	str	r2, [r3, #4]
    82ca:	2259      	movs	r2, #89	; 0x59
    82cc:	5c9c      	ldrb	r4, [r3, r2]
    82ce:	430c      	orrs	r4, r1
    82d0:	b2e4      	uxtb	r4, r4
    82d2:	549c      	strb	r4, [r3, r2]
    82d4:	5c99      	ldrb	r1, [r3, r2]
    82d6:	2404      	movs	r4, #4
    82d8:	43a1      	bics	r1, r4
    82da:	5499      	strb	r1, [r3, r2]
    82dc:	5c99      	ldrb	r1, [r3, r2]
    82de:	4331      	orrs	r1, r6
    82e0:	b2c9      	uxtb	r1, r1
    82e2:	5499      	strb	r1, [r3, r2]
    82e4:	5d59      	ldrb	r1, [r3, r5]
    82e6:	3a4a      	subs	r2, #74	; 0x4a
    82e8:	400a      	ands	r2, r1
    82ea:	2120      	movs	r1, #32
    82ec:	430a      	orrs	r2, r1
    82ee:	555a      	strb	r2, [r3, r5]
	HAL_GPIO_UART_TX_out();
	HAL_GPIO_UART_TX_pmuxen(HAL_GPIO_PMUX_C);
	HAL_GPIO_UART_RX_in();
	HAL_GPIO_UART_RX_pmuxen(HAL_GPIO_PMUX_C);

	MCLK->APBCMASK.reg |= MCLK_APBCMASK_SERCOM0;
    82f0:	f640 0300 	movw	r3, #2048	; 0x800
    82f4:	f2c4 0300 	movt	r3, #16384	; 0x4000
    82f8:	69da      	ldr	r2, [r3, #28]
    82fa:	2102      	movs	r1, #2
    82fc:	430a      	orrs	r2, r1
    82fe:	61da      	str	r2, [r3, #28]

	GCLK->PCHCTRL[SERCOM0_GCLK_ID_CORE].reg = GCLK_PCHCTRL_GEN(0) | GCLK_PCHCTRL_CHEN;
    8300:	f641 4300 	movw	r3, #7168	; 0x1c00
    8304:	f2c4 0300 	movt	r3, #16384	; 0x4000
    8308:	313e      	adds	r1, #62	; 0x3e
    830a:	22ac      	movs	r2, #172	; 0xac
    830c:	5099      	str	r1, [r3, r2]
	while (0 == (GCLK->PCHCTRL[SERCOM0_GCLK_ID_CORE].reg & GCLK_PCHCTRL_CHEN));
    830e:	f641 4300 	movw	r3, #7168	; 0x1c00
    8312:	f2c4 0300 	movt	r3, #16384	; 0x4000
    8316:	22ac      	movs	r2, #172	; 0xac
    8318:	589b      	ldr	r3, [r3, r2]
    831a:	065b      	lsls	r3, r3, #25
    831c:	d5f7      	bpl.n	830e <uart_init+0xa4>

	SERCOM0->USART.CTRLA.reg =
    831e:	f240 4300 	movw	r3, #1024	; 0x400
    8322:	f2c4 2300 	movt	r3, #16896	; 0x4200
    8326:	3aa8      	subs	r2, #168	; 0xa8
    8328:	f2c4 0231 	movt	r2, #16433	; 0x4031
    832c:	601a      	str	r2, [r3, #0]
	SERCOM_USART_CTRLA_DORD | SERCOM_USART_CTRLA_MODE(1/*USART_INT_CLK*/) |
	SERCOM_USART_CTRLA_RXPO(3/*PAD3*/) | SERCOM_USART_CTRLA_TXPO(1/*PAD2*/);

	SERCOM0->USART.CTRLB.reg = SERCOM_USART_CTRLB_RXEN | SERCOM_USART_CTRLB_TXEN |
    832e:	22c0      	movs	r2, #192	; 0xc0
    8330:	0292      	lsls	r2, r2, #10
    8332:	605a      	str	r2, [r3, #4]
	SERCOM_USART_CTRLB_CHSIZE(0/*8 bits*/);

	SERCOM0->USART.BAUD.reg = (uint16_t)br;
    8334:	b280      	uxth	r0, r0
    8336:	8198      	strh	r0, [r3, #12]

	SERCOM0->USART.CTRLA.reg |= SERCOM_USART_CTRLA_ENABLE;
    8338:	681a      	ldr	r2, [r3, #0]
    833a:	2102      	movs	r1, #2
    833c:	430a      	orrs	r2, r1
    833e:	601a      	str	r2, [r3, #0]
	
	while (SERCOM0->USART.SYNCBUSY.reg & SERCOM_USART_SYNCBUSY_ENABLE);
    8340:	f240 4300 	movw	r3, #1024	; 0x400
    8344:	f2c4 2300 	movt	r3, #16896	; 0x4200
    8348:	69db      	ldr	r3, [r3, #28]
    834a:	079b      	lsls	r3, r3, #30
    834c:	d4f8      	bmi.n	8340 <uart_init+0xd6>
}
    834e:	bd70      	pop	{r4, r5, r6, pc}

00008350 <uart_putc>:

//-----------------------------------------------------------------------------
static void uart_putc(char c)
{
	while (!(SERCOM0->USART.INTFLAG.reg & SERCOM_USART_INTFLAG_DRE));
    8350:	f240 4300 	movw	r3, #1024	; 0x400
    8354:	f2c4 2300 	movt	r3, #16896	; 0x4200
    8358:	7e1b      	ldrb	r3, [r3, #24]
    835a:	07db      	lsls	r3, r3, #31
    835c:	d5f8      	bpl.n	8350 <uart_putc>
	SERCOM0->USART.DATA.reg = c;
    835e:	b280      	uxth	r0, r0
    8360:	f240 4300 	movw	r3, #1024	; 0x400
    8364:	f2c4 2300 	movt	r3, #16896	; 0x4200
    8368:	8518      	strh	r0, [r3, #40]	; 0x28
}
    836a:	4770      	bx	lr

0000836c <uart_puts>:

//-----------------------------------------------------------------------------
static void uart_puts(char *s)
{
    836c:	b510      	push	{r4, lr}
    836e:	0004      	movs	r4, r0
	while (*s)
    8370:	e005      	b.n	837e <uart_puts+0x12>
	uart_putc(*s++);
    8372:	3401      	adds	r4, #1
    8374:	f248 3351 	movw	r3, #33617	; 0x8351
    8378:	f2c0 0300 	movt	r3, #0
    837c:	4798      	blx	r3
	while (*s)
    837e:	7820      	ldrb	r0, [r4, #0]
    8380:	2800      	cmp	r0, #0
    8382:	d1f6      	bne.n	8372 <uart_puts+0x6>
}
    8384:	bd10      	pop	{r4, pc}

00008386 <uart_puti>:

static void uart_puti(int i)
{
    8386:	b510      	push	{r4, lr}
    8388:	b084      	sub	sp, #16
	char s[11];
	int last = 0;
    838a:	2400      	movs	r4, #0
    838c:	e000      	b.n	8390 <uart_puti+0xa>
	do {
		s[last] = i%10 + '0';
		i = i/10;
		last++;
    838e:	001c      	movs	r4, r3
		s[last] = i%10 + '0';
    8390:	230a      	movs	r3, #10
    8392:	fb90 f3f3 	sdiv	r3, r0, r3
    8396:	009a      	lsls	r2, r3, #2
    8398:	18d2      	adds	r2, r2, r3
    839a:	0051      	lsls	r1, r2, #1
    839c:	1a40      	subs	r0, r0, r1
    839e:	3030      	adds	r0, #48	; 0x30
    83a0:	aa01      	add	r2, sp, #4
    83a2:	5510      	strb	r0, [r2, r4]
		i = i/10;
    83a4:	0018      	movs	r0, r3
		last++;
    83a6:	1c63      	adds	r3, r4, #1
	} while(i > 0);
    83a8:	2800      	cmp	r0, #0
    83aa:	dcf0      	bgt.n	838e <uart_puti+0x8>
    83ac:	e007      	b.n	83be <uart_puti+0x38>
	
	for(int j=last-1; j>=0; j--) {
		uart_putc(s[j]);
    83ae:	ab01      	add	r3, sp, #4
    83b0:	5d18      	ldrb	r0, [r3, r4]
    83b2:	f248 3351 	movw	r3, #33617	; 0x8351
    83b6:	f2c0 0300 	movt	r3, #0
    83ba:	4798      	blx	r3
	for(int j=last-1; j>=0; j--) {
    83bc:	3c01      	subs	r4, #1
    83be:	2c00      	cmp	r4, #0
    83c0:	daf5      	bge.n	83ae <uart_puti+0x28>
	}
}
    83c2:	b004      	add	sp, #16
    83c4:	bd10      	pop	{r4, pc}

000083c6 <uart_getc>:


static char uart_getc()
{
	char rx;
	while(!(SERCOM0->USART.INTFLAG.reg & SERCOM_USART_INTFLAG_RXC))   /* wait until Rx full */
    83c6:	f240 4300 	movw	r3, #1024	; 0x400
    83ca:	f2c4 2300 	movt	r3, #16896	; 0x4200
    83ce:	7e1b      	ldrb	r3, [r3, #24]
    83d0:	075b      	lsls	r3, r3, #29
    83d2:	d411      	bmi.n	83f8 <uart_getc+0x32>
	{
		if(SERCOM0->USART.INTFLAG.reg & SERCOM_USART_INTFLAG_ERROR)
    83d4:	f240 4300 	movw	r3, #1024	; 0x400
    83d8:	f2c4 2300 	movt	r3, #16896	; 0x4200
    83dc:	7e1b      	ldrb	r3, [r3, #24]
    83de:	b25b      	sxtb	r3, r3
    83e0:	2b00      	cmp	r3, #0
    83e2:	daf0      	bge.n	83c6 <uart_getc>
		{
			SERCOM0->USART.INTFLAG.reg |= SERCOM_USART_INTFLAG_ERROR; /* clear any errors */
    83e4:	f240 4200 	movw	r2, #1024	; 0x400
    83e8:	f2c4 2200 	movt	r2, #16896	; 0x4200
    83ec:	7e13      	ldrb	r3, [r2, #24]
    83ee:	2180      	movs	r1, #128	; 0x80
    83f0:	4249      	negs	r1, r1
    83f2:	430b      	orrs	r3, r1
    83f4:	b2db      	uxtb	r3, r3
    83f6:	7613      	strb	r3, [r2, #24]
			break;
		}
	}
	rx = (uint8_t)SERCOM0->USART.DATA.reg;
    83f8:	f240 4300 	movw	r3, #1024	; 0x400
    83fc:	f2c4 2300 	movt	r3, #16896	; 0x4200
    8400:	8d18      	ldrh	r0, [r3, #40]	; 0x28
    8402:	b2c0      	uxtb	r0, r0
	return rx;
}
    8404:	4770      	bx	lr

00008406 <uart_gets>:

static void uart_gets(char* s) {
    8406:	b5f8      	push	{r3, r4, r5, r6, r7, lr}
    8408:	0007      	movs	r7, r0
	int idx=0;
    840a:	2500      	movs	r5, #0
	while(true) {
		char c = uart_getc();
    840c:	f248 33c7 	movw	r3, #33735	; 0x83c7
    8410:	f2c0 0300 	movt	r3, #0
    8414:	4798      	blx	r3
    8416:	0004      	movs	r4, r0
		uart_putc(c);
    8418:	f248 3351 	movw	r3, #33617	; 0x8351
    841c:	f2c0 0300 	movt	r3, #0
    8420:	4798      	blx	r3
		// enter key
		if(c==13) {
    8422:	2c0d      	cmp	r4, #13
    8424:	d002      	beq.n	842c <uart_gets+0x26>
			uart_putc('A');
			s[idx] = 0;
			break;
		}
		s[idx] = c;
    8426:	557c      	strb	r4, [r7, r5]
		idx++;
    8428:	3501      	adds	r5, #1
	while(true) {
    842a:	e7ef      	b.n	840c <uart_gets+0x6>
			uart_putc('A');
    842c:	2041      	movs	r0, #65	; 0x41
    842e:	f248 3351 	movw	r3, #33617	; 0x8351
    8432:	f2c0 0300 	movt	r3, #0
    8436:	4798      	blx	r3
			s[idx] = 0;
    8438:	197d      	adds	r5, r7, r5
    843a:	2300      	movs	r3, #0
    843c:	702b      	strb	r3, [r5, #0]
	}
}
    843e:	bdf8      	pop	{r3, r4, r5, r6, r7, pc}

00008440 <uart_geti>:

static int uart_geti() {
    8440:	b500      	push	{lr}
    8442:	b085      	sub	sp, #20
	char s[10];
	uart_gets(&s);
    8444:	a801      	add	r0, sp, #4
    8446:	f248 4307 	movw	r3, #33799	; 0x8407
    844a:	f2c0 0300 	movt	r3, #0
    844e:	4798      	blx	r3
	int out;
	sscanf(s, "%d", &out);
    8450:	f249 6114 	movw	r1, #38420	; 0x9614
    8454:	f2c0 0100 	movt	r1, #0
    8458:	466a      	mov	r2, sp
    845a:	a801      	add	r0, sp, #4
    845c:	f648 13d5 	movw	r3, #35285	; 0x89d5
    8460:	f2c0 0300 	movt	r3, #0
    8464:	4798      	blx	r3
	return out;
}
    8466:	9800      	ldr	r0, [sp, #0]
    8468:	b005      	add	sp, #20
    846a:	bd00      	pop	{pc}

0000846c <TC1_Handler>:
	if (TC1->COUNT16.INTFLAG.reg & TC_INTFLAG_MC(1))
    846c:	f241 4300 	movw	r3, #5120	; 0x1400
    8470:	f2c4 2300 	movt	r3, #16896	; 0x4200
    8474:	7a9b      	ldrb	r3, [r3, #10]
    8476:	06db      	lsls	r3, r3, #27
    8478:	d50b      	bpl.n	8492 <TC1_Handler+0x26>
HAL_GPIO_PIN(LED,      A, 7)
    847a:	f243 0300 	movw	r3, #12288	; 0x3000
    847e:	f2c4 0300 	movt	r3, #16384	; 0x4000
    8482:	2280      	movs	r2, #128	; 0x80
    8484:	61da      	str	r2, [r3, #28]
		TC1->COUNT16.INTFLAG.reg = TC_INTFLAG_MC(1);
    8486:	f241 4300 	movw	r3, #5120	; 0x1400
    848a:	f2c4 2300 	movt	r3, #16896	; 0x4200
    848e:	3a70      	subs	r2, #112	; 0x70
    8490:	729a      	strb	r2, [r3, #10]
}
    8492:	4770      	bx	lr

00008494 <main>:


/* Non-Secure main() */
int main(void)
{
    8494:	b570      	push	{r4, r5, r6, lr}
	
	timer_init();
    8496:	f248 13ff 	movw	r3, #33279	; 0x81ff
    849a:	f2c0 0300 	movt	r3, #0
    849e:	4798      	blx	r3
	
	uart_init(115200);
    84a0:	20e1      	movs	r0, #225	; 0xe1
    84a2:	0240      	lsls	r0, r0, #9
    84a4:	f248 236b 	movw	r3, #33387	; 0x826b
    84a8:	f2c0 0300 	movt	r3, #0
    84ac:	4798      	blx	r3

	/* Call Non-Secure Callable Flash (APPLICATION region) function 1 */
	uart_puts("Enter number: ");
    84ae:	f249 6018 	movw	r0, #38424	; 0x9618
    84b2:	f2c0 0000 	movt	r0, #0
    84b6:	f248 346d 	movw	r4, #33645	; 0x836d
    84ba:	f2c0 0400 	movt	r4, #0
    84be:	47a0      	blx	r4
	int in = uart_geti();
    84c0:	f248 4341 	movw	r3, #33857	; 0x8441
    84c4:	f2c0 0300 	movt	r3, #0
    84c8:	4798      	blx	r3
    84ca:	0006      	movs	r6, r0
	uart_puts("\r\n");
    84cc:	f249 6028 	movw	r0, #38440	; 0x9628
    84d0:	f2c0 0000 	movt	r0, #0
    84d4:	47a0      	blx	r4
	val1 = secure_func1 (in);
    84d6:	0030      	movs	r0, r6
    84d8:	f647 4309 	movw	r3, #31753	; 0x7c09
    84dc:	f2c0 0300 	movt	r3, #0
    84e0:	4798      	blx	r3
    84e2:	f242 15fc 	movw	r5, #8700	; 0x21fc
    84e6:	f2c2 0500 	movt	r5, #8192	; 0x2000
    84ea:	6028      	str	r0, [r5, #0]
	
	/* Call Non-Secure Callable Flash (APPLICATION region) function 2 */
	val2 = secure_func2 (in);
    84ec:	0030      	movs	r0, r6
    84ee:	f647 4301 	movw	r3, #31745	; 0x7c01
    84f2:	f2c0 0300 	movt	r3, #0
    84f6:	4798      	blx	r3
    84f8:	f242 16f8 	movw	r6, #8696	; 0x21f8
    84fc:	f2c2 0600 	movt	r6, #8192	; 0x2000
    8500:	6030      	str	r0, [r6, #0]

	uart_puts("\r\nHello, non-secure world!\r\n Output: ");
    8502:	f249 602c 	movw	r0, #38444	; 0x962c
    8506:	f2c0 0000 	movt	r0, #0
    850a:	47a0      	blx	r4
	uart_puti(val1);
    850c:	6828      	ldr	r0, [r5, #0]
    850e:	f248 3587 	movw	r5, #33671	; 0x8387
    8512:	f2c0 0500 	movt	r5, #0
    8516:	47a8      	blx	r5
	uart_puts(" ");
    8518:	f249 6050 	movw	r0, #38480	; 0x9650
    851c:	f2c0 0000 	movt	r0, #0
    8520:	47a0      	blx	r4
	uart_puti(val2);
    8522:	6830      	ldr	r0, [r6, #0]
    8524:	47a8      	blx	r5
	uart_puts("\r\n non-secure world is going to sleep\n");
    8526:	f249 6054 	movw	r0, #38484	; 0x9654
    852a:	f2c0 0000 	movt	r0, #0
    852e:	47a0      	blx	r4
HAL_GPIO_PIN(LED,      A, 7)
    8530:	f243 0300 	movw	r3, #12288	; 0x3000
    8534:	f2c4 0300 	movt	r3, #16384	; 0x4000
    8538:	2180      	movs	r1, #128	; 0x80
    853a:	6099      	str	r1, [r3, #8]
    853c:	2047      	movs	r0, #71	; 0x47
    853e:	5c1a      	ldrb	r2, [r3, r0]
    8540:	2402      	movs	r4, #2
    8542:	4322      	orrs	r2, r4
    8544:	b2d2      	uxtb	r2, r2
    8546:	541a      	strb	r2, [r3, r0]
    8548:	6159      	str	r1, [r3, #20]
		volatile int ii=0;
		for(ii=0; ii<100000; ii++);
		HAL_GPIO_LED_toggle();
		uart_puts("\r\n non-secure world is going to sleep\n");
	}*/
    854a:	2000      	movs	r0, #0
    854c:	bd70      	pop	{r4, r5, r6, pc}
	...

00008550 <__aeabi_uldivmod>:
    8550:	2b00      	cmp	r3, #0
    8552:	d111      	bne.n	8578 <__aeabi_uldivmod+0x28>
    8554:	2a00      	cmp	r2, #0
    8556:	d10f      	bne.n	8578 <__aeabi_uldivmod+0x28>
    8558:	2900      	cmp	r1, #0
    855a:	d100      	bne.n	855e <__aeabi_uldivmod+0xe>
    855c:	2800      	cmp	r0, #0
    855e:	d002      	beq.n	8566 <__aeabi_uldivmod+0x16>
    8560:	2100      	movs	r1, #0
    8562:	43c9      	mvns	r1, r1
    8564:	1c08      	adds	r0, r1, #0
    8566:	b407      	push	{r0, r1, r2}
    8568:	4802      	ldr	r0, [pc, #8]	; (8574 <__aeabi_uldivmod+0x24>)
    856a:	a102      	add	r1, pc, #8	; (adr r1, 8574 <__aeabi_uldivmod+0x24>)
    856c:	1840      	adds	r0, r0, r1
    856e:	9002      	str	r0, [sp, #8]
    8570:	bd03      	pop	{r0, r1, pc}
    8572:	46c0      	nop			; (mov r8, r8)
    8574:	000003d1 	.word	0x000003d1
    8578:	b403      	push	{r0, r1}
    857a:	4668      	mov	r0, sp
    857c:	b501      	push	{r0, lr}
    857e:	9802      	ldr	r0, [sp, #8]
    8580:	f000 f806 	bl	8590 <__udivmoddi4>
    8584:	9b01      	ldr	r3, [sp, #4]
    8586:	469e      	mov	lr, r3
    8588:	b002      	add	sp, #8
    858a:	bc0c      	pop	{r2, r3}
    858c:	4770      	bx	lr
    858e:	46c0      	nop			; (mov r8, r8)

00008590 <__udivmoddi4>:
    8590:	b5f0      	push	{r4, r5, r6, r7, lr}
    8592:	4657      	mov	r7, sl
    8594:	4645      	mov	r5, r8
    8596:	46de      	mov	lr, fp
    8598:	464e      	mov	r6, r9
    859a:	4698      	mov	r8, r3
    859c:	b5e0      	push	{r5, r6, r7, lr}
    859e:	b083      	sub	sp, #12
    85a0:	0017      	movs	r7, r2
    85a2:	9201      	str	r2, [sp, #4]
    85a4:	0016      	movs	r6, r2
    85a6:	4642      	mov	r2, r8
    85a8:	0005      	movs	r5, r0
    85aa:	000c      	movs	r4, r1
    85ac:	4683      	mov	fp, r0
    85ae:	468a      	mov	sl, r1
    85b0:	2a00      	cmp	r2, #0
    85b2:	d14c      	bne.n	864e <__udivmoddi4+0xbe>
    85b4:	428f      	cmp	r7, r1
    85b6:	d800      	bhi.n	85ba <__udivmoddi4+0x2a>
    85b8:	e078      	b.n	86ac <__udivmoddi4+0x11c>
    85ba:	0038      	movs	r0, r7
    85bc:	f000 f9c4 	bl	8948 <__clzsi2>
    85c0:	b150      	cbz	r0, 85d8 <__udivmoddi4+0x48>
    85c2:	2320      	movs	r3, #32
    85c4:	002a      	movs	r2, r5
    85c6:	1a1b      	subs	r3, r3, r0
    85c8:	40da      	lsrs	r2, r3
    85ca:	4084      	lsls	r4, r0
    85cc:	0013      	movs	r3, r2
    85ce:	4085      	lsls	r5, r0
    85d0:	4323      	orrs	r3, r4
    85d2:	4086      	lsls	r6, r0
    85d4:	469a      	mov	sl, r3
    85d6:	46ab      	mov	fp, r5
    85d8:	0c37      	lsrs	r7, r6, #16
    85da:	fbba f2f7 	udiv	r2, sl, r7
    85de:	0039      	movs	r1, r7
    85e0:	4653      	mov	r3, sl
    85e2:	f64f 74ff 	movw	r4, #65535	; 0xffff
    85e6:	4351      	muls	r1, r2
    85e8:	0015      	movs	r5, r2
    85ea:	1a59      	subs	r1, r3, r1
    85ec:	465b      	mov	r3, fp
    85ee:	4034      	ands	r4, r6
    85f0:	4365      	muls	r5, r4
    85f2:	0409      	lsls	r1, r1, #16
    85f4:	0c1b      	lsrs	r3, r3, #16
    85f6:	430b      	orrs	r3, r1
    85f8:	429d      	cmp	r5, r3
    85fa:	d909      	bls.n	8610 <__udivmoddi4+0x80>
    85fc:	199b      	adds	r3, r3, r6
    85fe:	1e51      	subs	r1, r2, #1
    8600:	429e      	cmp	r6, r3
    8602:	d900      	bls.n	8606 <__udivmoddi4+0x76>
    8604:	e17c      	b.n	8900 <__udivmoddi4+0x370>
    8606:	429d      	cmp	r5, r3
    8608:	d800      	bhi.n	860c <__udivmoddi4+0x7c>
    860a:	e179      	b.n	8900 <__udivmoddi4+0x370>
    860c:	3a02      	subs	r2, #2
    860e:	199b      	adds	r3, r3, r6
    8610:	1b59      	subs	r1, r3, r5
    8612:	fbb1 f3f7 	udiv	r3, r1, r7
    8616:	435c      	muls	r4, r3
    8618:	435f      	muls	r7, r3
    861a:	0025      	movs	r5, r4
    861c:	1bc9      	subs	r1, r1, r7
    861e:	f64f 74ff 	movw	r4, #65535	; 0xffff
    8622:	465f      	mov	r7, fp
    8624:	0409      	lsls	r1, r1, #16
    8626:	403c      	ands	r4, r7
    8628:	430c      	orrs	r4, r1
    862a:	42a5      	cmp	r5, r4
    862c:	d900      	bls.n	8630 <__udivmoddi4+0xa0>
    862e:	e15c      	b.n	88ea <__udivmoddi4+0x35a>
    8630:	0412      	lsls	r2, r2, #16
    8632:	4313      	orrs	r3, r2
    8634:	2200      	movs	r2, #0
    8636:	1b64      	subs	r4, r4, r5
    8638:	9201      	str	r2, [sp, #4]
    863a:	9a0c      	ldr	r2, [sp, #48]	; 0x30
    863c:	b12a      	cbz	r2, 864a <__udivmoddi4+0xba>
    863e:	40c4      	lsrs	r4, r0
    8640:	9a0c      	ldr	r2, [sp, #48]	; 0x30
    8642:	980c      	ldr	r0, [sp, #48]	; 0x30
    8644:	6014      	str	r4, [r2, #0]
    8646:	2200      	movs	r2, #0
    8648:	6042      	str	r2, [r0, #4]
    864a:	0018      	movs	r0, r3
    864c:	e00a      	b.n	8664 <__udivmoddi4+0xd4>
    864e:	4588      	cmp	r8, r1
    8650:	d910      	bls.n	8674 <__udivmoddi4+0xe4>
    8652:	9b0c      	ldr	r3, [sp, #48]	; 0x30
    8654:	2b00      	cmp	r3, #0
    8656:	d100      	bne.n	865a <__udivmoddi4+0xca>
    8658:	e170      	b.n	893c <__udivmoddi4+0x3ac>
    865a:	6018      	str	r0, [r3, #0]
    865c:	6059      	str	r1, [r3, #4]
    865e:	2300      	movs	r3, #0
    8660:	2000      	movs	r0, #0
    8662:	9301      	str	r3, [sp, #4]
    8664:	9901      	ldr	r1, [sp, #4]
    8666:	b003      	add	sp, #12
    8668:	bc3c      	pop	{r2, r3, r4, r5}
    866a:	4690      	mov	r8, r2
    866c:	4699      	mov	r9, r3
    866e:	46a2      	mov	sl, r4
    8670:	46ab      	mov	fp, r5
    8672:	bdf0      	pop	{r4, r5, r6, r7, pc}
    8674:	4640      	mov	r0, r8
    8676:	f000 f967 	bl	8948 <__clzsi2>
    867a:	9001      	str	r0, [sp, #4]
    867c:	2800      	cmp	r0, #0
    867e:	d000      	beq.n	8682 <__udivmoddi4+0xf2>
    8680:	e0a3      	b.n	87ca <__udivmoddi4+0x23a>
    8682:	45a0      	cmp	r8, r4
    8684:	d302      	bcc.n	868c <__udivmoddi4+0xfc>
    8686:	42af      	cmp	r7, r5
    8688:	d900      	bls.n	868c <__udivmoddi4+0xfc>
    868a:	e151      	b.n	8930 <__udivmoddi4+0x3a0>
    868c:	1bef      	subs	r7, r5, r7
    868e:	4643      	mov	r3, r8
    8690:	42bd      	cmp	r5, r7
    8692:	41ad      	sbcs	r5, r5
    8694:	1ae4      	subs	r4, r4, r3
    8696:	426d      	negs	r5, r5
    8698:	1b63      	subs	r3, r4, r5
    869a:	469a      	mov	sl, r3
    869c:	2001      	movs	r0, #1
    869e:	9b0c      	ldr	r3, [sp, #48]	; 0x30
    86a0:	2b00      	cmp	r3, #0
    86a2:	d0df      	beq.n	8664 <__udivmoddi4+0xd4>
    86a4:	4652      	mov	r2, sl
    86a6:	601f      	str	r7, [r3, #0]
    86a8:	605a      	str	r2, [r3, #4]
    86aa:	e7db      	b.n	8664 <__udivmoddi4+0xd4>
    86ac:	b917      	cbnz	r7, 86b4 <__udivmoddi4+0x124>
    86ae:	3601      	adds	r6, #1
    86b0:	fbb6 f6f7 	udiv	r6, r6, r7
    86b4:	0030      	movs	r0, r6
    86b6:	f000 f947 	bl	8948 <__clzsi2>
    86ba:	bbb8      	cbnz	r0, 872c <__udivmoddi4+0x19c>
    86bc:	f64f 77ff 	movw	r7, #65535	; 0xffff
    86c0:	2301      	movs	r3, #1
    86c2:	1ba5      	subs	r5, r4, r6
    86c4:	4037      	ands	r7, r6
    86c6:	0c34      	lsrs	r4, r6, #16
    86c8:	9301      	str	r3, [sp, #4]
    86ca:	fbb5 f3f4 	udiv	r3, r5, r4
    86ce:	003a      	movs	r2, r7
    86d0:	435a      	muls	r2, r3
    86d2:	4694      	mov	ip, r2
    86d4:	0022      	movs	r2, r4
    86d6:	435a      	muls	r2, r3
    86d8:	1aaa      	subs	r2, r5, r2
    86da:	465d      	mov	r5, fp
    86dc:	0412      	lsls	r2, r2, #16
    86de:	0c2d      	lsrs	r5, r5, #16
    86e0:	432a      	orrs	r2, r5
    86e2:	4594      	cmp	ip, r2
    86e4:	d907      	bls.n	86f6 <__udivmoddi4+0x166>
    86e6:	1992      	adds	r2, r2, r6
    86e8:	1e5d      	subs	r5, r3, #1
    86ea:	4296      	cmp	r6, r2
    86ec:	d802      	bhi.n	86f4 <__udivmoddi4+0x164>
    86ee:	4594      	cmp	ip, r2
    86f0:	d900      	bls.n	86f4 <__udivmoddi4+0x164>
    86f2:	e120      	b.n	8936 <__udivmoddi4+0x3a6>
    86f4:	002b      	movs	r3, r5
    86f6:	4665      	mov	r5, ip
    86f8:	1b52      	subs	r2, r2, r5
    86fa:	fbb2 f5f4 	udiv	r5, r2, r4
    86fe:	436c      	muls	r4, r5
    8700:	4659      	mov	r1, fp
    8702:	1b12      	subs	r2, r2, r4
    8704:	f64f 74ff 	movw	r4, #65535	; 0xffff
    8708:	436f      	muls	r7, r5
    870a:	0412      	lsls	r2, r2, #16
    870c:	400c      	ands	r4, r1
    870e:	4314      	orrs	r4, r2
    8710:	42a7      	cmp	r7, r4
    8712:	d907      	bls.n	8724 <__udivmoddi4+0x194>
    8714:	19a4      	adds	r4, r4, r6
    8716:	1e6a      	subs	r2, r5, #1
    8718:	42a6      	cmp	r6, r4
    871a:	d802      	bhi.n	8722 <__udivmoddi4+0x192>
    871c:	42a7      	cmp	r7, r4
    871e:	d900      	bls.n	8722 <__udivmoddi4+0x192>
    8720:	e103      	b.n	892a <__udivmoddi4+0x39a>
    8722:	0015      	movs	r5, r2
    8724:	041b      	lsls	r3, r3, #16
    8726:	1be4      	subs	r4, r4, r7
    8728:	432b      	orrs	r3, r5
    872a:	e786      	b.n	863a <__udivmoddi4+0xaa>
    872c:	2120      	movs	r1, #32
    872e:	002a      	movs	r2, r5
    8730:	0023      	movs	r3, r4
    8732:	1a09      	subs	r1, r1, r0
    8734:	4086      	lsls	r6, r0
    8736:	4084      	lsls	r4, r0
    8738:	40ca      	lsrs	r2, r1
    873a:	40cb      	lsrs	r3, r1
    873c:	4322      	orrs	r2, r4
    873e:	0c34      	lsrs	r4, r6, #16
    8740:	fbb3 f1f4 	udiv	r1, r3, r4
    8744:	4085      	lsls	r5, r0
    8746:	f64f 77ff 	movw	r7, #65535	; 0xffff
    874a:	46ab      	mov	fp, r5
    874c:	000d      	movs	r5, r1
    874e:	4037      	ands	r7, r6
    8750:	437d      	muls	r5, r7
    8752:	46ac      	mov	ip, r5
    8754:	0025      	movs	r5, r4
    8756:	434d      	muls	r5, r1
    8758:	1b5d      	subs	r5, r3, r5
    875a:	042d      	lsls	r5, r5, #16
    875c:	0c13      	lsrs	r3, r2, #16
    875e:	4691      	mov	r9, r2
    8760:	432b      	orrs	r3, r5
    8762:	459c      	cmp	ip, r3
    8764:	d909      	bls.n	877a <__udivmoddi4+0x1ea>
    8766:	199b      	adds	r3, r3, r6
    8768:	1e4d      	subs	r5, r1, #1
    876a:	429e      	cmp	r6, r3
    876c:	d900      	bls.n	8770 <__udivmoddi4+0x1e0>
    876e:	e0da      	b.n	8926 <__udivmoddi4+0x396>
    8770:	459c      	cmp	ip, r3
    8772:	d800      	bhi.n	8776 <__udivmoddi4+0x1e6>
    8774:	e0d7      	b.n	8926 <__udivmoddi4+0x396>
    8776:	3902      	subs	r1, #2
    8778:	199b      	adds	r3, r3, r6
    877a:	4662      	mov	r2, ip
    877c:	1a9b      	subs	r3, r3, r2
    877e:	fbb3 fcf4 	udiv	ip, r3, r4
    8782:	4662      	mov	r2, ip
    8784:	f64f 78ff 	movw	r8, #65535	; 0xffff
    8788:	4362      	muls	r2, r4
    878a:	1a9b      	subs	r3, r3, r2
    878c:	041b      	lsls	r3, r3, #16
    878e:	469a      	mov	sl, r3
    8790:	4642      	mov	r2, r8
    8792:	464b      	mov	r3, r9
    8794:	4665      	mov	r5, ip
    8796:	401a      	ands	r2, r3
    8798:	4653      	mov	r3, sl
    879a:	437d      	muls	r5, r7
    879c:	4313      	orrs	r3, r2
    879e:	429d      	cmp	r5, r3
    87a0:	d90d      	bls.n	87be <__udivmoddi4+0x22e>
    87a2:	4662      	mov	r2, ip
    87a4:	199b      	adds	r3, r3, r6
    87a6:	3a01      	subs	r2, #1
    87a8:	429e      	cmp	r6, r3
    87aa:	d900      	bls.n	87ae <__udivmoddi4+0x21e>
    87ac:	e0b7      	b.n	891e <__udivmoddi4+0x38e>
    87ae:	429d      	cmp	r5, r3
    87b0:	d800      	bhi.n	87b4 <__udivmoddi4+0x224>
    87b2:	e0b4      	b.n	891e <__udivmoddi4+0x38e>
    87b4:	2202      	movs	r2, #2
    87b6:	4252      	negs	r2, r2
    87b8:	4690      	mov	r8, r2
    87ba:	199b      	adds	r3, r3, r6
    87bc:	44c4      	add	ip, r8
    87be:	1b5d      	subs	r5, r3, r5
    87c0:	4663      	mov	r3, ip
    87c2:	0409      	lsls	r1, r1, #16
    87c4:	4319      	orrs	r1, r3
    87c6:	9101      	str	r1, [sp, #4]
    87c8:	e77f      	b.n	86ca <__udivmoddi4+0x13a>
    87ca:	2320      	movs	r3, #32
    87cc:	9801      	ldr	r0, [sp, #4]
    87ce:	003a      	movs	r2, r7
    87d0:	1a1b      	subs	r3, r3, r0
    87d2:	469c      	mov	ip, r3
    87d4:	4643      	mov	r3, r8
    87d6:	4661      	mov	r1, ip
    87d8:	4083      	lsls	r3, r0
    87da:	40ca      	lsrs	r2, r1
    87dc:	4313      	orrs	r3, r2
    87de:	002a      	movs	r2, r5
    87e0:	0026      	movs	r6, r4
    87e2:	40ca      	lsrs	r2, r1
    87e4:	4084      	lsls	r4, r0
    87e6:	40ce      	lsrs	r6, r1
    87e8:	4322      	orrs	r2, r4
    87ea:	0c1c      	lsrs	r4, r3, #16
    87ec:	4087      	lsls	r7, r0
    87ee:	4085      	lsls	r5, r0
    87f0:	fbb6 f0f4 	udiv	r0, r6, r4
    87f4:	4691      	mov	r9, r2
    87f6:	f64f 72ff 	movw	r2, #65535	; 0xffff
    87fa:	0001      	movs	r1, r0
    87fc:	401a      	ands	r2, r3
    87fe:	4351      	muls	r1, r2
    8800:	4688      	mov	r8, r1
    8802:	0021      	movs	r1, r4
    8804:	4341      	muls	r1, r0
    8806:	1a76      	subs	r6, r6, r1
    8808:	4649      	mov	r1, r9
    880a:	0436      	lsls	r6, r6, #16
    880c:	0c09      	lsrs	r1, r1, #16
    880e:	430e      	orrs	r6, r1
    8810:	45b0      	cmp	r8, r6
    8812:	d909      	bls.n	8828 <__udivmoddi4+0x298>
    8814:	1e41      	subs	r1, r0, #1
    8816:	18f6      	adds	r6, r6, r3
    8818:	468a      	mov	sl, r1
    881a:	42b3      	cmp	r3, r6
    881c:	d900      	bls.n	8820 <__udivmoddi4+0x290>
    881e:	e080      	b.n	8922 <__udivmoddi4+0x392>
    8820:	45b0      	cmp	r8, r6
    8822:	d97e      	bls.n	8922 <__udivmoddi4+0x392>
    8824:	3802      	subs	r0, #2
    8826:	18f6      	adds	r6, r6, r3
    8828:	4641      	mov	r1, r8
    882a:	1a76      	subs	r6, r6, r1
    882c:	fbb6 f8f4 	udiv	r8, r6, r4
    8830:	4641      	mov	r1, r8
    8832:	434c      	muls	r4, r1
    8834:	434a      	muls	r2, r1
    8836:	1b36      	subs	r6, r6, r4
    8838:	4649      	mov	r1, r9
    883a:	f64f 74ff 	movw	r4, #65535	; 0xffff
    883e:	0436      	lsls	r6, r6, #16
    8840:	400c      	ands	r4, r1
    8842:	4334      	orrs	r4, r6
    8844:	42a2      	cmp	r2, r4
    8846:	d90b      	bls.n	8860 <__udivmoddi4+0x2d0>
    8848:	4641      	mov	r1, r8
    884a:	18e4      	adds	r4, r4, r3
    884c:	1e4e      	subs	r6, r1, #1
    884e:	42a3      	cmp	r3, r4
    8850:	d863      	bhi.n	891a <__udivmoddi4+0x38a>
    8852:	42a2      	cmp	r2, r4
    8854:	d961      	bls.n	891a <__udivmoddi4+0x38a>
    8856:	2102      	movs	r1, #2
    8858:	4249      	negs	r1, r1
    885a:	4689      	mov	r9, r1
    885c:	18e4      	adds	r4, r4, r3
    885e:	44c8      	add	r8, r9
    8860:	4641      	mov	r1, r8
    8862:	f64f 76ff 	movw	r6, #65535	; 0xffff
    8866:	0400      	lsls	r0, r0, #16
    8868:	4308      	orrs	r0, r1
    886a:	0031      	movs	r1, r6
    886c:	4001      	ands	r1, r0
    886e:	468a      	mov	sl, r1
    8870:	0c01      	lsrs	r1, r0, #16
    8872:	4688      	mov	r8, r1
    8874:	4651      	mov	r1, sl
    8876:	403e      	ands	r6, r7
    8878:	4371      	muls	r1, r6
    887a:	4689      	mov	r9, r1
    887c:	4641      	mov	r1, r8
    887e:	1aa2      	subs	r2, r4, r2
    8880:	0c3c      	lsrs	r4, r7, #16
    8882:	434e      	muls	r6, r1
    8884:	4361      	muls	r1, r4
    8886:	4688      	mov	r8, r1
    8888:	4651      	mov	r1, sl
    888a:	434c      	muls	r4, r1
    888c:	4649      	mov	r1, r9
    888e:	0c09      	lsrs	r1, r1, #16
    8890:	468a      	mov	sl, r1
    8892:	19a4      	adds	r4, r4, r6
    8894:	4454      	add	r4, sl
    8896:	42a6      	cmp	r6, r4
    8898:	d903      	bls.n	88a2 <__udivmoddi4+0x312>
    889a:	2180      	movs	r1, #128	; 0x80
    889c:	0249      	lsls	r1, r1, #9
    889e:	468a      	mov	sl, r1
    88a0:	44d0      	add	r8, sl
    88a2:	0c26      	lsrs	r6, r4, #16
    88a4:	4446      	add	r6, r8
    88a6:	f64f 78ff 	movw	r8, #65535	; 0xffff
    88aa:	0421      	lsls	r1, r4, #16
    88ac:	468a      	mov	sl, r1
    88ae:	464c      	mov	r4, r9
    88b0:	4641      	mov	r1, r8
    88b2:	4021      	ands	r1, r4
    88b4:	4689      	mov	r9, r1
    88b6:	4654      	mov	r4, sl
    88b8:	444c      	add	r4, r9
    88ba:	42b2      	cmp	r2, r6
    88bc:	d324      	bcc.n	8908 <__udivmoddi4+0x378>
    88be:	d021      	beq.n	8904 <__udivmoddi4+0x374>
    88c0:	9b0c      	ldr	r3, [sp, #48]	; 0x30
    88c2:	b183      	cbz	r3, 88e6 <__udivmoddi4+0x356>
    88c4:	1b2c      	subs	r4, r5, r4
    88c6:	42a5      	cmp	r5, r4
    88c8:	41ad      	sbcs	r5, r5
    88ca:	1b92      	subs	r2, r2, r6
    88cc:	426d      	negs	r5, r5
    88ce:	1b52      	subs	r2, r2, r5
    88d0:	0013      	movs	r3, r2
    88d2:	4661      	mov	r1, ip
    88d4:	408b      	lsls	r3, r1
    88d6:	9901      	ldr	r1, [sp, #4]
    88d8:	40cc      	lsrs	r4, r1
    88da:	40ca      	lsrs	r2, r1
    88dc:	431c      	orrs	r4, r3
    88de:	9b0c      	ldr	r3, [sp, #48]	; 0x30
    88e0:	601c      	str	r4, [r3, #0]
    88e2:	605a      	str	r2, [r3, #4]
    88e4:	2300      	movs	r3, #0
    88e6:	9301      	str	r3, [sp, #4]
    88e8:	e6bc      	b.n	8664 <__udivmoddi4+0xd4>
    88ea:	19a4      	adds	r4, r4, r6
    88ec:	1e59      	subs	r1, r3, #1
    88ee:	42a6      	cmp	r6, r4
    88f0:	d804      	bhi.n	88fc <__udivmoddi4+0x36c>
    88f2:	42a5      	cmp	r5, r4
    88f4:	d902      	bls.n	88fc <__udivmoddi4+0x36c>
    88f6:	3b02      	subs	r3, #2
    88f8:	19a4      	adds	r4, r4, r6
    88fa:	e699      	b.n	8630 <__udivmoddi4+0xa0>
    88fc:	000b      	movs	r3, r1
    88fe:	e697      	b.n	8630 <__udivmoddi4+0xa0>
    8900:	000a      	movs	r2, r1
    8902:	e685      	b.n	8610 <__udivmoddi4+0x80>
    8904:	42a5      	cmp	r5, r4
    8906:	d2db      	bcs.n	88c0 <__udivmoddi4+0x330>
    8908:	1be7      	subs	r7, r4, r7
    890a:	1af3      	subs	r3, r6, r3
    890c:	42bc      	cmp	r4, r7
    890e:	41b6      	sbcs	r6, r6
    8910:	4276      	negs	r6, r6
    8912:	3801      	subs	r0, #1
    8914:	1b9e      	subs	r6, r3, r6
    8916:	003c      	movs	r4, r7
    8918:	e7d2      	b.n	88c0 <__udivmoddi4+0x330>
    891a:	46b0      	mov	r8, r6
    891c:	e7a0      	b.n	8860 <__udivmoddi4+0x2d0>
    891e:	4694      	mov	ip, r2
    8920:	e74d      	b.n	87be <__udivmoddi4+0x22e>
    8922:	4650      	mov	r0, sl
    8924:	e780      	b.n	8828 <__udivmoddi4+0x298>
    8926:	0029      	movs	r1, r5
    8928:	e727      	b.n	877a <__udivmoddi4+0x1ea>
    892a:	3d02      	subs	r5, #2
    892c:	19a4      	adds	r4, r4, r6
    892e:	e6f9      	b.n	8724 <__udivmoddi4+0x194>
    8930:	2000      	movs	r0, #0
    8932:	002f      	movs	r7, r5
    8934:	e6b3      	b.n	869e <__udivmoddi4+0x10e>
    8936:	3b02      	subs	r3, #2
    8938:	1992      	adds	r2, r2, r6
    893a:	e6dc      	b.n	86f6 <__udivmoddi4+0x166>
    893c:	2300      	movs	r3, #0
    893e:	2000      	movs	r0, #0
    8940:	9301      	str	r3, [sp, #4]
    8942:	e68f      	b.n	8664 <__udivmoddi4+0xd4>

00008944 <__aeabi_idiv0>:
    8944:	4770      	bx	lr
    8946:	46c0      	nop			; (mov r8, r8)

00008948 <__clzsi2>:
    8948:	211c      	movs	r1, #28
    894a:	2301      	movs	r3, #1
    894c:	041b      	lsls	r3, r3, #16
    894e:	4298      	cmp	r0, r3
    8950:	d301      	bcc.n	8956 <__clzsi2+0xe>
    8952:	0c00      	lsrs	r0, r0, #16
    8954:	3910      	subs	r1, #16
    8956:	0a1b      	lsrs	r3, r3, #8
    8958:	4298      	cmp	r0, r3
    895a:	d301      	bcc.n	8960 <__clzsi2+0x18>
    895c:	0a00      	lsrs	r0, r0, #8
    895e:	3908      	subs	r1, #8
    8960:	091b      	lsrs	r3, r3, #4
    8962:	4298      	cmp	r0, r3
    8964:	d301      	bcc.n	896a <__clzsi2+0x22>
    8966:	0900      	lsrs	r0, r0, #4
    8968:	3904      	subs	r1, #4
    896a:	a202      	add	r2, pc, #8	; (adr r2, 8974 <__clzsi2+0x2c>)
    896c:	5c10      	ldrb	r0, [r2, r0]
    896e:	1840      	adds	r0, r0, r1
    8970:	4770      	bx	lr
    8972:	46c0      	nop			; (mov r8, r8)
    8974:	02020304 	.word	0x02020304
    8978:	01010101 	.word	0x01010101
	...

00008984 <__libc_init_array>:
    8984:	b570      	push	{r4, r5, r6, lr}
    8986:	2500      	movs	r5, #0
    8988:	4b0e      	ldr	r3, [pc, #56]	; (89c4 <__libc_init_array+0x40>)
    898a:	4c0f      	ldr	r4, [pc, #60]	; (89c8 <__libc_init_array+0x44>)
    898c:	1ae4      	subs	r4, r4, r3
    898e:	10a4      	asrs	r4, r4, #2
    8990:	42a5      	cmp	r5, r4
    8992:	d109      	bne.n	89a8 <__libc_init_array+0x24>
    8994:	2500      	movs	r5, #0
    8996:	f000 ff3d 	bl	9814 <_init>
    899a:	4c0c      	ldr	r4, [pc, #48]	; (89cc <__libc_init_array+0x48>)
    899c:	4b0c      	ldr	r3, [pc, #48]	; (89d0 <__libc_init_array+0x4c>)
    899e:	1ae4      	subs	r4, r4, r3
    89a0:	10a4      	asrs	r4, r4, #2
    89a2:	42a5      	cmp	r5, r4
    89a4:	d107      	bne.n	89b6 <__libc_init_array+0x32>
    89a6:	bd70      	pop	{r4, r5, r6, pc}
    89a8:	4a06      	ldr	r2, [pc, #24]	; (89c4 <__libc_init_array+0x40>)
    89aa:	00ab      	lsls	r3, r5, #2
    89ac:	189b      	adds	r3, r3, r2
    89ae:	681b      	ldr	r3, [r3, #0]
    89b0:	4798      	blx	r3
    89b2:	3501      	adds	r5, #1
    89b4:	e7ec      	b.n	8990 <__libc_init_array+0xc>
    89b6:	4a06      	ldr	r2, [pc, #24]	; (89d0 <__libc_init_array+0x4c>)
    89b8:	00ab      	lsls	r3, r5, #2
    89ba:	189b      	adds	r3, r3, r2
    89bc:	681b      	ldr	r3, [r3, #0]
    89be:	4798      	blx	r3
    89c0:	3501      	adds	r5, #1
    89c2:	e7ee      	b.n	89a2 <__libc_init_array+0x1e>
    89c4:	00009820 	.word	0x00009820
    89c8:	00009820 	.word	0x00009820
    89cc:	00009824 	.word	0x00009824
    89d0:	00009820 	.word	0x00009820

000089d4 <siscanf>:
    89d4:	b40e      	push	{r1, r2, r3}
    89d6:	f240 2304 	movw	r3, #516	; 0x204
    89da:	b570      	push	{r4, r5, r6, lr}
    89dc:	b09d      	sub	sp, #116	; 0x74
    89de:	ac02      	add	r4, sp, #8
    89e0:	ad21      	add	r5, sp, #132	; 0x84
    89e2:	cd40      	ldmia	r5!, {r6}
    89e4:	81a3      	strh	r3, [r4, #12]
    89e6:	9002      	str	r0, [sp, #8]
    89e8:	9006      	str	r0, [sp, #24]
    89ea:	f000 f81d 	bl	8a28 <strlen>
    89ee:	4b0b      	ldr	r3, [pc, #44]	; (8a1c <siscanf+0x48>)
    89f0:	6060      	str	r0, [r4, #4]
    89f2:	6263      	str	r3, [r4, #36]	; 0x24
    89f4:	2300      	movs	r3, #0
    89f6:	6160      	str	r0, [r4, #20]
    89f8:	4809      	ldr	r0, [pc, #36]	; (8a20 <siscanf+0x4c>)
    89fa:	6363      	str	r3, [r4, #52]	; 0x34
    89fc:	64a3      	str	r3, [r4, #72]	; 0x48
    89fe:	3b01      	subs	r3, #1
    8a00:	81e3      	strh	r3, [r4, #14]
    8a02:	0032      	movs	r2, r6
    8a04:	002b      	movs	r3, r5
    8a06:	0021      	movs	r1, r4
    8a08:	6800      	ldr	r0, [r0, #0]
    8a0a:	9501      	str	r5, [sp, #4]
    8a0c:	f000 f86a 	bl	8ae4 <__ssvfiscanf_r>
    8a10:	b01d      	add	sp, #116	; 0x74
    8a12:	bc70      	pop	{r4, r5, r6}
    8a14:	bc08      	pop	{r3}
    8a16:	b003      	add	sp, #12
    8a18:	4718      	bx	r3
    8a1a:	46c0      	nop			; (mov r8, r8)
    8a1c:	00008a25 	.word	0x00008a25
    8a20:	20002000 	.word	0x20002000

00008a24 <__seofread>:
    8a24:	2000      	movs	r0, #0
    8a26:	4770      	bx	lr

00008a28 <strlen>:
    8a28:	2300      	movs	r3, #0
    8a2a:	5cc2      	ldrb	r2, [r0, r3]
    8a2c:	3301      	adds	r3, #1
    8a2e:	2a00      	cmp	r2, #0
    8a30:	d1fb      	bne.n	8a2a <strlen+0x2>
    8a32:	1e58      	subs	r0, r3, #1
    8a34:	4770      	bx	lr

00008a36 <_sungetc_r>:
    8a36:	b570      	push	{r4, r5, r6, lr}
    8a38:	0014      	movs	r4, r2
    8a3a:	1c4b      	adds	r3, r1, #1
    8a3c:	d103      	bne.n	8a46 <_sungetc_r+0x10>
    8a3e:	2501      	movs	r5, #1
    8a40:	426d      	negs	r5, r5
    8a42:	0028      	movs	r0, r5
    8a44:	bd70      	pop	{r4, r5, r6, pc}
    8a46:	8993      	ldrh	r3, [r2, #12]
    8a48:	2220      	movs	r2, #32
    8a4a:	4393      	bics	r3, r2
    8a4c:	6b62      	ldr	r2, [r4, #52]	; 0x34
    8a4e:	81a3      	strh	r3, [r4, #12]
    8a50:	b2ce      	uxtb	r6, r1
    8a52:	b2cd      	uxtb	r5, r1
    8a54:	6863      	ldr	r3, [r4, #4]
    8a56:	b182      	cbz	r2, 8a7a <_sungetc_r+0x44>
    8a58:	6ba2      	ldr	r2, [r4, #56]	; 0x38
    8a5a:	4293      	cmp	r3, r2
    8a5c:	da07      	bge.n	8a6e <_sungetc_r+0x38>
    8a5e:	6823      	ldr	r3, [r4, #0]
    8a60:	3b01      	subs	r3, #1
    8a62:	6023      	str	r3, [r4, #0]
    8a64:	701e      	strb	r6, [r3, #0]
    8a66:	6863      	ldr	r3, [r4, #4]
    8a68:	3301      	adds	r3, #1
    8a6a:	6063      	str	r3, [r4, #4]
    8a6c:	e7e9      	b.n	8a42 <_sungetc_r+0xc>
    8a6e:	0021      	movs	r1, r4
    8a70:	f000 fc5e 	bl	9330 <__submore>
    8a74:	2800      	cmp	r0, #0
    8a76:	d0f2      	beq.n	8a5e <_sungetc_r+0x28>
    8a78:	e7e1      	b.n	8a3e <_sungetc_r+0x8>
    8a7a:	6921      	ldr	r1, [r4, #16]
    8a7c:	6822      	ldr	r2, [r4, #0]
    8a7e:	b139      	cbz	r1, 8a90 <_sungetc_r+0x5a>
    8a80:	4291      	cmp	r1, r2
    8a82:	d205      	bcs.n	8a90 <_sungetc_r+0x5a>
    8a84:	1e51      	subs	r1, r2, #1
    8a86:	7808      	ldrb	r0, [r1, #0]
    8a88:	4285      	cmp	r5, r0
    8a8a:	d101      	bne.n	8a90 <_sungetc_r+0x5a>
    8a8c:	6021      	str	r1, [r4, #0]
    8a8e:	e7eb      	b.n	8a68 <_sungetc_r+0x32>
    8a90:	6423      	str	r3, [r4, #64]	; 0x40
    8a92:	0023      	movs	r3, r4
    8a94:	3344      	adds	r3, #68	; 0x44
    8a96:	6363      	str	r3, [r4, #52]	; 0x34
    8a98:	2303      	movs	r3, #3
    8a9a:	63a3      	str	r3, [r4, #56]	; 0x38
    8a9c:	0023      	movs	r3, r4
    8a9e:	3346      	adds	r3, #70	; 0x46
    8aa0:	63e2      	str	r2, [r4, #60]	; 0x3c
    8aa2:	701e      	strb	r6, [r3, #0]
    8aa4:	6023      	str	r3, [r4, #0]
    8aa6:	2301      	movs	r3, #1
    8aa8:	e7df      	b.n	8a6a <_sungetc_r+0x34>

00008aaa <__ssrefill_r>:
    8aaa:	b510      	push	{r4, lr}
    8aac:	000c      	movs	r4, r1
    8aae:	6b49      	ldr	r1, [r1, #52]	; 0x34
    8ab0:	b169      	cbz	r1, 8ace <__ssrefill_r+0x24>
    8ab2:	0023      	movs	r3, r4
    8ab4:	3344      	adds	r3, #68	; 0x44
    8ab6:	4299      	cmp	r1, r3
    8ab8:	d001      	beq.n	8abe <__ssrefill_r+0x14>
    8aba:	f000 fca7 	bl	940c <_free_r>
    8abe:	2000      	movs	r0, #0
    8ac0:	6c23      	ldr	r3, [r4, #64]	; 0x40
    8ac2:	6360      	str	r0, [r4, #52]	; 0x34
    8ac4:	6063      	str	r3, [r4, #4]
    8ac6:	b113      	cbz	r3, 8ace <__ssrefill_r+0x24>
    8ac8:	6be3      	ldr	r3, [r4, #60]	; 0x3c
    8aca:	6023      	str	r3, [r4, #0]
    8acc:	bd10      	pop	{r4, pc}
    8ace:	6923      	ldr	r3, [r4, #16]
    8ad0:	2001      	movs	r0, #1
    8ad2:	6023      	str	r3, [r4, #0]
    8ad4:	2300      	movs	r3, #0
    8ad6:	89a2      	ldrh	r2, [r4, #12]
    8ad8:	6063      	str	r3, [r4, #4]
    8ada:	3320      	adds	r3, #32
    8adc:	4313      	orrs	r3, r2
    8ade:	81a3      	strh	r3, [r4, #12]
    8ae0:	4240      	negs	r0, r0
    8ae2:	e7f3      	b.n	8acc <__ssrefill_r+0x22>

00008ae4 <__ssvfiscanf_r>:
    8ae4:	b5f0      	push	{r4, r5, r6, r7, lr}
    8ae6:	4cbd      	ldr	r4, [pc, #756]	; (8ddc <__ssvfiscanf_r+0x2f8>)
    8ae8:	f240 150c 	movw	r5, #268	; 0x10c
    8aec:	44a5      	add	sp, r4
    8aee:	9303      	str	r3, [sp, #12]
    8af0:	2300      	movs	r3, #0
    8af2:	9348      	str	r3, [sp, #288]	; 0x120
    8af4:	9349      	str	r3, [sp, #292]	; 0x124
    8af6:	ab05      	add	r3, sp, #20
    8af8:	934a      	str	r3, [sp, #296]	; 0x128
    8afa:	f240 137c 	movw	r3, #380	; 0x17c
    8afe:	9000      	str	r0, [sp, #0]
    8b00:	000c      	movs	r4, r1
    8b02:	a802      	add	r0, sp, #8
    8b04:	49b6      	ldr	r1, [pc, #728]	; (8de0 <__ssvfiscanf_r+0x2fc>)
    8b06:	1940      	adds	r0, r0, r5
    8b08:	50c1      	str	r1, [r0, r3]
    8b0a:	f240 1780 	movw	r7, #384	; 0x180
    8b0e:	ab02      	add	r3, sp, #8
    8b10:	195b      	adds	r3, r3, r5
    8b12:	0015      	movs	r5, r2
    8b14:	49b3      	ldr	r1, [pc, #716]	; (8de4 <__ssvfiscanf_r+0x300>)
    8b16:	51d9      	str	r1, [r3, r7]
    8b18:	782b      	ldrb	r3, [r5, #0]
    8b1a:	2b00      	cmp	r3, #0
    8b1c:	d100      	bne.n	8b20 <__ssvfiscanf_r+0x3c>
    8b1e:	e15b      	b.n	8dd8 <__ssvfiscanf_r+0x2f4>
    8b20:	f000 fc44 	bl	93ac <__locale_ctype_ptr>
    8b24:	2208      	movs	r2, #8
    8b26:	782b      	ldrb	r3, [r5, #0]
    8b28:	18c0      	adds	r0, r0, r3
    8b2a:	9301      	str	r3, [sp, #4]
    8b2c:	7843      	ldrb	r3, [r0, #1]
    8b2e:	4013      	ands	r3, r2
    8b30:	2b00      	cmp	r3, #0
    8b32:	d140      	bne.n	8bb6 <__ssvfiscanf_r+0xd2>
    8b34:	9a01      	ldr	r2, [sp, #4]
    8b36:	1c6e      	adds	r6, r5, #1
    8b38:	2a25      	cmp	r2, #37	; 0x25
    8b3a:	d000      	beq.n	8b3e <__ssvfiscanf_r+0x5a>
    8b3c:	e0a7      	b.n	8c8e <__ssvfiscanf_r+0x1aa>
    8b3e:	9347      	str	r3, [sp, #284]	; 0x11c
    8b40:	9345      	str	r3, [sp, #276]	; 0x114
    8b42:	786b      	ldrb	r3, [r5, #1]
    8b44:	2b2a      	cmp	r3, #42	; 0x2a
    8b46:	d102      	bne.n	8b4e <__ssvfiscanf_r+0x6a>
    8b48:	3b1a      	subs	r3, #26
    8b4a:	9345      	str	r3, [sp, #276]	; 0x114
    8b4c:	1cae      	adds	r6, r5, #2
    8b4e:	0035      	movs	r5, r6
    8b50:	220a      	movs	r2, #10
    8b52:	7829      	ldrb	r1, [r5, #0]
    8b54:	000b      	movs	r3, r1
    8b56:	3b30      	subs	r3, #48	; 0x30
    8b58:	2b09      	cmp	r3, #9
    8b5a:	d947      	bls.n	8bec <__ssvfiscanf_r+0x108>
    8b5c:	4ea2      	ldr	r6, [pc, #648]	; (8de8 <__ssvfiscanf_r+0x304>)
    8b5e:	2203      	movs	r2, #3
    8b60:	0030      	movs	r0, r6
    8b62:	f000 fc3f 	bl	93e4 <memchr>
    8b66:	b138      	cbz	r0, 8b78 <__ssvfiscanf_r+0x94>
    8b68:	2301      	movs	r3, #1
    8b6a:	1b80      	subs	r0, r0, r6
    8b6c:	4083      	lsls	r3, r0
    8b6e:	9a45      	ldr	r2, [sp, #276]	; 0x114
    8b70:	3501      	adds	r5, #1
    8b72:	4313      	orrs	r3, r2
    8b74:	9202      	str	r2, [sp, #8]
    8b76:	9345      	str	r3, [sp, #276]	; 0x114
    8b78:	782b      	ldrb	r3, [r5, #0]
    8b7a:	1c6e      	adds	r6, r5, #1
    8b7c:	2b67      	cmp	r3, #103	; 0x67
    8b7e:	d858      	bhi.n	8c32 <__ssvfiscanf_r+0x14e>
    8b80:	2b65      	cmp	r3, #101	; 0x65
    8b82:	d300      	bcc.n	8b86 <__ssvfiscanf_r+0xa2>
    8b84:	e0dd      	b.n	8d42 <__ssvfiscanf_r+0x25e>
    8b86:	2b47      	cmp	r3, #71	; 0x47
    8b88:	d838      	bhi.n	8bfc <__ssvfiscanf_r+0x118>
    8b8a:	2b45      	cmp	r3, #69	; 0x45
    8b8c:	d300      	bcc.n	8b90 <__ssvfiscanf_r+0xac>
    8b8e:	e0d8      	b.n	8d42 <__ssvfiscanf_r+0x25e>
    8b90:	2b00      	cmp	r3, #0
    8b92:	d100      	bne.n	8b96 <__ssvfiscanf_r+0xb2>
    8b94:	e11d      	b.n	8dd2 <__ssvfiscanf_r+0x2ee>
    8b96:	2b25      	cmp	r3, #37	; 0x25
    8b98:	d079      	beq.n	8c8e <__ssvfiscanf_r+0x1aa>
    8b9a:	2303      	movs	r3, #3
    8b9c:	934b      	str	r3, [sp, #300]	; 0x12c
    8b9e:	3307      	adds	r3, #7
    8ba0:	9346      	str	r3, [sp, #280]	; 0x118
    8ba2:	e053      	b.n	8c4c <__ssvfiscanf_r+0x168>
    8ba4:	9a49      	ldr	r2, [sp, #292]	; 0x124
    8ba6:	3301      	adds	r3, #1
    8ba8:	9201      	str	r2, [sp, #4]
    8baa:	3201      	adds	r2, #1
    8bac:	9249      	str	r2, [sp, #292]	; 0x124
    8bae:	6862      	ldr	r2, [r4, #4]
    8bb0:	6023      	str	r3, [r4, #0]
    8bb2:	3a01      	subs	r2, #1
    8bb4:	6062      	str	r2, [r4, #4]
    8bb6:	6863      	ldr	r3, [r4, #4]
    8bb8:	2b00      	cmp	r3, #0
    8bba:	dd0b      	ble.n	8bd4 <__ssvfiscanf_r+0xf0>
    8bbc:	f000 fbf6 	bl	93ac <__locale_ctype_ptr>
    8bc0:	2108      	movs	r1, #8
    8bc2:	6823      	ldr	r3, [r4, #0]
    8bc4:	781a      	ldrb	r2, [r3, #0]
    8bc6:	1880      	adds	r0, r0, r2
    8bc8:	7842      	ldrb	r2, [r0, #1]
    8bca:	420a      	tst	r2, r1
    8bcc:	d1ea      	bne.n	8ba4 <__ssvfiscanf_r+0xc0>
    8bce:	1c6e      	adds	r6, r5, #1
    8bd0:	0035      	movs	r5, r6
    8bd2:	e7a1      	b.n	8b18 <__ssvfiscanf_r+0x34>
    8bd4:	f240 120c 	movw	r2, #268	; 0x10c
    8bd8:	ab02      	add	r3, sp, #8
    8bda:	189b      	adds	r3, r3, r2
    8bdc:	59db      	ldr	r3, [r3, r7]
    8bde:	0021      	movs	r1, r4
    8be0:	9800      	ldr	r0, [sp, #0]
    8be2:	9301      	str	r3, [sp, #4]
    8be4:	4798      	blx	r3
    8be6:	2800      	cmp	r0, #0
    8be8:	d0e8      	beq.n	8bbc <__ssvfiscanf_r+0xd8>
    8bea:	e7f0      	b.n	8bce <__ssvfiscanf_r+0xea>
    8bec:	9b47      	ldr	r3, [sp, #284]	; 0x11c
    8bee:	3501      	adds	r5, #1
    8bf0:	9302      	str	r3, [sp, #8]
    8bf2:	4353      	muls	r3, r2
    8bf4:	3b30      	subs	r3, #48	; 0x30
    8bf6:	1859      	adds	r1, r3, r1
    8bf8:	9147      	str	r1, [sp, #284]	; 0x11c
    8bfa:	e7aa      	b.n	8b52 <__ssvfiscanf_r+0x6e>
    8bfc:	2b5b      	cmp	r3, #91	; 0x5b
    8bfe:	d100      	bne.n	8c02 <__ssvfiscanf_r+0x11e>
    8c00:	e077      	b.n	8cf2 <__ssvfiscanf_r+0x20e>
    8c02:	d80f      	bhi.n	8c24 <__ssvfiscanf_r+0x140>
    8c04:	2b58      	cmp	r3, #88	; 0x58
    8c06:	d1c8      	bne.n	8b9a <__ssvfiscanf_r+0xb6>
    8c08:	9a45      	ldr	r2, [sp, #276]	; 0x114
    8c0a:	9201      	str	r2, [sp, #4]
    8c0c:	f240 2200 	movw	r2, #512	; 0x200
    8c10:	9901      	ldr	r1, [sp, #4]
    8c12:	430a      	orrs	r2, r1
    8c14:	9245      	str	r2, [sp, #276]	; 0x114
    8c16:	2210      	movs	r2, #16
    8c18:	9246      	str	r2, [sp, #280]	; 0x118
    8c1a:	2203      	movs	r2, #3
    8c1c:	2b6e      	cmp	r3, #110	; 0x6e
    8c1e:	dd14      	ble.n	8c4a <__ssvfiscanf_r+0x166>
    8c20:	3201      	adds	r2, #1
    8c22:	e012      	b.n	8c4a <__ssvfiscanf_r+0x166>
    8c24:	2b63      	cmp	r3, #99	; 0x63
    8c26:	d100      	bne.n	8c2a <__ssvfiscanf_r+0x146>
    8c28:	e071      	b.n	8d0e <__ssvfiscanf_r+0x22a>
    8c2a:	2b64      	cmp	r3, #100	; 0x64
    8c2c:	d1b5      	bne.n	8b9a <__ssvfiscanf_r+0xb6>
    8c2e:	220a      	movs	r2, #10
    8c30:	e7f2      	b.n	8c18 <__ssvfiscanf_r+0x134>
    8c32:	2b70      	cmp	r3, #112	; 0x70
    8c34:	d052      	beq.n	8cdc <__ssvfiscanf_r+0x1f8>
    8c36:	d822      	bhi.n	8c7e <__ssvfiscanf_r+0x19a>
    8c38:	2b6e      	cmp	r3, #110	; 0x6e
    8c3a:	d100      	bne.n	8c3e <__ssvfiscanf_r+0x15a>
    8c3c:	e06f      	b.n	8d1e <__ssvfiscanf_r+0x23a>
    8c3e:	d854      	bhi.n	8cea <__ssvfiscanf_r+0x206>
    8c40:	2b69      	cmp	r3, #105	; 0x69
    8c42:	d1aa      	bne.n	8b9a <__ssvfiscanf_r+0xb6>
    8c44:	2300      	movs	r3, #0
    8c46:	2203      	movs	r2, #3
    8c48:	9346      	str	r3, [sp, #280]	; 0x118
    8c4a:	924b      	str	r2, [sp, #300]	; 0x12c
    8c4c:	6863      	ldr	r3, [r4, #4]
    8c4e:	2b00      	cmp	r3, #0
    8c50:	dc00      	bgt.n	8c54 <__ssvfiscanf_r+0x170>
    8c52:	e078      	b.n	8d46 <__ssvfiscanf_r+0x262>
    8c54:	9b45      	ldr	r3, [sp, #276]	; 0x114
    8c56:	9301      	str	r3, [sp, #4]
    8c58:	065b      	lsls	r3, r3, #25
    8c5a:	d400      	bmi.n	8c5e <__ssvfiscanf_r+0x17a>
    8c5c:	e08b      	b.n	8d76 <__ssvfiscanf_r+0x292>
    8c5e:	9b4b      	ldr	r3, [sp, #300]	; 0x12c
    8c60:	2b02      	cmp	r3, #2
    8c62:	dd00      	ble.n	8c66 <__ssvfiscanf_r+0x182>
    8c64:	e09d      	b.n	8da2 <__ssvfiscanf_r+0x2be>
    8c66:	ab03      	add	r3, sp, #12
    8c68:	0022      	movs	r2, r4
    8c6a:	a945      	add	r1, sp, #276	; 0x114
    8c6c:	9800      	ldr	r0, [sp, #0]
    8c6e:	f000 f8bf 	bl	8df0 <_scanf_chars>
    8c72:	2801      	cmp	r0, #1
    8c74:	d100      	bne.n	8c78 <__ssvfiscanf_r+0x194>
    8c76:	e0af      	b.n	8dd8 <__ssvfiscanf_r+0x2f4>
    8c78:	2802      	cmp	r0, #2
    8c7a:	d1a9      	bne.n	8bd0 <__ssvfiscanf_r+0xec>
    8c7c:	e025      	b.n	8cca <__ssvfiscanf_r+0x1e6>
    8c7e:	2b75      	cmp	r3, #117	; 0x75
    8c80:	d0d5      	beq.n	8c2e <__ssvfiscanf_r+0x14a>
    8c82:	2b78      	cmp	r3, #120	; 0x78
    8c84:	d0c0      	beq.n	8c08 <__ssvfiscanf_r+0x124>
    8c86:	2b73      	cmp	r3, #115	; 0x73
    8c88:	d187      	bne.n	8b9a <__ssvfiscanf_r+0xb6>
    8c8a:	2302      	movs	r3, #2
    8c8c:	e03d      	b.n	8d0a <__ssvfiscanf_r+0x226>
    8c8e:	6863      	ldr	r3, [r4, #4]
    8c90:	2b00      	cmp	r3, #0
    8c92:	dd0f      	ble.n	8cb4 <__ssvfiscanf_r+0x1d0>
    8c94:	6823      	ldr	r3, [r4, #0]
    8c96:	9901      	ldr	r1, [sp, #4]
    8c98:	781a      	ldrb	r2, [r3, #0]
    8c9a:	4291      	cmp	r1, r2
    8c9c:	d000      	beq.n	8ca0 <__ssvfiscanf_r+0x1bc>
    8c9e:	e09b      	b.n	8dd8 <__ssvfiscanf_r+0x2f4>
    8ca0:	3301      	adds	r3, #1
    8ca2:	6862      	ldr	r2, [r4, #4]
    8ca4:	6023      	str	r3, [r4, #0]
    8ca6:	9b49      	ldr	r3, [sp, #292]	; 0x124
    8ca8:	3a01      	subs	r2, #1
    8caa:	9301      	str	r3, [sp, #4]
    8cac:	3301      	adds	r3, #1
    8cae:	6062      	str	r2, [r4, #4]
    8cb0:	9349      	str	r3, [sp, #292]	; 0x124
    8cb2:	e78d      	b.n	8bd0 <__ssvfiscanf_r+0xec>
    8cb4:	f240 120c 	movw	r2, #268	; 0x10c
    8cb8:	ab02      	add	r3, sp, #8
    8cba:	189b      	adds	r3, r3, r2
    8cbc:	59db      	ldr	r3, [r3, r7]
    8cbe:	0021      	movs	r1, r4
    8cc0:	9800      	ldr	r0, [sp, #0]
    8cc2:	9302      	str	r3, [sp, #8]
    8cc4:	4798      	blx	r3
    8cc6:	2800      	cmp	r0, #0
    8cc8:	d0e4      	beq.n	8c94 <__ssvfiscanf_r+0x1b0>
    8cca:	9848      	ldr	r0, [sp, #288]	; 0x120
    8ccc:	2800      	cmp	r0, #0
    8cce:	d000      	beq.n	8cd2 <__ssvfiscanf_r+0x1ee>
    8cd0:	e07b      	b.n	8dca <__ssvfiscanf_r+0x2e6>
    8cd2:	3801      	subs	r0, #1
    8cd4:	f240 239c 	movw	r3, #668	; 0x29c
    8cd8:	449d      	add	sp, r3
    8cda:	bdf0      	pop	{r4, r5, r6, r7, pc}
    8cdc:	9a45      	ldr	r2, [sp, #276]	; 0x114
    8cde:	9201      	str	r2, [sp, #4]
    8ce0:	2220      	movs	r2, #32
    8ce2:	9901      	ldr	r1, [sp, #4]
    8ce4:	430a      	orrs	r2, r1
    8ce6:	9245      	str	r2, [sp, #276]	; 0x114
    8ce8:	e78e      	b.n	8c08 <__ssvfiscanf_r+0x124>
    8cea:	2308      	movs	r3, #8
    8cec:	2204      	movs	r2, #4
    8cee:	9346      	str	r3, [sp, #280]	; 0x118
    8cf0:	e7ab      	b.n	8c4a <__ssvfiscanf_r+0x166>
    8cf2:	0031      	movs	r1, r6
    8cf4:	a805      	add	r0, sp, #20
    8cf6:	f000 f9d3 	bl	90a0 <__sccl>
    8cfa:	9b45      	ldr	r3, [sp, #276]	; 0x114
    8cfc:	0006      	movs	r6, r0
    8cfe:	9301      	str	r3, [sp, #4]
    8d00:	2340      	movs	r3, #64	; 0x40
    8d02:	9a01      	ldr	r2, [sp, #4]
    8d04:	4313      	orrs	r3, r2
    8d06:	9345      	str	r3, [sp, #276]	; 0x114
    8d08:	2301      	movs	r3, #1
    8d0a:	934b      	str	r3, [sp, #300]	; 0x12c
    8d0c:	e79e      	b.n	8c4c <__ssvfiscanf_r+0x168>
    8d0e:	9b45      	ldr	r3, [sp, #276]	; 0x114
    8d10:	9301      	str	r3, [sp, #4]
    8d12:	2340      	movs	r3, #64	; 0x40
    8d14:	9a01      	ldr	r2, [sp, #4]
    8d16:	4313      	orrs	r3, r2
    8d18:	9345      	str	r3, [sp, #276]	; 0x114
    8d1a:	2300      	movs	r3, #0
    8d1c:	e7f5      	b.n	8d0a <__ssvfiscanf_r+0x226>
    8d1e:	9945      	ldr	r1, [sp, #276]	; 0x114
    8d20:	06cb      	lsls	r3, r1, #27
    8d22:	d500      	bpl.n	8d26 <__ssvfiscanf_r+0x242>
    8d24:	e754      	b.n	8bd0 <__ssvfiscanf_r+0xec>
    8d26:	9b03      	ldr	r3, [sp, #12]
    8d28:	9a49      	ldr	r2, [sp, #292]	; 0x124
    8d2a:	07c8      	lsls	r0, r1, #31
    8d2c:	d504      	bpl.n	8d38 <__ssvfiscanf_r+0x254>
    8d2e:	1d19      	adds	r1, r3, #4
    8d30:	9103      	str	r1, [sp, #12]
    8d32:	681b      	ldr	r3, [r3, #0]
    8d34:	801a      	strh	r2, [r3, #0]
    8d36:	e74b      	b.n	8bd0 <__ssvfiscanf_r+0xec>
    8d38:	1d19      	adds	r1, r3, #4
    8d3a:	9103      	str	r1, [sp, #12]
    8d3c:	681b      	ldr	r3, [r3, #0]
    8d3e:	601a      	str	r2, [r3, #0]
    8d40:	e746      	b.n	8bd0 <__ssvfiscanf_r+0xec>
    8d42:	2305      	movs	r3, #5
    8d44:	e7e1      	b.n	8d0a <__ssvfiscanf_r+0x226>
    8d46:	f240 120c 	movw	r2, #268	; 0x10c
    8d4a:	ab02      	add	r3, sp, #8
    8d4c:	189b      	adds	r3, r3, r2
    8d4e:	59db      	ldr	r3, [r3, r7]
    8d50:	0021      	movs	r1, r4
    8d52:	9800      	ldr	r0, [sp, #0]
    8d54:	9301      	str	r3, [sp, #4]
    8d56:	4798      	blx	r3
    8d58:	2800      	cmp	r0, #0
    8d5a:	d100      	bne.n	8d5e <__ssvfiscanf_r+0x27a>
    8d5c:	e77a      	b.n	8c54 <__ssvfiscanf_r+0x170>
    8d5e:	e7b4      	b.n	8cca <__ssvfiscanf_r+0x1e6>
    8d60:	9a49      	ldr	r2, [sp, #292]	; 0x124
    8d62:	9201      	str	r2, [sp, #4]
    8d64:	3201      	adds	r2, #1
    8d66:	9249      	str	r2, [sp, #292]	; 0x124
    8d68:	6862      	ldr	r2, [r4, #4]
    8d6a:	3a01      	subs	r2, #1
    8d6c:	6062      	str	r2, [r4, #4]
    8d6e:	2a00      	cmp	r2, #0
    8d70:	dd0b      	ble.n	8d8a <__ssvfiscanf_r+0x2a6>
    8d72:	3301      	adds	r3, #1
    8d74:	6023      	str	r3, [r4, #0]
    8d76:	f000 fb19 	bl	93ac <__locale_ctype_ptr>
    8d7a:	2108      	movs	r1, #8
    8d7c:	6823      	ldr	r3, [r4, #0]
    8d7e:	781a      	ldrb	r2, [r3, #0]
    8d80:	1880      	adds	r0, r0, r2
    8d82:	7842      	ldrb	r2, [r0, #1]
    8d84:	420a      	tst	r2, r1
    8d86:	d1eb      	bne.n	8d60 <__ssvfiscanf_r+0x27c>
    8d88:	e769      	b.n	8c5e <__ssvfiscanf_r+0x17a>
    8d8a:	f240 120c 	movw	r2, #268	; 0x10c
    8d8e:	ab02      	add	r3, sp, #8
    8d90:	189b      	adds	r3, r3, r2
    8d92:	59db      	ldr	r3, [r3, r7]
    8d94:	0021      	movs	r1, r4
    8d96:	9800      	ldr	r0, [sp, #0]
    8d98:	9301      	str	r3, [sp, #4]
    8d9a:	4798      	blx	r3
    8d9c:	2800      	cmp	r0, #0
    8d9e:	d0ea      	beq.n	8d76 <__ssvfiscanf_r+0x292>
    8da0:	e793      	b.n	8cca <__ssvfiscanf_r+0x1e6>
    8da2:	2b04      	cmp	r3, #4
    8da4:	dc06      	bgt.n	8db4 <__ssvfiscanf_r+0x2d0>
    8da6:	ab03      	add	r3, sp, #12
    8da8:	0022      	movs	r2, r4
    8daa:	a945      	add	r1, sp, #276	; 0x114
    8dac:	9800      	ldr	r0, [sp, #0]
    8dae:	f000 f87d 	bl	8eac <_scanf_i>
    8db2:	e75e      	b.n	8c72 <__ssvfiscanf_r+0x18e>
    8db4:	4b0d      	ldr	r3, [pc, #52]	; (8dec <__ssvfiscanf_r+0x308>)
    8db6:	2b00      	cmp	r3, #0
    8db8:	d100      	bne.n	8dbc <__ssvfiscanf_r+0x2d8>
    8dba:	e709      	b.n	8bd0 <__ssvfiscanf_r+0xec>
    8dbc:	ab03      	add	r3, sp, #12
    8dbe:	0022      	movs	r2, r4
    8dc0:	a945      	add	r1, sp, #276	; 0x114
    8dc2:	9800      	ldr	r0, [sp, #0]
    8dc4:	e000      	b.n	8dc8 <__ssvfiscanf_r+0x2e4>
    8dc6:	bf00      	nop
    8dc8:	e753      	b.n	8c72 <__ssvfiscanf_r+0x18e>
    8dca:	89a3      	ldrh	r3, [r4, #12]
    8dcc:	065b      	lsls	r3, r3, #25
    8dce:	d400      	bmi.n	8dd2 <__ssvfiscanf_r+0x2ee>
    8dd0:	e780      	b.n	8cd4 <__ssvfiscanf_r+0x1f0>
    8dd2:	2001      	movs	r0, #1
    8dd4:	4240      	negs	r0, r0
    8dd6:	e77d      	b.n	8cd4 <__ssvfiscanf_r+0x1f0>
    8dd8:	9848      	ldr	r0, [sp, #288]	; 0x120
    8dda:	e77b      	b.n	8cd4 <__ssvfiscanf_r+0x1f0>
    8ddc:	fffffd64 	.word	0xfffffd64
    8de0:	00008a37 	.word	0x00008a37
    8de4:	00008aab 	.word	0x00008aab
    8de8:	0000967c 	.word	0x0000967c
    8dec:	00000000 	.word	0x00000000

00008df0 <_scanf_chars>:
    8df0:	b5f7      	push	{r0, r1, r2, r4, r5, r6, r7, lr}
    8df2:	0015      	movs	r5, r2
    8df4:	688a      	ldr	r2, [r1, #8]
    8df6:	9001      	str	r0, [sp, #4]
    8df8:	000c      	movs	r4, r1
    8dfa:	b932      	cbnz	r2, 8e0a <_scanf_chars+0x1a>
    8dfc:	698a      	ldr	r2, [r1, #24]
    8dfe:	1e51      	subs	r1, r2, #1
    8e00:	418a      	sbcs	r2, r1
    8e02:	2101      	movs	r1, #1
    8e04:	4252      	negs	r2, r2
    8e06:	430a      	orrs	r2, r1
    8e08:	60a2      	str	r2, [r4, #8]
    8e0a:	6822      	ldr	r2, [r4, #0]
    8e0c:	06d2      	lsls	r2, r2, #27
    8e0e:	d403      	bmi.n	8e18 <_scanf_chars+0x28>
    8e10:	681a      	ldr	r2, [r3, #0]
    8e12:	1d11      	adds	r1, r2, #4
    8e14:	6019      	str	r1, [r3, #0]
    8e16:	6817      	ldr	r7, [r2, #0]
    8e18:	2600      	movs	r6, #0
    8e1a:	69a3      	ldr	r3, [r4, #24]
    8e1c:	b1d3      	cbz	r3, 8e54 <_scanf_chars+0x64>
    8e1e:	2b01      	cmp	r3, #1
    8e20:	d107      	bne.n	8e32 <_scanf_chars+0x42>
    8e22:	682b      	ldr	r3, [r5, #0]
    8e24:	6962      	ldr	r2, [r4, #20]
    8e26:	781b      	ldrb	r3, [r3, #0]
    8e28:	5cd3      	ldrb	r3, [r2, r3]
    8e2a:	b99b      	cbnz	r3, 8e54 <_scanf_chars+0x64>
    8e2c:	2e00      	cmp	r6, #0
    8e2e:	d12e      	bne.n	8e8e <_scanf_chars+0x9e>
    8e30:	e005      	b.n	8e3e <_scanf_chars+0x4e>
    8e32:	2b02      	cmp	r3, #2
    8e34:	d005      	beq.n	8e42 <_scanf_chars+0x52>
    8e36:	bb56      	cbnz	r6, 8e8e <_scanf_chars+0x9e>
    8e38:	69a3      	ldr	r3, [r4, #24]
    8e3a:	2b01      	cmp	r3, #1
    8e3c:	d127      	bne.n	8e8e <_scanf_chars+0x9e>
    8e3e:	2001      	movs	r0, #1
    8e40:	bdfe      	pop	{r1, r2, r3, r4, r5, r6, r7, pc}
    8e42:	f000 fab3 	bl	93ac <__locale_ctype_ptr>
    8e46:	2208      	movs	r2, #8
    8e48:	682b      	ldr	r3, [r5, #0]
    8e4a:	781b      	ldrb	r3, [r3, #0]
    8e4c:	18c0      	adds	r0, r0, r3
    8e4e:	7843      	ldrb	r3, [r0, #1]
    8e50:	4213      	tst	r3, r2
    8e52:	d1f0      	bne.n	8e36 <_scanf_chars+0x46>
    8e54:	2210      	movs	r2, #16
    8e56:	6823      	ldr	r3, [r4, #0]
    8e58:	3601      	adds	r6, #1
    8e5a:	4213      	tst	r3, r2
    8e5c:	d103      	bne.n	8e66 <_scanf_chars+0x76>
    8e5e:	682b      	ldr	r3, [r5, #0]
    8e60:	781b      	ldrb	r3, [r3, #0]
    8e62:	703b      	strb	r3, [r7, #0]
    8e64:	3701      	adds	r7, #1
    8e66:	682a      	ldr	r2, [r5, #0]
    8e68:	686b      	ldr	r3, [r5, #4]
    8e6a:	3201      	adds	r2, #1
    8e6c:	602a      	str	r2, [r5, #0]
    8e6e:	68a2      	ldr	r2, [r4, #8]
    8e70:	3b01      	subs	r3, #1
    8e72:	3a01      	subs	r2, #1
    8e74:	606b      	str	r3, [r5, #4]
    8e76:	60a2      	str	r2, [r4, #8]
    8e78:	b14a      	cbz	r2, 8e8e <_scanf_chars+0x9e>
    8e7a:	2b00      	cmp	r3, #0
    8e7c:	dccd      	bgt.n	8e1a <_scanf_chars+0x2a>
    8e7e:	f240 1380 	movw	r3, #384	; 0x180
    8e82:	0029      	movs	r1, r5
    8e84:	58e3      	ldr	r3, [r4, r3]
    8e86:	9801      	ldr	r0, [sp, #4]
    8e88:	4798      	blx	r3
    8e8a:	2800      	cmp	r0, #0
    8e8c:	d0c5      	beq.n	8e1a <_scanf_chars+0x2a>
    8e8e:	2310      	movs	r3, #16
    8e90:	6822      	ldr	r2, [r4, #0]
    8e92:	4013      	ands	r3, r2
    8e94:	b92b      	cbnz	r3, 8ea2 <_scanf_chars+0xb2>
    8e96:	68e2      	ldr	r2, [r4, #12]
    8e98:	3201      	adds	r2, #1
    8e9a:	60e2      	str	r2, [r4, #12]
    8e9c:	69a2      	ldr	r2, [r4, #24]
    8e9e:	b102      	cbz	r2, 8ea2 <_scanf_chars+0xb2>
    8ea0:	703b      	strb	r3, [r7, #0]
    8ea2:	6923      	ldr	r3, [r4, #16]
    8ea4:	2000      	movs	r0, #0
    8ea6:	199e      	adds	r6, r3, r6
    8ea8:	6126      	str	r6, [r4, #16]
    8eaa:	e7c9      	b.n	8e40 <_scanf_chars+0x50>

00008eac <_scanf_i>:
    8eac:	b5f0      	push	{r4, r5, r6, r7, lr}
    8eae:	000c      	movs	r4, r1
    8eb0:	b08d      	sub	sp, #52	; 0x34
    8eb2:	9302      	str	r3, [sp, #8]
    8eb4:	4b74      	ldr	r3, [pc, #464]	; (9088 <_scanf_i+0x1dc>)
    8eb6:	9005      	str	r0, [sp, #20]
    8eb8:	0016      	movs	r6, r2
    8eba:	aa09      	add	r2, sp, #36	; 0x24
    8ebc:	cb23      	ldmia	r3!, {r0, r1, r5}
    8ebe:	c223      	stmia	r2!, {r0, r1, r5}
    8ec0:	69a3      	ldr	r3, [r4, #24]
    8ec2:	2b03      	cmp	r3, #3
    8ec4:	d100      	bne.n	8ec8 <_scanf_i+0x1c>
    8ec6:	e080      	b.n	8fca <_scanf_i+0x11e>
    8ec8:	4b70      	ldr	r3, [pc, #448]	; (908c <_scanf_i+0x1e0>)
    8eca:	2000      	movs	r0, #0
    8ecc:	f240 125c 	movw	r2, #348	; 0x15c
    8ed0:	9306      	str	r3, [sp, #24]
    8ed2:	68a3      	ldr	r3, [r4, #8]
    8ed4:	9004      	str	r0, [sp, #16]
    8ed6:	1e59      	subs	r1, r3, #1
    8ed8:	4291      	cmp	r1, r2
    8eda:	d905      	bls.n	8ee8 <_scanf_i+0x3c>
    8edc:	3b5e      	subs	r3, #94	; 0x5e
    8ede:	3bff      	subs	r3, #255	; 0xff
    8ee0:	9304      	str	r3, [sp, #16]
    8ee2:	f240 135d 	movw	r3, #349	; 0x15d
    8ee6:	60a3      	str	r3, [r4, #8]
    8ee8:	0023      	movs	r3, r4
    8eea:	331c      	adds	r3, #28
    8eec:	9301      	str	r3, [sp, #4]
    8eee:	f640 5300 	movw	r3, #3328	; 0xd00
    8ef2:	2700      	movs	r7, #0
    8ef4:	6822      	ldr	r2, [r4, #0]
    8ef6:	4313      	orrs	r3, r2
    8ef8:	6023      	str	r3, [r4, #0]
    8efa:	9b01      	ldr	r3, [sp, #4]
    8efc:	9303      	str	r3, [sp, #12]
    8efe:	6833      	ldr	r3, [r6, #0]
    8f00:	a809      	add	r0, sp, #36	; 0x24
    8f02:	7819      	ldrb	r1, [r3, #0]
    8f04:	00bb      	lsls	r3, r7, #2
    8f06:	2202      	movs	r2, #2
    8f08:	5818      	ldr	r0, [r3, r0]
    8f0a:	f000 fa6b 	bl	93e4 <memchr>
    8f0e:	b348      	cbz	r0, 8f64 <_scanf_i+0xb8>
    8f10:	2f01      	cmp	r7, #1
    8f12:	d15c      	bne.n	8fce <_scanf_i+0x122>
    8f14:	6863      	ldr	r3, [r4, #4]
    8f16:	b933      	cbnz	r3, 8f26 <_scanf_i+0x7a>
    8f18:	3308      	adds	r3, #8
    8f1a:	6822      	ldr	r2, [r4, #0]
    8f1c:	6063      	str	r3, [r4, #4]
    8f1e:	33f9      	adds	r3, #249	; 0xf9
    8f20:	33ff      	adds	r3, #255	; 0xff
    8f22:	4313      	orrs	r3, r2
    8f24:	6023      	str	r3, [r4, #0]
    8f26:	4b5a      	ldr	r3, [pc, #360]	; (9090 <_scanf_i+0x1e4>)
    8f28:	6822      	ldr	r2, [r4, #0]
    8f2a:	4013      	ands	r3, r2
    8f2c:	6023      	str	r3, [r4, #0]
    8f2e:	68a3      	ldr	r3, [r4, #8]
    8f30:	1e5a      	subs	r2, r3, #1
    8f32:	60a2      	str	r2, [r4, #8]
    8f34:	b1b3      	cbz	r3, 8f64 <_scanf_i+0xb8>
    8f36:	9b03      	ldr	r3, [sp, #12]
    8f38:	1c5d      	adds	r5, r3, #1
    8f3a:	6833      	ldr	r3, [r6, #0]
    8f3c:	1c5a      	adds	r2, r3, #1
    8f3e:	6032      	str	r2, [r6, #0]
    8f40:	781b      	ldrb	r3, [r3, #0]
    8f42:	9a03      	ldr	r2, [sp, #12]
    8f44:	9503      	str	r5, [sp, #12]
    8f46:	7013      	strb	r3, [r2, #0]
    8f48:	6873      	ldr	r3, [r6, #4]
    8f4a:	3b01      	subs	r3, #1
    8f4c:	6073      	str	r3, [r6, #4]
    8f4e:	2b00      	cmp	r3, #0
    8f50:	dc08      	bgt.n	8f64 <_scanf_i+0xb8>
    8f52:	f240 1380 	movw	r3, #384	; 0x180
    8f56:	58e3      	ldr	r3, [r4, r3]
    8f58:	0031      	movs	r1, r6
    8f5a:	9805      	ldr	r0, [sp, #20]
    8f5c:	9307      	str	r3, [sp, #28]
    8f5e:	4798      	blx	r3
    8f60:	2800      	cmp	r0, #0
    8f62:	d17c      	bne.n	905e <_scanf_i+0x1b2>
    8f64:	3701      	adds	r7, #1
    8f66:	2f03      	cmp	r7, #3
    8f68:	d1c9      	bne.n	8efe <_scanf_i+0x52>
    8f6a:	6863      	ldr	r3, [r4, #4]
    8f6c:	b90b      	cbnz	r3, 8f72 <_scanf_i+0xc6>
    8f6e:	330a      	adds	r3, #10
    8f70:	6063      	str	r3, [r4, #4]
    8f72:	2110      	movs	r1, #16
    8f74:	2700      	movs	r7, #0
    8f76:	6863      	ldr	r3, [r4, #4]
    8f78:	6960      	ldr	r0, [r4, #20]
    8f7a:	1ac9      	subs	r1, r1, r3
    8f7c:	4b45      	ldr	r3, [pc, #276]	; (9094 <_scanf_i+0x1e8>)
    8f7e:	18c9      	adds	r1, r1, r3
    8f80:	f000 f88e 	bl	90a0 <__sccl>
    8f84:	9d03      	ldr	r5, [sp, #12]
    8f86:	68a3      	ldr	r3, [r4, #8]
    8f88:	2b00      	cmp	r3, #0
    8f8a:	d041      	beq.n	9010 <_scanf_i+0x164>
    8f8c:	6832      	ldr	r2, [r6, #0]
    8f8e:	6960      	ldr	r0, [r4, #20]
    8f90:	7811      	ldrb	r1, [r2, #0]
    8f92:	5c40      	ldrb	r0, [r0, r1]
    8f94:	b3e0      	cbz	r0, 9010 <_scanf_i+0x164>
    8f96:	2930      	cmp	r1, #48	; 0x30
    8f98:	d129      	bne.n	8fee <_scanf_i+0x142>
    8f9a:	f640 0000 	movw	r0, #2048	; 0x800
    8f9e:	6821      	ldr	r1, [r4, #0]
    8fa0:	4201      	tst	r1, r0
    8fa2:	d024      	beq.n	8fee <_scanf_i+0x142>
    8fa4:	9a04      	ldr	r2, [sp, #16]
    8fa6:	3701      	adds	r7, #1
    8fa8:	b11a      	cbz	r2, 8fb2 <_scanf_i+0x106>
    8faa:	3a01      	subs	r2, #1
    8fac:	3301      	adds	r3, #1
    8fae:	9204      	str	r2, [sp, #16]
    8fb0:	60a3      	str	r3, [r4, #8]
    8fb2:	6873      	ldr	r3, [r6, #4]
    8fb4:	3b01      	subs	r3, #1
    8fb6:	6073      	str	r3, [r6, #4]
    8fb8:	2b00      	cmp	r3, #0
    8fba:	dd20      	ble.n	8ffe <_scanf_i+0x152>
    8fbc:	6833      	ldr	r3, [r6, #0]
    8fbe:	3301      	adds	r3, #1
    8fc0:	6033      	str	r3, [r6, #0]
    8fc2:	68a3      	ldr	r3, [r4, #8]
    8fc4:	3b01      	subs	r3, #1
    8fc6:	60a3      	str	r3, [r4, #8]
    8fc8:	e7dd      	b.n	8f86 <_scanf_i+0xda>
    8fca:	4b33      	ldr	r3, [pc, #204]	; (9098 <_scanf_i+0x1ec>)
    8fcc:	e77d      	b.n	8eca <_scanf_i+0x1e>
    8fce:	2f02      	cmp	r7, #2
    8fd0:	d1ad      	bne.n	8f2e <_scanf_i+0x82>
    8fd2:	f240 6100 	movw	r1, #1536	; 0x600
    8fd6:	f240 2300 	movw	r3, #512	; 0x200
    8fda:	6822      	ldr	r2, [r4, #0]
    8fdc:	4011      	ands	r1, r2
    8fde:	4299      	cmp	r1, r3
    8fe0:	d1c3      	bne.n	8f6a <_scanf_i+0xbe>
    8fe2:	3bf1      	subs	r3, #241	; 0xf1
    8fe4:	3bff      	subs	r3, #255	; 0xff
    8fe6:	6063      	str	r3, [r4, #4]
    8fe8:	33f0      	adds	r3, #240	; 0xf0
    8fea:	4313      	orrs	r3, r2
    8fec:	e79e      	b.n	8f2c <_scanf_i+0x80>
    8fee:	6821      	ldr	r1, [r4, #0]
    8ff0:	4b2a      	ldr	r3, [pc, #168]	; (909c <_scanf_i+0x1f0>)
    8ff2:	400b      	ands	r3, r1
    8ff4:	6023      	str	r3, [r4, #0]
    8ff6:	7813      	ldrb	r3, [r2, #0]
    8ff8:	702b      	strb	r3, [r5, #0]
    8ffa:	3501      	adds	r5, #1
    8ffc:	e7d9      	b.n	8fb2 <_scanf_i+0x106>
    8ffe:	f240 1380 	movw	r3, #384	; 0x180
    9002:	58e3      	ldr	r3, [r4, r3]
    9004:	0031      	movs	r1, r6
    9006:	9805      	ldr	r0, [sp, #20]
    9008:	9303      	str	r3, [sp, #12]
    900a:	4798      	blx	r3
    900c:	2800      	cmp	r0, #0
    900e:	d0d8      	beq.n	8fc2 <_scanf_i+0x116>
    9010:	6823      	ldr	r3, [r4, #0]
    9012:	05db      	lsls	r3, r3, #23
    9014:	d50e      	bpl.n	9034 <_scanf_i+0x188>
    9016:	9b01      	ldr	r3, [sp, #4]
    9018:	429d      	cmp	r5, r3
    901a:	d907      	bls.n	902c <_scanf_i+0x180>
    901c:	f240 137c 	movw	r3, #380	; 0x17c
    9020:	3d01      	subs	r5, #1
    9022:	7829      	ldrb	r1, [r5, #0]
    9024:	58e3      	ldr	r3, [r4, r3]
    9026:	0032      	movs	r2, r6
    9028:	9805      	ldr	r0, [sp, #20]
    902a:	4798      	blx	r3
    902c:	9b01      	ldr	r3, [sp, #4]
    902e:	2001      	movs	r0, #1
    9030:	429d      	cmp	r5, r3
    9032:	d027      	beq.n	9084 <_scanf_i+0x1d8>
    9034:	2210      	movs	r2, #16
    9036:	6823      	ldr	r3, [r4, #0]
    9038:	401a      	ands	r2, r3
    903a:	b9e2      	cbnz	r2, 9076 <_scanf_i+0x1ca>
    903c:	702a      	strb	r2, [r5, #0]
    903e:	6863      	ldr	r3, [r4, #4]
    9040:	9901      	ldr	r1, [sp, #4]
    9042:	9805      	ldr	r0, [sp, #20]
    9044:	9e06      	ldr	r6, [sp, #24]
    9046:	47b0      	blx	r6
    9048:	9b02      	ldr	r3, [sp, #8]
    904a:	6822      	ldr	r2, [r4, #0]
    904c:	681b      	ldr	r3, [r3, #0]
    904e:	0691      	lsls	r1, r2, #26
    9050:	d507      	bpl.n	9062 <_scanf_i+0x1b6>
    9052:	9902      	ldr	r1, [sp, #8]
    9054:	1d1a      	adds	r2, r3, #4
    9056:	600a      	str	r2, [r1, #0]
    9058:	681b      	ldr	r3, [r3, #0]
    905a:	6018      	str	r0, [r3, #0]
    905c:	e008      	b.n	9070 <_scanf_i+0x1c4>
    905e:	2700      	movs	r7, #0
    9060:	e7d6      	b.n	9010 <_scanf_i+0x164>
    9062:	07d1      	lsls	r1, r2, #31
    9064:	d5f5      	bpl.n	9052 <_scanf_i+0x1a6>
    9066:	9902      	ldr	r1, [sp, #8]
    9068:	1d1a      	adds	r2, r3, #4
    906a:	600a      	str	r2, [r1, #0]
    906c:	681b      	ldr	r3, [r3, #0]
    906e:	8018      	strh	r0, [r3, #0]
    9070:	68e3      	ldr	r3, [r4, #12]
    9072:	3301      	adds	r3, #1
    9074:	60e3      	str	r3, [r4, #12]
    9076:	2000      	movs	r0, #0
    9078:	9b01      	ldr	r3, [sp, #4]
    907a:	1aed      	subs	r5, r5, r3
    907c:	6923      	ldr	r3, [r4, #16]
    907e:	19ef      	adds	r7, r5, r7
    9080:	19df      	adds	r7, r3, r7
    9082:	6127      	str	r7, [r4, #16]
    9084:	b00d      	add	sp, #52	; 0x34
    9086:	bdf0      	pop	{r4, r5, r6, r7, pc}
    9088:	00009680 	.word	0x00009680
    908c:	00009315 	.word	0x00009315
    9090:	fffffaff 	.word	0xfffffaff
    9094:	0000968c 	.word	0x0000968c
    9098:	000091fd 	.word	0x000091fd
    909c:	fffff6ff 	.word	0xfffff6ff

000090a0 <__sccl>:
    90a0:	b570      	push	{r4, r5, r6, lr}
    90a2:	780b      	ldrb	r3, [r1, #0]
    90a4:	2b5e      	cmp	r3, #94	; 0x5e
    90a6:	d00c      	beq.n	90c2 <__sccl+0x22>
    90a8:	1c4a      	adds	r2, r1, #1
    90aa:	2100      	movs	r1, #0
    90ac:	0004      	movs	r4, r0
    90ae:	1c45      	adds	r5, r0, #1
    90b0:	35ff      	adds	r5, #255	; 0xff
    90b2:	7021      	strb	r1, [r4, #0]
    90b4:	3401      	adds	r4, #1
    90b6:	42a5      	cmp	r5, r4
    90b8:	d1fb      	bne.n	90b2 <__sccl+0x12>
    90ba:	b933      	cbnz	r3, 90ca <__sccl+0x2a>
    90bc:	3a01      	subs	r2, #1
    90be:	0010      	movs	r0, r2
    90c0:	bd70      	pop	{r4, r5, r6, pc}
    90c2:	1c8a      	adds	r2, r1, #2
    90c4:	784b      	ldrb	r3, [r1, #1]
    90c6:	2101      	movs	r1, #1
    90c8:	e7f0      	b.n	90ac <__sccl+0xc>
    90ca:	2401      	movs	r4, #1
    90cc:	404c      	eors	r4, r1
    90ce:	0011      	movs	r1, r2
    90d0:	54c4      	strb	r4, [r0, r3]
    90d2:	780d      	ldrb	r5, [r1, #0]
    90d4:	1c4a      	adds	r2, r1, #1
    90d6:	2d2d      	cmp	r5, #45	; 0x2d
    90d8:	d006      	beq.n	90e8 <__sccl+0x48>
    90da:	2d5d      	cmp	r5, #93	; 0x5d
    90dc:	d0ef      	beq.n	90be <__sccl+0x1e>
    90de:	b90d      	cbnz	r5, 90e4 <__sccl+0x44>
    90e0:	000a      	movs	r2, r1
    90e2:	e7ec      	b.n	90be <__sccl+0x1e>
    90e4:	002b      	movs	r3, r5
    90e6:	e7f2      	b.n	90ce <__sccl+0x2e>
    90e8:	784e      	ldrb	r6, [r1, #1]
    90ea:	2e5d      	cmp	r6, #93	; 0x5d
    90ec:	d0fa      	beq.n	90e4 <__sccl+0x44>
    90ee:	42b3      	cmp	r3, r6
    90f0:	dcf8      	bgt.n	90e4 <__sccl+0x44>
    90f2:	3102      	adds	r1, #2
    90f4:	3301      	adds	r3, #1
    90f6:	54c4      	strb	r4, [r0, r3]
    90f8:	429e      	cmp	r6, r3
    90fa:	dcfb      	bgt.n	90f4 <__sccl+0x54>
    90fc:	e7e9      	b.n	90d2 <__sccl+0x32>
	...

00009100 <_strtol_l.isra.0>:
    9100:	b5f0      	push	{r4, r5, r6, r7, lr}
    9102:	001f      	movs	r7, r3
    9104:	000e      	movs	r6, r1
    9106:	b087      	sub	sp, #28
    9108:	9005      	str	r0, [sp, #20]
    910a:	9103      	str	r1, [sp, #12]
    910c:	9202      	str	r2, [sp, #8]
    910e:	980c      	ldr	r0, [sp, #48]	; 0x30
    9110:	7834      	ldrb	r4, [r6, #0]
    9112:	f000 f947 	bl	93a4 <__locale_ctype_ptr_l>
    9116:	2208      	movs	r2, #8
    9118:	1900      	adds	r0, r0, r4
    911a:	7843      	ldrb	r3, [r0, #1]
    911c:	1c75      	adds	r5, r6, #1
    911e:	4013      	ands	r3, r2
    9120:	b95b      	cbnz	r3, 913a <_strtol_l.isra.0+0x3a>
    9122:	2c2d      	cmp	r4, #45	; 0x2d
    9124:	d10b      	bne.n	913e <_strtol_l.isra.0+0x3e>
    9126:	3301      	adds	r3, #1
    9128:	782c      	ldrb	r4, [r5, #0]
    912a:	9301      	str	r3, [sp, #4]
    912c:	1cb5      	adds	r5, r6, #2
    912e:	b167      	cbz	r7, 914a <_strtol_l.isra.0+0x4a>
    9130:	2f10      	cmp	r7, #16
    9132:	d114      	bne.n	915e <_strtol_l.isra.0+0x5e>
    9134:	2c30      	cmp	r4, #48	; 0x30
    9136:	d00a      	beq.n	914e <_strtol_l.isra.0+0x4e>
    9138:	e011      	b.n	915e <_strtol_l.isra.0+0x5e>
    913a:	002e      	movs	r6, r5
    913c:	e7e7      	b.n	910e <_strtol_l.isra.0+0xe>
    913e:	9301      	str	r3, [sp, #4]
    9140:	2c2b      	cmp	r4, #43	; 0x2b
    9142:	d1f4      	bne.n	912e <_strtol_l.isra.0+0x2e>
    9144:	782c      	ldrb	r4, [r5, #0]
    9146:	1cb5      	adds	r5, r6, #2
    9148:	e7f1      	b.n	912e <_strtol_l.isra.0+0x2e>
    914a:	2c30      	cmp	r4, #48	; 0x30
    914c:	d12b      	bne.n	91a6 <_strtol_l.isra.0+0xa6>
    914e:	2220      	movs	r2, #32
    9150:	782b      	ldrb	r3, [r5, #0]
    9152:	4393      	bics	r3, r2
    9154:	2b58      	cmp	r3, #88	; 0x58
    9156:	d14a      	bne.n	91ee <_strtol_l.isra.0+0xee>
    9158:	2710      	movs	r7, #16
    915a:	786c      	ldrb	r4, [r5, #1]
    915c:	3502      	adds	r5, #2
    915e:	9b01      	ldr	r3, [sp, #4]
    9160:	4a25      	ldr	r2, [pc, #148]	; (91f8 <_strtol_l.isra.0+0xf8>)
    9162:	1899      	adds	r1, r3, r2
    9164:	fbb1 f6f7 	udiv	r6, r1, r7
    9168:	003b      	movs	r3, r7
    916a:	4373      	muls	r3, r6
    916c:	1acb      	subs	r3, r1, r3
    916e:	9304      	str	r3, [sp, #16]
    9170:	2301      	movs	r3, #1
    9172:	2200      	movs	r2, #0
    9174:	425b      	negs	r3, r3
    9176:	0010      	movs	r0, r2
    9178:	469c      	mov	ip, r3
    917a:	0023      	movs	r3, r4
    917c:	3b30      	subs	r3, #48	; 0x30
    917e:	2b09      	cmp	r3, #9
    9180:	d813      	bhi.n	91aa <_strtol_l.isra.0+0xaa>
    9182:	001c      	movs	r4, r3
    9184:	42a7      	cmp	r7, r4
    9186:	dd1c      	ble.n	91c2 <_strtol_l.isra.0+0xc2>
    9188:	1c53      	adds	r3, r2, #1
    918a:	d009      	beq.n	91a0 <_strtol_l.isra.0+0xa0>
    918c:	4662      	mov	r2, ip
    918e:	4286      	cmp	r6, r0
    9190:	d306      	bcc.n	91a0 <_strtol_l.isra.0+0xa0>
    9192:	d102      	bne.n	919a <_strtol_l.isra.0+0x9a>
    9194:	9b04      	ldr	r3, [sp, #16]
    9196:	42a3      	cmp	r3, r4
    9198:	db02      	blt.n	91a0 <_strtol_l.isra.0+0xa0>
    919a:	2201      	movs	r2, #1
    919c:	4378      	muls	r0, r7
    919e:	1820      	adds	r0, r4, r0
    91a0:	782c      	ldrb	r4, [r5, #0]
    91a2:	3501      	adds	r5, #1
    91a4:	e7e9      	b.n	917a <_strtol_l.isra.0+0x7a>
    91a6:	270a      	movs	r7, #10
    91a8:	e7d9      	b.n	915e <_strtol_l.isra.0+0x5e>
    91aa:	0023      	movs	r3, r4
    91ac:	3b41      	subs	r3, #65	; 0x41
    91ae:	2b19      	cmp	r3, #25
    91b0:	d801      	bhi.n	91b6 <_strtol_l.isra.0+0xb6>
    91b2:	3c37      	subs	r4, #55	; 0x37
    91b4:	e7e6      	b.n	9184 <_strtol_l.isra.0+0x84>
    91b6:	0023      	movs	r3, r4
    91b8:	3b61      	subs	r3, #97	; 0x61
    91ba:	2b19      	cmp	r3, #25
    91bc:	d801      	bhi.n	91c2 <_strtol_l.isra.0+0xc2>
    91be:	3c57      	subs	r4, #87	; 0x57
    91c0:	e7e0      	b.n	9184 <_strtol_l.isra.0+0x84>
    91c2:	1c53      	adds	r3, r2, #1
    91c4:	d107      	bne.n	91d6 <_strtol_l.isra.0+0xd6>
    91c6:	2322      	movs	r3, #34	; 0x22
    91c8:	9a05      	ldr	r2, [sp, #20]
    91ca:	0008      	movs	r0, r1
    91cc:	6013      	str	r3, [r2, #0]
    91ce:	9b02      	ldr	r3, [sp, #8]
    91d0:	b94b      	cbnz	r3, 91e6 <_strtol_l.isra.0+0xe6>
    91d2:	b007      	add	sp, #28
    91d4:	bdf0      	pop	{r4, r5, r6, r7, pc}
    91d6:	9b01      	ldr	r3, [sp, #4]
    91d8:	b103      	cbz	r3, 91dc <_strtol_l.isra.0+0xdc>
    91da:	4240      	negs	r0, r0
    91dc:	9b02      	ldr	r3, [sp, #8]
    91de:	2b00      	cmp	r3, #0
    91e0:	d0f7      	beq.n	91d2 <_strtol_l.isra.0+0xd2>
    91e2:	9b03      	ldr	r3, [sp, #12]
    91e4:	b102      	cbz	r2, 91e8 <_strtol_l.isra.0+0xe8>
    91e6:	1e6b      	subs	r3, r5, #1
    91e8:	9a02      	ldr	r2, [sp, #8]
    91ea:	6013      	str	r3, [r2, #0]
    91ec:	e7f1      	b.n	91d2 <_strtol_l.isra.0+0xd2>
    91ee:	2430      	movs	r4, #48	; 0x30
    91f0:	2f00      	cmp	r7, #0
    91f2:	d1b4      	bne.n	915e <_strtol_l.isra.0+0x5e>
    91f4:	3708      	adds	r7, #8
    91f6:	e7b2      	b.n	915e <_strtol_l.isra.0+0x5e>
    91f8:	7fffffff 	.word	0x7fffffff

000091fc <_strtol_r>:
    91fc:	b513      	push	{r0, r1, r4, lr}
    91fe:	4c04      	ldr	r4, [pc, #16]	; (9210 <_strtol_r+0x14>)
    9200:	6824      	ldr	r4, [r4, #0]
    9202:	6a24      	ldr	r4, [r4, #32]
    9204:	b904      	cbnz	r4, 9208 <_strtol_r+0xc>
    9206:	4c03      	ldr	r4, [pc, #12]	; (9214 <_strtol_r+0x18>)
    9208:	9400      	str	r4, [sp, #0]
    920a:	f7ff ff79 	bl	9100 <_strtol_l.isra.0>
    920e:	bd16      	pop	{r1, r2, r4, pc}
    9210:	20002000 	.word	0x20002000
    9214:	20002064 	.word	0x20002064

00009218 <_strtoul_l.isra.0>:
    9218:	b5f0      	push	{r4, r5, r6, r7, lr}
    921a:	001f      	movs	r7, r3
    921c:	000e      	movs	r6, r1
    921e:	b087      	sub	sp, #28
    9220:	9005      	str	r0, [sp, #20]
    9222:	9103      	str	r1, [sp, #12]
    9224:	9201      	str	r2, [sp, #4]
    9226:	980c      	ldr	r0, [sp, #48]	; 0x30
    9228:	7834      	ldrb	r4, [r6, #0]
    922a:	f000 f8bb 	bl	93a4 <__locale_ctype_ptr_l>
    922e:	2208      	movs	r2, #8
    9230:	1900      	adds	r0, r0, r4
    9232:	7843      	ldrb	r3, [r0, #1]
    9234:	1c75      	adds	r5, r6, #1
    9236:	4013      	ands	r3, r2
    9238:	b95b      	cbnz	r3, 9252 <_strtoul_l.isra.0+0x3a>
    923a:	2c2d      	cmp	r4, #45	; 0x2d
    923c:	d10b      	bne.n	9256 <_strtoul_l.isra.0+0x3e>
    923e:	3301      	adds	r3, #1
    9240:	782c      	ldrb	r4, [r5, #0]
    9242:	9302      	str	r3, [sp, #8]
    9244:	1cb5      	adds	r5, r6, #2
    9246:	b167      	cbz	r7, 9262 <_strtoul_l.isra.0+0x4a>
    9248:	2f10      	cmp	r7, #16
    924a:	d114      	bne.n	9276 <_strtoul_l.isra.0+0x5e>
    924c:	2c30      	cmp	r4, #48	; 0x30
    924e:	d00a      	beq.n	9266 <_strtoul_l.isra.0+0x4e>
    9250:	e011      	b.n	9276 <_strtoul_l.isra.0+0x5e>
    9252:	002e      	movs	r6, r5
    9254:	e7e7      	b.n	9226 <_strtoul_l.isra.0+0xe>
    9256:	9302      	str	r3, [sp, #8]
    9258:	2c2b      	cmp	r4, #43	; 0x2b
    925a:	d1f4      	bne.n	9246 <_strtoul_l.isra.0+0x2e>
    925c:	782c      	ldrb	r4, [r5, #0]
    925e:	1cb5      	adds	r5, r6, #2
    9260:	e7f1      	b.n	9246 <_strtoul_l.isra.0+0x2e>
    9262:	2c30      	cmp	r4, #48	; 0x30
    9264:	d129      	bne.n	92ba <_strtoul_l.isra.0+0xa2>
    9266:	2220      	movs	r2, #32
    9268:	782b      	ldrb	r3, [r5, #0]
    926a:	4393      	bics	r3, r2
    926c:	2b58      	cmp	r3, #88	; 0x58
    926e:	d14b      	bne.n	9308 <_strtoul_l.isra.0+0xf0>
    9270:	2710      	movs	r7, #16
    9272:	786c      	ldrb	r4, [r5, #1]
    9274:	3502      	adds	r5, #2
    9276:	2101      	movs	r1, #1
    9278:	4249      	negs	r1, r1
    927a:	fbb1 f6f7 	udiv	r6, r1, r7
    927e:	003b      	movs	r3, r7
    9280:	4373      	muls	r3, r6
    9282:	43db      	mvns	r3, r3
    9284:	9304      	str	r3, [sp, #16]
    9286:	2300      	movs	r3, #0
    9288:	f240 0c01 	movw	ip, #1
    928c:	0018      	movs	r0, r3
    928e:	0022      	movs	r2, r4
    9290:	3a30      	subs	r2, #48	; 0x30
    9292:	2a09      	cmp	r2, #9
    9294:	d813      	bhi.n	92be <_strtoul_l.isra.0+0xa6>
    9296:	0014      	movs	r4, r2
    9298:	42a7      	cmp	r7, r4
    929a:	dd1e      	ble.n	92da <_strtoul_l.isra.0+0xc2>
    929c:	2b00      	cmp	r3, #0
    929e:	db1a      	blt.n	92d6 <_strtoul_l.isra.0+0xbe>
    92a0:	000b      	movs	r3, r1
    92a2:	4286      	cmp	r6, r0
    92a4:	d306      	bcc.n	92b4 <_strtoul_l.isra.0+0x9c>
    92a6:	d102      	bne.n	92ae <_strtoul_l.isra.0+0x96>
    92a8:	9a04      	ldr	r2, [sp, #16]
    92aa:	42a2      	cmp	r2, r4
    92ac:	db02      	blt.n	92b4 <_strtoul_l.isra.0+0x9c>
    92ae:	4663      	mov	r3, ip
    92b0:	4378      	muls	r0, r7
    92b2:	1820      	adds	r0, r4, r0
    92b4:	782c      	ldrb	r4, [r5, #0]
    92b6:	3501      	adds	r5, #1
    92b8:	e7e9      	b.n	928e <_strtoul_l.isra.0+0x76>
    92ba:	270a      	movs	r7, #10
    92bc:	e7db      	b.n	9276 <_strtoul_l.isra.0+0x5e>
    92be:	0022      	movs	r2, r4
    92c0:	3a41      	subs	r2, #65	; 0x41
    92c2:	2a19      	cmp	r2, #25
    92c4:	d801      	bhi.n	92ca <_strtoul_l.isra.0+0xb2>
    92c6:	3c37      	subs	r4, #55	; 0x37
    92c8:	e7e6      	b.n	9298 <_strtoul_l.isra.0+0x80>
    92ca:	0022      	movs	r2, r4
    92cc:	3a61      	subs	r2, #97	; 0x61
    92ce:	2a19      	cmp	r2, #25
    92d0:	d803      	bhi.n	92da <_strtoul_l.isra.0+0xc2>
    92d2:	3c57      	subs	r4, #87	; 0x57
    92d4:	e7e0      	b.n	9298 <_strtoul_l.isra.0+0x80>
    92d6:	000b      	movs	r3, r1
    92d8:	e7ec      	b.n	92b4 <_strtoul_l.isra.0+0x9c>
    92da:	2b00      	cmp	r3, #0
    92dc:	da08      	bge.n	92f0 <_strtoul_l.isra.0+0xd8>
    92de:	2322      	movs	r3, #34	; 0x22
    92e0:	2001      	movs	r0, #1
    92e2:	9a05      	ldr	r2, [sp, #20]
    92e4:	4240      	negs	r0, r0
    92e6:	6013      	str	r3, [r2, #0]
    92e8:	9b01      	ldr	r3, [sp, #4]
    92ea:	b94b      	cbnz	r3, 9300 <_strtoul_l.isra.0+0xe8>
    92ec:	b007      	add	sp, #28
    92ee:	bdf0      	pop	{r4, r5, r6, r7, pc}
    92f0:	9a02      	ldr	r2, [sp, #8]
    92f2:	b102      	cbz	r2, 92f6 <_strtoul_l.isra.0+0xde>
    92f4:	4240      	negs	r0, r0
    92f6:	9a01      	ldr	r2, [sp, #4]
    92f8:	2a00      	cmp	r2, #0
    92fa:	d0f7      	beq.n	92ec <_strtoul_l.isra.0+0xd4>
    92fc:	9a03      	ldr	r2, [sp, #12]
    92fe:	b103      	cbz	r3, 9302 <_strtoul_l.isra.0+0xea>
    9300:	1e6a      	subs	r2, r5, #1
    9302:	9b01      	ldr	r3, [sp, #4]
    9304:	601a      	str	r2, [r3, #0]
    9306:	e7f1      	b.n	92ec <_strtoul_l.isra.0+0xd4>
    9308:	2430      	movs	r4, #48	; 0x30
    930a:	2f00      	cmp	r7, #0
    930c:	d1b3      	bne.n	9276 <_strtoul_l.isra.0+0x5e>
    930e:	3708      	adds	r7, #8
    9310:	e7b1      	b.n	9276 <_strtoul_l.isra.0+0x5e>
	...

00009314 <_strtoul_r>:
    9314:	b513      	push	{r0, r1, r4, lr}
    9316:	4c04      	ldr	r4, [pc, #16]	; (9328 <_strtoul_r+0x14>)
    9318:	6824      	ldr	r4, [r4, #0]
    931a:	6a24      	ldr	r4, [r4, #32]
    931c:	b904      	cbnz	r4, 9320 <_strtoul_r+0xc>
    931e:	4c03      	ldr	r4, [pc, #12]	; (932c <_strtoul_r+0x18>)
    9320:	9400      	str	r4, [sp, #0]
    9322:	f7ff ff79 	bl	9218 <_strtoul_l.isra.0>
    9326:	bd16      	pop	{r1, r2, r4, pc}
    9328:	20002000 	.word	0x20002000
    932c:	20002064 	.word	0x20002064

00009330 <__submore>:
    9330:	000b      	movs	r3, r1
    9332:	b5f7      	push	{r0, r1, r2, r4, r5, r6, r7, lr}
    9334:	6b4d      	ldr	r5, [r1, #52]	; 0x34
    9336:	3344      	adds	r3, #68	; 0x44
    9338:	000c      	movs	r4, r1
    933a:	429d      	cmp	r5, r3
    933c:	d11d      	bne.n	937a <__submore+0x4a>
    933e:	f240 4600 	movw	r6, #1024	; 0x400
    9342:	0031      	movs	r1, r6
    9344:	f000 f8ac 	bl	94a0 <_malloc_r>
    9348:	b910      	cbnz	r0, 9350 <__submore+0x20>
    934a:	2001      	movs	r0, #1
    934c:	4240      	negs	r0, r0
    934e:	bdfe      	pop	{r1, r2, r3, r4, r5, r6, r7, pc}
    9350:	0023      	movs	r3, r4
    9352:	6360      	str	r0, [r4, #52]	; 0x34
    9354:	63a6      	str	r6, [r4, #56]	; 0x38
    9356:	3346      	adds	r3, #70	; 0x46
    9358:	781a      	ldrb	r2, [r3, #0]
    935a:	f240 33ff 	movw	r3, #1023	; 0x3ff
    935e:	54c2      	strb	r2, [r0, r3]
    9360:	0023      	movs	r3, r4
    9362:	3345      	adds	r3, #69	; 0x45
    9364:	781a      	ldrb	r2, [r3, #0]
    9366:	f240 33fe 	movw	r3, #1022	; 0x3fe
    936a:	54c2      	strb	r2, [r0, r3]
    936c:	782a      	ldrb	r2, [r5, #0]
    936e:	3b01      	subs	r3, #1
    9370:	54c2      	strb	r2, [r0, r3]
    9372:	18c0      	adds	r0, r0, r3
    9374:	6020      	str	r0, [r4, #0]
    9376:	2000      	movs	r0, #0
    9378:	e7e9      	b.n	934e <__submore+0x1e>
    937a:	6b8e      	ldr	r6, [r1, #56]	; 0x38
    937c:	0029      	movs	r1, r5
    937e:	0073      	lsls	r3, r6, #1
    9380:	001a      	movs	r2, r3
    9382:	9301      	str	r3, [sp, #4]
    9384:	f000 f8ea 	bl	955c <_realloc_r>
    9388:	0005      	movs	r5, r0
    938a:	2800      	cmp	r0, #0
    938c:	d0dd      	beq.n	934a <__submore+0x1a>
    938e:	1987      	adds	r7, r0, r6
    9390:	0001      	movs	r1, r0
    9392:	0032      	movs	r2, r6
    9394:	0038      	movs	r0, r7
    9396:	f000 f830 	bl	93fa <memcpy>
    939a:	9b01      	ldr	r3, [sp, #4]
    939c:	6027      	str	r7, [r4, #0]
    939e:	6365      	str	r5, [r4, #52]	; 0x34
    93a0:	63a3      	str	r3, [r4, #56]	; 0x38
    93a2:	e7e8      	b.n	9376 <__submore+0x46>

000093a4 <__locale_ctype_ptr_l>:
    93a4:	30ec      	adds	r0, #236	; 0xec
    93a6:	6800      	ldr	r0, [r0, #0]
    93a8:	4770      	bx	lr
	...

000093ac <__locale_ctype_ptr>:
    93ac:	4b03      	ldr	r3, [pc, #12]	; (93bc <__locale_ctype_ptr+0x10>)
    93ae:	681b      	ldr	r3, [r3, #0]
    93b0:	6a1b      	ldr	r3, [r3, #32]
    93b2:	b903      	cbnz	r3, 93b6 <__locale_ctype_ptr+0xa>
    93b4:	4b02      	ldr	r3, [pc, #8]	; (93c0 <__locale_ctype_ptr+0x14>)
    93b6:	33ec      	adds	r3, #236	; 0xec
    93b8:	6818      	ldr	r0, [r3, #0]
    93ba:	4770      	bx	lr
    93bc:	20002000 	.word	0x20002000
    93c0:	20002064 	.word	0x20002064

000093c4 <__ascii_mbtowc>:
    93c4:	b082      	sub	sp, #8
    93c6:	b901      	cbnz	r1, 93ca <__ascii_mbtowc+0x6>
    93c8:	a901      	add	r1, sp, #4
    93ca:	0010      	movs	r0, r2
    93cc:	b12a      	cbz	r2, 93da <__ascii_mbtowc+0x16>
    93ce:	b133      	cbz	r3, 93de <__ascii_mbtowc+0x1a>
    93d0:	7813      	ldrb	r3, [r2, #0]
    93d2:	600b      	str	r3, [r1, #0]
    93d4:	7810      	ldrb	r0, [r2, #0]
    93d6:	1e43      	subs	r3, r0, #1
    93d8:	4198      	sbcs	r0, r3
    93da:	b002      	add	sp, #8
    93dc:	4770      	bx	lr
    93de:	2002      	movs	r0, #2
    93e0:	4240      	negs	r0, r0
    93e2:	e7fa      	b.n	93da <__ascii_mbtowc+0x16>

000093e4 <memchr>:
    93e4:	b2c9      	uxtb	r1, r1
    93e6:	1882      	adds	r2, r0, r2
    93e8:	4290      	cmp	r0, r2
    93ea:	d101      	bne.n	93f0 <memchr+0xc>
    93ec:	2000      	movs	r0, #0
    93ee:	4770      	bx	lr
    93f0:	7803      	ldrb	r3, [r0, #0]
    93f2:	428b      	cmp	r3, r1
    93f4:	d0fb      	beq.n	93ee <memchr+0xa>
    93f6:	3001      	adds	r0, #1
    93f8:	e7f6      	b.n	93e8 <memchr+0x4>

000093fa <memcpy>:
    93fa:	2300      	movs	r3, #0
    93fc:	b510      	push	{r4, lr}
    93fe:	429a      	cmp	r2, r3
    9400:	d100      	bne.n	9404 <memcpy+0xa>
    9402:	bd10      	pop	{r4, pc}
    9404:	5ccc      	ldrb	r4, [r1, r3]
    9406:	54c4      	strb	r4, [r0, r3]
    9408:	3301      	adds	r3, #1
    940a:	e7f8      	b.n	93fe <memcpy+0x4>

0000940c <_free_r>:
    940c:	b570      	push	{r4, r5, r6, lr}
    940e:	0005      	movs	r5, r0
    9410:	b181      	cbz	r1, 9434 <_free_r+0x28>
    9412:	1f0c      	subs	r4, r1, #4
    9414:	6823      	ldr	r3, [r4, #0]
    9416:	2b00      	cmp	r3, #0
    9418:	da00      	bge.n	941c <_free_r+0x10>
    941a:	18e4      	adds	r4, r4, r3
    941c:	0028      	movs	r0, r5
    941e:	f000 f8df 	bl	95e0 <__malloc_lock>
    9422:	4a1e      	ldr	r2, [pc, #120]	; (949c <_free_r+0x90>)
    9424:	6813      	ldr	r3, [r2, #0]
    9426:	0011      	movs	r1, r2
    9428:	b92b      	cbnz	r3, 9436 <_free_r+0x2a>
    942a:	6063      	str	r3, [r4, #4]
    942c:	6014      	str	r4, [r2, #0]
    942e:	0028      	movs	r0, r5
    9430:	f000 f8d7 	bl	95e2 <__malloc_unlock>
    9434:	bd70      	pop	{r4, r5, r6, pc}
    9436:	42a3      	cmp	r3, r4
    9438:	d90b      	bls.n	9452 <_free_r+0x46>
    943a:	6822      	ldr	r2, [r4, #0]
    943c:	18a0      	adds	r0, r4, r2
    943e:	4283      	cmp	r3, r0
    9440:	d103      	bne.n	944a <_free_r+0x3e>
    9442:	6818      	ldr	r0, [r3, #0]
    9444:	685b      	ldr	r3, [r3, #4]
    9446:	1882      	adds	r2, r0, r2
    9448:	6022      	str	r2, [r4, #0]
    944a:	6063      	str	r3, [r4, #4]
    944c:	600c      	str	r4, [r1, #0]
    944e:	e7ee      	b.n	942e <_free_r+0x22>
    9450:	0013      	movs	r3, r2
    9452:	685a      	ldr	r2, [r3, #4]
    9454:	b10a      	cbz	r2, 945a <_free_r+0x4e>
    9456:	42a2      	cmp	r2, r4
    9458:	d9fa      	bls.n	9450 <_free_r+0x44>
    945a:	6819      	ldr	r1, [r3, #0]
    945c:	1858      	adds	r0, r3, r1
    945e:	42a0      	cmp	r0, r4
    9460:	d10b      	bne.n	947a <_free_r+0x6e>
    9462:	6820      	ldr	r0, [r4, #0]
    9464:	1809      	adds	r1, r1, r0
    9466:	1858      	adds	r0, r3, r1
    9468:	6019      	str	r1, [r3, #0]
    946a:	4282      	cmp	r2, r0
    946c:	d1df      	bne.n	942e <_free_r+0x22>
    946e:	6810      	ldr	r0, [r2, #0]
    9470:	6852      	ldr	r2, [r2, #4]
    9472:	1841      	adds	r1, r0, r1
    9474:	6019      	str	r1, [r3, #0]
    9476:	605a      	str	r2, [r3, #4]
    9478:	e7d9      	b.n	942e <_free_r+0x22>
    947a:	42a0      	cmp	r0, r4
    947c:	d902      	bls.n	9484 <_free_r+0x78>
    947e:	230c      	movs	r3, #12
    9480:	602b      	str	r3, [r5, #0]
    9482:	e7d4      	b.n	942e <_free_r+0x22>
    9484:	6821      	ldr	r1, [r4, #0]
    9486:	1860      	adds	r0, r4, r1
    9488:	4282      	cmp	r2, r0
    948a:	d103      	bne.n	9494 <_free_r+0x88>
    948c:	6810      	ldr	r0, [r2, #0]
    948e:	6852      	ldr	r2, [r2, #4]
    9490:	1841      	adds	r1, r0, r1
    9492:	6021      	str	r1, [r4, #0]
    9494:	6062      	str	r2, [r4, #4]
    9496:	605c      	str	r4, [r3, #4]
    9498:	e7c9      	b.n	942e <_free_r+0x22>
    949a:	46c0      	nop			; (mov r8, r8)
    949c:	200021ec 	.word	0x200021ec

000094a0 <_malloc_r>:
    94a0:	2303      	movs	r3, #3
    94a2:	b570      	push	{r4, r5, r6, lr}
    94a4:	1ccd      	adds	r5, r1, #3
    94a6:	439d      	bics	r5, r3
    94a8:	3508      	adds	r5, #8
    94aa:	0006      	movs	r6, r0
    94ac:	2d0c      	cmp	r5, #12
    94ae:	d21c      	bcs.n	94ea <_malloc_r+0x4a>
    94b0:	250c      	movs	r5, #12
    94b2:	42a9      	cmp	r1, r5
    94b4:	d81b      	bhi.n	94ee <_malloc_r+0x4e>
    94b6:	0030      	movs	r0, r6
    94b8:	f000 f892 	bl	95e0 <__malloc_lock>
    94bc:	4a25      	ldr	r2, [pc, #148]	; (9554 <_malloc_r+0xb4>)
    94be:	6814      	ldr	r4, [r2, #0]
    94c0:	0021      	movs	r1, r4
    94c2:	b9c1      	cbnz	r1, 94f6 <_malloc_r+0x56>
    94c4:	4c24      	ldr	r4, [pc, #144]	; (9558 <_malloc_r+0xb8>)
    94c6:	6823      	ldr	r3, [r4, #0]
    94c8:	b91b      	cbnz	r3, 94d2 <_malloc_r+0x32>
    94ca:	0030      	movs	r0, r6
    94cc:	f000 f86c 	bl	95a8 <_sbrk_r>
    94d0:	6020      	str	r0, [r4, #0]
    94d2:	0029      	movs	r1, r5
    94d4:	0030      	movs	r0, r6
    94d6:	f000 f867 	bl	95a8 <_sbrk_r>
    94da:	1c43      	adds	r3, r0, #1
    94dc:	d12d      	bne.n	953a <_malloc_r+0x9a>
    94de:	230c      	movs	r3, #12
    94e0:	0030      	movs	r0, r6
    94e2:	6033      	str	r3, [r6, #0]
    94e4:	f000 f87d 	bl	95e2 <__malloc_unlock>
    94e8:	e003      	b.n	94f2 <_malloc_r+0x52>
    94ea:	2d00      	cmp	r5, #0
    94ec:	dae1      	bge.n	94b2 <_malloc_r+0x12>
    94ee:	230c      	movs	r3, #12
    94f0:	6033      	str	r3, [r6, #0]
    94f2:	2000      	movs	r0, #0
    94f4:	bd70      	pop	{r4, r5, r6, pc}
    94f6:	680b      	ldr	r3, [r1, #0]
    94f8:	1b5b      	subs	r3, r3, r5
    94fa:	d41b      	bmi.n	9534 <_malloc_r+0x94>
    94fc:	2b0b      	cmp	r3, #11
    94fe:	d903      	bls.n	9508 <_malloc_r+0x68>
    9500:	600b      	str	r3, [r1, #0]
    9502:	18cc      	adds	r4, r1, r3
    9504:	6025      	str	r5, [r4, #0]
    9506:	e003      	b.n	9510 <_malloc_r+0x70>
    9508:	428c      	cmp	r4, r1
    950a:	d10f      	bne.n	952c <_malloc_r+0x8c>
    950c:	6863      	ldr	r3, [r4, #4]
    950e:	6013      	str	r3, [r2, #0]
    9510:	0030      	movs	r0, r6
    9512:	f000 f866 	bl	95e2 <__malloc_unlock>
    9516:	0020      	movs	r0, r4
    9518:	2207      	movs	r2, #7
    951a:	300b      	adds	r0, #11
    951c:	1d23      	adds	r3, r4, #4
    951e:	4390      	bics	r0, r2
    9520:	1ac3      	subs	r3, r0, r3
    9522:	2b00      	cmp	r3, #0
    9524:	d0e6      	beq.n	94f4 <_malloc_r+0x54>
    9526:	425a      	negs	r2, r3
    9528:	50e2      	str	r2, [r4, r3]
    952a:	e7e3      	b.n	94f4 <_malloc_r+0x54>
    952c:	684b      	ldr	r3, [r1, #4]
    952e:	6063      	str	r3, [r4, #4]
    9530:	000c      	movs	r4, r1
    9532:	e7ed      	b.n	9510 <_malloc_r+0x70>
    9534:	000c      	movs	r4, r1
    9536:	6849      	ldr	r1, [r1, #4]
    9538:	e7c3      	b.n	94c2 <_malloc_r+0x22>
    953a:	2303      	movs	r3, #3
    953c:	1cc4      	adds	r4, r0, #3
    953e:	439c      	bics	r4, r3
    9540:	42a0      	cmp	r0, r4
    9542:	d0df      	beq.n	9504 <_malloc_r+0x64>
    9544:	1a21      	subs	r1, r4, r0
    9546:	0030      	movs	r0, r6
    9548:	f000 f82e 	bl	95a8 <_sbrk_r>
    954c:	1c43      	adds	r3, r0, #1
    954e:	d1d9      	bne.n	9504 <_malloc_r+0x64>
    9550:	e7c5      	b.n	94de <_malloc_r+0x3e>
    9552:	46c0      	nop			; (mov r8, r8)
    9554:	200021ec 	.word	0x200021ec
    9558:	200021f0 	.word	0x200021f0

0000955c <_realloc_r>:
    955c:	b5f8      	push	{r3, r4, r5, r6, r7, lr}
    955e:	0007      	movs	r7, r0
    9560:	000d      	movs	r5, r1
    9562:	0016      	movs	r6, r2
    9564:	b929      	cbnz	r1, 9572 <_realloc_r+0x16>
    9566:	0011      	movs	r1, r2
    9568:	f7ff ff9a 	bl	94a0 <_malloc_r>
    956c:	0004      	movs	r4, r0
    956e:	0020      	movs	r0, r4
    9570:	bdf8      	pop	{r3, r4, r5, r6, r7, pc}
    9572:	b91a      	cbnz	r2, 957c <_realloc_r+0x20>
    9574:	f7ff ff4a 	bl	940c <_free_r>
    9578:	0034      	movs	r4, r6
    957a:	e7f8      	b.n	956e <_realloc_r+0x12>
    957c:	f000 f832 	bl	95e4 <_malloc_usable_size_r>
    9580:	002c      	movs	r4, r5
    9582:	4286      	cmp	r6, r0
    9584:	d9f3      	bls.n	956e <_realloc_r+0x12>
    9586:	0031      	movs	r1, r6
    9588:	0038      	movs	r0, r7
    958a:	f7ff ff89 	bl	94a0 <_malloc_r>
    958e:	0004      	movs	r4, r0
    9590:	2800      	cmp	r0, #0
    9592:	d0ec      	beq.n	956e <_realloc_r+0x12>
    9594:	0029      	movs	r1, r5
    9596:	0032      	movs	r2, r6
    9598:	f7ff ff2f 	bl	93fa <memcpy>
    959c:	0029      	movs	r1, r5
    959e:	0038      	movs	r0, r7
    95a0:	f7ff ff34 	bl	940c <_free_r>
    95a4:	e7e3      	b.n	956e <_realloc_r+0x12>
	...

000095a8 <_sbrk_r>:
    95a8:	2300      	movs	r3, #0
    95aa:	b570      	push	{r4, r5, r6, lr}
    95ac:	4c05      	ldr	r4, [pc, #20]	; (95c4 <_sbrk_r+0x1c>)
    95ae:	0005      	movs	r5, r0
    95b0:	0008      	movs	r0, r1
    95b2:	6023      	str	r3, [r4, #0]
    95b4:	f000 f81e 	bl	95f4 <_sbrk>
    95b8:	1c43      	adds	r3, r0, #1
    95ba:	d102      	bne.n	95c2 <_sbrk_r+0x1a>
    95bc:	6823      	ldr	r3, [r4, #0]
    95be:	b103      	cbz	r3, 95c2 <_sbrk_r+0x1a>
    95c0:	602b      	str	r3, [r5, #0]
    95c2:	bd70      	pop	{r4, r5, r6, pc}
    95c4:	20002200 	.word	0x20002200

000095c8 <__ascii_wctomb>:
    95c8:	000b      	movs	r3, r1
    95ca:	b121      	cbz	r1, 95d6 <__ascii_wctomb+0xe>
    95cc:	2aff      	cmp	r2, #255	; 0xff
    95ce:	d904      	bls.n	95da <__ascii_wctomb+0x12>
    95d0:	238a      	movs	r3, #138	; 0x8a
    95d2:	6003      	str	r3, [r0, #0]
    95d4:	3b8b      	subs	r3, #139	; 0x8b
    95d6:	0018      	movs	r0, r3
    95d8:	4770      	bx	lr
    95da:	700a      	strb	r2, [r1, #0]
    95dc:	2301      	movs	r3, #1
    95de:	e7fa      	b.n	95d6 <__ascii_wctomb+0xe>

000095e0 <__malloc_lock>:
    95e0:	4770      	bx	lr

000095e2 <__malloc_unlock>:
    95e2:	4770      	bx	lr

000095e4 <_malloc_usable_size_r>:
    95e4:	1f0b      	subs	r3, r1, #4
    95e6:	681b      	ldr	r3, [r3, #0]
    95e8:	1f18      	subs	r0, r3, #4
    95ea:	2b00      	cmp	r3, #0
    95ec:	da01      	bge.n	95f2 <_malloc_usable_size_r+0xe>
    95ee:	580b      	ldr	r3, [r1, r0]
    95f0:	18c0      	adds	r0, r0, r3
    95f2:	4770      	bx	lr

000095f4 <_sbrk>:
    95f4:	f242 13f4 	movw	r3, #8692	; 0x21f4
    95f8:	f2c2 0300 	movt	r3, #8192	; 0x2000
    95fc:	681a      	ldr	r2, [r3, #0]
    95fe:	b11a      	cbz	r2, 9608 <_sbrk+0x14>
    9600:	1810      	adds	r0, r2, r0
    9602:	6018      	str	r0, [r3, #0]
    9604:	0010      	movs	r0, r2
    9606:	4770      	bx	lr
    9608:	f242 2208 	movw	r2, #8712	; 0x2208
    960c:	f2c2 0200 	movt	r2, #8192	; 0x2000
    9610:	e7f6      	b.n	9600 <_sbrk+0xc>
    9612:	46c0      	nop			; (mov r8, r8)
    9614:	00006425 	.word	0x00006425
    9618:	65746e45 	.word	0x65746e45
    961c:	756e2072 	.word	0x756e2072
    9620:	7265626d 	.word	0x7265626d
    9624:	0000203a 	.word	0x0000203a
    9628:	00000a0d 	.word	0x00000a0d
    962c:	65480a0d 	.word	0x65480a0d
    9630:	2c6f6c6c 	.word	0x2c6f6c6c
    9634:	6e6f6e20 	.word	0x6e6f6e20
    9638:	6365732d 	.word	0x6365732d
    963c:	20657275 	.word	0x20657275
    9640:	6c726f77 	.word	0x6c726f77
    9644:	0a0d2164 	.word	0x0a0d2164
    9648:	74754f20 	.word	0x74754f20
    964c:	3a747570 	.word	0x3a747570
    9650:	00000020 	.word	0x00000020
    9654:	6e200a0d 	.word	0x6e200a0d
    9658:	732d6e6f 	.word	0x732d6e6f
    965c:	72756365 	.word	0x72756365
    9660:	6f772065 	.word	0x6f772065
    9664:	20646c72 	.word	0x20646c72
    9668:	67207369 	.word	0x67207369
    966c:	676e696f 	.word	0x676e696f
    9670:	206f7420 	.word	0x206f7420
    9674:	65656c73 	.word	0x65656c73
    9678:	00000a70 	.word	0x00000a70
    967c:	004c6c68 	.word	0x004c6c68
    9680:	0000969e 	.word	0x0000969e
    9684:	000096a1 	.word	0x000096a1
    9688:	000096a4 	.word	0x000096a4
    968c:	61462d41 	.word	0x61462d41
    9690:	3938662d 	.word	0x3938662d
    9694:	33323130 	.word	0x33323130
    9698:	37363534 	.word	0x37363534
    969c:	005d      	.short	0x005d
    969e:	2d2b      	.short	0x2d2b
    96a0:	00303000 	.word	0x00303000
    96a4:	00005878 	.word	0x00005878

000096a8 <__sf_fake_stderr>:
	...

000096c8 <__sf_fake_stdin>:
	...

000096e8 <__sf_fake_stdout>:
	...
    9708:	4f500043 00584953 2000002e                       C.POSIX...

00009712 <_ctype_>:
    9712:	20202000 20202020 28282020 20282828     .         ((((( 
    9722:	20202020 20202020 20202020 20202020                     
    9732:	10108820 10101010 10101010 10101010      ...............
    9742:	04040410 04040404 10040404 10101010     ................
    9752:	41411010 41414141 01010101 01010101     ..AAAAAA........
    9762:	01010101 01010101 01010101 10101010     ................
    9772:	42421010 42424242 02020202 02020202     ..BBBBBB........
    9782:	02020202 02020202 02020202 10101010     ................
    9792:	00000020 00000000 00000000 00000000      ...............
	...

00009814 <_init>:
    9814:	b5f8      	push	{r3, r4, r5, r6, r7, lr}
    9816:	46c0      	nop			; (mov r8, r8)
    9818:	bcf8      	pop	{r3, r4, r5, r6, r7}
    981a:	bc08      	pop	{r3}
    981c:	469e      	mov	lr, r3
    981e:	4770      	bx	lr

00009820 <__init_array_start>:
    9820:	00008121 	.word	0x00008121

00009824 <_fini>:
    9824:	b5f8      	push	{r3, r4, r5, r6, r7, lr}
    9826:	46c0      	nop			; (mov r8, r8)
    9828:	bcf8      	pop	{r3, r4, r5, r6, r7}
    982a:	bc08      	pop	{r3}
    982c:	469e      	mov	lr, r3
    982e:	4770      	bx	lr

00009830 <__fini_array_start>:
    9830:	000080f5 	.word	0x000080f5
